ARM GAS  C:\Users\24120\AppData\Local\Temp\cciaFKJB.s 			page 1


   1              		.cpu cortex-m4
   2              		.arch armv7e-m
   3              		.fpu fpv4-sp-d16
   4              		.eabi_attribute 27, 1
   5              		.eabi_attribute 28, 1
   6              		.eabi_attribute 20, 1
   7              		.eabi_attribute 21, 1
   8              		.eabi_attribute 23, 3
   9              		.eabi_attribute 24, 1
  10              		.eabi_attribute 25, 1
  11              		.eabi_attribute 26, 1
  12              		.eabi_attribute 30, 1
  13              		.eabi_attribute 34, 1
  14              		.eabi_attribute 18, 4
  15              		.file	"display.c"
  16              		.text
  17              	.Ltext0:
  18              		.cfi_sections	.debug_frame
  19              		.file 1 "BSP/display.c"
  20              		.section	.text.computeCharWidths,"ax",%progbits
  21              		.align	1
  22              		.syntax unified
  23              		.thumb
  24              		.thumb_func
  26              	computeCharWidths:
  27              	.LVL0:
  28              	.LFB261:
   1:BSP/display.c **** /**
   2:BSP/display.c ****  * @file    display.c
   3:BSP/display.c ****  * @brief   OLED 显示模块实现 - 状态机驱动
   4:BSP/display.c ****  * @details 四个核心状态: CLOCK / RESULT / TIME_SET / ADMIN_SET
   5:BSP/display.c ****  *          所有 GUI 渲染函数集中在此, 仅在 guiTask 上下文中调用.
   6:BSP/display.c ****  */
   7:BSP/display.c **** 
   8:BSP/display.c **** #include "display.h"
   9:BSP/display.c **** #include "GUI.h"
  10:BSP/display.c **** #include "ssd1306.h"
  11:BSP/display.c **** #include "bsp_rtc.h"
  12:BSP/display.c **** #include "ds18B20.h"
  13:BSP/display.c **** #include "w25qxx.h"
  14:BSP/display.c **** #include "record.h"
  15:BSP/display.c **** #include "i2c.h"
  16:BSP/display.c **** #include <stdio.h>
  17:BSP/display.c **** #include <string.h>
  18:BSP/display.c **** 
  19:BSP/display.c **** /* ====== 外部字库 & 位图声明 ====== */
  20:BSP/display.c **** extern GUI_FLASH const GUI_FONT GUI_FontHZ_SimSun_16;
  21:BSP/display.c **** extern GUI_FLASH const GUI_FONT GUI_FontHZ_SimSun_32;
  22:BSP/display.c **** extern GUI_CONST_STORAGE GUI_BITMAP bmHDU;
  23:BSP/display.c **** 
  24:BSP/display.c **** /* ====== 模块内部变量 ====== */
  25:BSP/display.c **** 
  26:BSP/display.c **** /** 中文星期表 (0=周日 ~ 6=周六) */
  27:BSP/display.c **** static const char *s_weekdays_cn[] = {
  28:BSP/display.c ****     "\xe5\x91\xa8\xe6\x97\xa5",
  29:BSP/display.c ****     "\xe5\x91\xa8\xe4\xb8\x80",
  30:BSP/display.c ****     "\xe5\x91\xa8\xe4\xba\x8c",
ARM GAS  C:\Users\24120\AppData\Local\Temp\cciaFKJB.s 			page 2


  31:BSP/display.c ****     "\xe5\x91\xa8\xe4\xb8\x89",
  32:BSP/display.c ****     "\xe5\x91\xa8\xe5\x9b\x9b",
  33:BSP/display.c ****     "\xe5\x91\xa8\xe4\xba\x94",
  34:BSP/display.c ****     "\xe5\x91\xa8\xe5\x85\xad",
  35:BSP/display.c **** };
  36:BSP/display.c **** 
  37:BSP/display.c **** /** 刷卡信息共享缓冲 (nfcTask 写入 -> guiTask 读取) */
  38:BSP/display.c **** static DispCardInfo_t   s_cardInfo;
  39:BSP/display.c **** static DispCardBitmap_t s_cardBitmap;  /* 卡片位图缓存 */
  40:BSP/display.c **** static DispState_t      s_state = DISP_STATE_CLOCK;
  41:BSP/display.c **** static DispAdminCfg_t   s_adminCfg = {1, 2};  /* 默认设备1, 出入口模式 */
  42:BSP/display.c **** 
  43:BSP/display.c **** /** 考勤模式名称 */
  44:BSP/display.c **** static const char *s_modeNames[] = {
  45:BSP/display.c ****     "\xe5\x85\xa5\xe5\x8f\xa3",       /* 入口 */
  46:BSP/display.c ****     "\xe5\x87\xba\xe5\x8f\xa3",       /* 出口 */
  47:BSP/display.c ****     "\xe5\x87\xba\xe5\x85\xa5\xe5\x8f\xa3", /* 出入口 */
  48:BSP/display.c **** };
  49:BSP/display.c **** 
  50:BSP/display.c **** /** 天气滚动缓存 (defaultTask 写入, guiTask DISP_ShowClock 读取) */
  51:BSP/display.c **** static DispWeatherCache_t s_weatherCache;
  52:BSP/display.c **** 
  53:BSP/display.c **** /** NTP 时间偏差 (networkTask 写入, nfcTask 读取) */
  54:BSP/display.c **** static int32_t s_timeOffset = (int32_t)TIME_OFFSET_UNCALIBRATED;
  55:BSP/display.c **** static struct {
  56:BSP/display.c ****     BSP_RTC_DateTime_t dt;      /* 编辑中的时间副本 */
  57:BSP/display.c ****     uint8_t cursor;             /* 光标位置 0=年 1=月 2=日 3=时 4=分 5=秒 */
  58:BSP/display.c ****     uint32_t enterTick;         /* 进入时间 */
  59:BSP/display.c **** } s_timeSet;
  60:BSP/display.c **** 
  61:BSP/display.c **** /** 管理员设置内部状态 */
  62:BSP/display.c **** static struct {
  63:BSP/display.c ****     uint8_t cursor;             /* 0=设备ID 1=考勤模式 */
  64:BSP/display.c ****     uint32_t enterTick;         /* 进入时间 */
  65:BSP/display.c ****     DispAdminCfg_t backup;      /* 进入时的配置副本, 取消时恢复 */
  66:BSP/display.c **** } s_adminSet;
  67:BSP/display.c **** 
  68:BSP/display.c **** /* (CRC16_Calc 已迁移至 record.c) */
  69:BSP/display.c **** 
  70:BSP/display.c **** /* ====== RTC 时间戳工具 ====== */
  71:BSP/display.c **** 
  72:BSP/display.c **** /** 每月天数 (非闰年) */
  73:BSP/display.c **** static const uint8_t s_daysInMonth[12] = {31, 28, 31, 30, 31, 30, 31, 31, 30, 31, 30, 31};
  74:BSP/display.c **** 
  75:BSP/display.c **** /**
  76:BSP/display.c ****  * @brief  将 BSP_RTC_DateTime_t 转为距 2024-01-01 00:00:00 的秒数
  77:BSP/display.c ****  * @note   支持跨天时长计算, uint32_t 可覆盖 ~136 年
  78:BSP/display.c ****  */
  79:BSP/display.c **** uint32_t DISP_DateTimeToSeconds(const BSP_RTC_DateTime_t *dt)
  80:BSP/display.c **** {
  81:BSP/display.c ****     uint32_t days = 0;
  82:BSP/display.c ****     uint16_t y;
  83:BSP/display.c **** 
  84:BSP/display.c ****     /* 累加整年天数 */
  85:BSP/display.c ****     for (y = 2024; y < dt->year; y++) {
  86:BSP/display.c ****         days += BSP_RTC_IsLeapYear(y) ? 366U : 365U;
  87:BSP/display.c ****     }
ARM GAS  C:\Users\24120\AppData\Local\Temp\cciaFKJB.s 			page 3


  88:BSP/display.c **** 
  89:BSP/display.c ****     /* 累加当年整月天数 */
  90:BSP/display.c ****     for (uint8_t m = 1; m < dt->month; m++) {
  91:BSP/display.c ****         days += s_daysInMonth[m - 1];
  92:BSP/display.c ****         if (m == 2 && BSP_RTC_IsLeapYear(dt->year)) days++;
  93:BSP/display.c ****     }
  94:BSP/display.c **** 
  95:BSP/display.c ****     /* 累加当月天数 */
  96:BSP/display.c ****     days += (uint32_t)(dt->day - 1);
  97:BSP/display.c **** 
  98:BSP/display.c ****     return days * 86400U + (uint32_t)dt->hour * 3600U
  99:BSP/display.c ****                          + (uint32_t)dt->minute * 60U
 100:BSP/display.c ****                          + (uint32_t)dt->second;
 101:BSP/display.c **** }
 102:BSP/display.c **** 
 103:BSP/display.c **** /* (Cache_*, Config_*, Record_* 已迁移至 record.c) */
 104:BSP/display.c **** 
 105:BSP/display.c **** const DispAdminCfg_t *DISP_GetAdminCfg(void) { return &s_adminCfg; }
 106:BSP/display.c **** 
 107:BSP/display.c **** /** GUI 任务句柄 (由 freertos.c 在初始化时设置) */
 108:BSP/display.c **** extern osThreadId_t guiTaskHandle;
 109:BSP/display.c **** 
 110:BSP/display.c **** /* ====== 内部辅助: 绘制 LOGO & 信息页 ====== */
 111:BSP/display.c **** 
 112:BSP/display.c **** static void drawLogo(void);
 113:BSP/display.c **** static void drawInfoPage(void);
 114:BSP/display.c **** 
 115:BSP/display.c **** static void drawLogo(void)
 116:BSP/display.c **** {
 117:BSP/display.c ****     GUI_SetColor(GUI_COLOR_WHITE);
 118:BSP/display.c ****     GUI_Clear();
 119:BSP/display.c ****     GUI_DrawBitmap((GUI_BITMAP *)&bmHDU, 32, 0);
 120:BSP/display.c **** }
 121:BSP/display.c **** 
 122:BSP/display.c **** void DISP_ShowLogo(void)
 123:BSP/display.c **** {
 124:BSP/display.c ****     drawLogo();
 125:BSP/display.c ****     GUI_Update();
 126:BSP/display.c ****     osDelay(2000);
 127:BSP/display.c **** }
 128:BSP/display.c **** 
 129:BSP/display.c **** void DISP_ShowInfoPage(void)
 130:BSP/display.c **** {
 131:BSP/display.c ****     drawInfoPage();
 132:BSP/display.c ****     GUI_Update();
 133:BSP/display.c ****     osDelay(2000);
 134:BSP/display.c **** }
 135:BSP/display.c **** 
 136:BSP/display.c **** /* ====== 内部辅助: 绘制信息页 ====== */
 137:BSP/display.c **** 
 138:BSP/display.c **** static void drawInfoPage(void)
 139:BSP/display.c **** {
 140:BSP/display.c ****     GUI_Clear();
 141:BSP/display.c ****     GUI_SetFont((GUI_FONT *)&GUI_FontHZ_SimSun_16);
 142:BSP/display.c **** 
 143:BSP/display.c ****     GUI_DispStringHCenterAt(
 144:BSP/display.c ****         "2026\xe7\xbb\xbc\xe5\x90\x88\xe8\xae\xbe\xe8\xae\xa1\xe4\xba\x8c", 64, 0);
ARM GAS  C:\Users\24120\AppData\Local\Temp\cciaFKJB.s 			page 4


 145:BSP/display.c ****     GUI_DispStringHCenterAt(
 146:BSP/display.c ****         "NFC\xe8\x80\x83\xe5\x8b\xa4\xe7\xb3\xbb\xe7\xbb\x9f", 64, 16);
 147:BSP/display.c ****     GUI_DispStringHCenterAt(
 148:BSP/display.c ****         "23041036\xe6\x9d\x9c\xe6\x98\xb1\xe8\xbe\xb0", 64, 32);
 149:BSP/display.c ****     GUI_DispStringHCenterAt(
 150:BSP/display.c ****         "23041035\xe5\xbc\xa0\xe7\x83\xa8", 64, 48);
 151:BSP/display.c **** }
 152:BSP/display.c **** 
 153:BSP/display.c **** 
 154:BSP/display.c **** /* ====== 公开 API: 初始化 & 状态管理 ====== */
 155:BSP/display.c **** 
 156:BSP/display.c **** /* ====== OLED 防卡顿看门狗 ====== */
 157:BSP/display.c **** 
 158:BSP/display.c **** /** 超过此时间(ms)无刷新视为卡顿, 触发 OLED 硬件复位 */
 159:BSP/display.c **** #define DISP_STUCK_TIMEOUT_MS  3000
 160:BSP/display.c **** 
 161:BSP/display.c **** /** 最后一次刷新时刻 (FreeRTOS tick) */
 162:BSP/display.c **** static uint32_t s_lastFrameTick = 0;
 163:BSP/display.c **** 
 164:BSP/display.c **** /**
 165:BSP/display.c ****  * @brief  喂狗: 记录当前帧刷新时刻
 166:BSP/display.c ****  * @note   每帧渲染完成后调用 (guiTask 上下文)
 167:BSP/display.c ****  */
 168:BSP/display.c **** void DISP_FeedWatchdog(void)
 169:BSP/display.c **** {
 170:BSP/display.c ****     s_lastFrameTick = osKernelGetTickCount();
 171:BSP/display.c **** }
 172:BSP/display.c **** 
 173:BSP/display.c **** /**
 174:BSP/display.c ****  * @brief  检测 OLED 是否卡顿
 175:BSP/display.c ****  * @return 1=卡顿 (超过 DISP_STUCK_TIMEOUT_MS 未刷新), 0=正常
 176:BSP/display.c ****  */
 177:BSP/display.c **** uint8_t DISP_CheckStuck(void)
 178:BSP/display.c **** {
 179:BSP/display.c ****     if (s_lastFrameTick == 0) return 0;  /* 尚未完成首帧渲染 */
 180:BSP/display.c ****     uint32_t elapsed = osKernelGetTickCount() - s_lastFrameTick;
 181:BSP/display.c ****     return (elapsed >= DISP_STUCK_TIMEOUT_MS) ? 1 : 0;
 182:BSP/display.c **** }
 183:BSP/display.c **** 
 184:BSP/display.c **** /**
 185:BSP/display.c ****  * @brief  重置 OLED: 硬件复位 + 重新初始化芯片和 GUI + 清屏刷新
 186:BSP/display.c ****  * @note   在检测到卡顿后调用, 恢复 OLED 正常显示
 187:BSP/display.c ****  */
 188:BSP/display.c **** void DISP_ResetOLED(void)
 189:BSP/display.c **** {
 190:BSP/display.c ****     SSD1306_init();       /* 重新初始化 OLED 芯片 (含自检+配置) */
 191:BSP/display.c ****     GUI_Init();           /* 重新初始化 GUI 上下文 */
 192:BSP/display.c ****     GUI_Clear();          /* 清空帧缓冲 */
 193:BSP/display.c ****     GUI_SetColor(GUI_COLOR_WHITE);
 194:BSP/display.c ****     GUI_Update();         /* 立即刷新一帧黑屏, 清除可能的花屏 */
 195:BSP/display.c ****     DISP_FeedWatchdog();  /* 重置看门狗时间戳 */
 196:BSP/display.c **** }
 197:BSP/display.c **** 
 198:BSP/display.c **** /* ================================================================ */
 199:BSP/display.c **** 
 200:BSP/display.c **** void DISP_Init(void)
 201:BSP/display.c **** {
ARM GAS  C:\Users\24120\AppData\Local\Temp\cciaFKJB.s 			page 5


 202:BSP/display.c ****     memset(&s_cardInfo, 0, sizeof(s_cardInfo));
 203:BSP/display.c ****     memset(&s_cardBitmap, 0, sizeof(s_cardBitmap));
 204:BSP/display.c ****     s_state = DISP_STATE_CLOCK;
 205:BSP/display.c ****     s_adminCfg.deviceId = 1;
 206:BSP/display.c ****     s_adminCfg.attendMode = 2;  /* 默认出入口模式 */
 207:BSP/display.c ****     s_lastFrameTick = 0;  /* 重置看门狗时间戳 */
 208:BSP/display.c **** }
 209:BSP/display.c **** 
 210:BSP/display.c **** /**
 211:BSP/display.c ****  * @brief  应用 I2C 时钟配置 (覆盖 CubeMX 默认值)
 212:BSP/display.c ****  * @note   在 MX_I2C1_Init() 之后调用, 确保 I2C 频率与 DISP_I2C_TARGET_HZ 一致
 213:BSP/display.c ****  */
 214:BSP/display.c **** void DISP_ApplyI2CConfig(void)
 215:BSP/display.c **** {
 216:BSP/display.c ****     if (hi2c1.Init.ClockSpeed != DISP_I2C_TARGET_HZ) {
 217:BSP/display.c ****         hi2c1.Init.ClockSpeed = DISP_I2C_TARGET_HZ;
 218:BSP/display.c ****         HAL_I2C_DeInit(&hi2c1);
 219:BSP/display.c ****         HAL_I2C_Init(&hi2c1);
 220:BSP/display.c ****     }
 221:BSP/display.c **** }
 222:BSP/display.c **** 
 223:BSP/display.c **** DispState_t DISP_GetState(void)
 224:BSP/display.c **** {
 225:BSP/display.c ****     return s_state;
 226:BSP/display.c **** }
 227:BSP/display.c **** 
 228:BSP/display.c **** void DISP_SetState(DispState_t state)
 229:BSP/display.c **** {
 230:BSP/display.c ****     /* 从管理员设置退出且非 K6 保存 → 恢复旧配置 */
 231:BSP/display.c ****     if (s_state == DISP_STATE_ADMIN_SET && state != DISP_STATE_ADMIN_SET) {
 232:BSP/display.c ****         s_adminCfg = s_adminSet.backup;
 233:BSP/display.c ****     }
 234:BSP/display.c ****     s_state = state;
 235:BSP/display.c ****     /* 进入时间设置时复制当前 RTC 值 */
 236:BSP/display.c ****     if (state == DISP_STATE_TIME_SET) {
 237:BSP/display.c ****         BSP_RTC_GetDateTime(&s_timeSet.dt);
 238:BSP/display.c ****         s_timeSet.cursor = 0;
 239:BSP/display.c ****         s_timeSet.enterTick = osKernelGetTickCount();
 240:BSP/display.c ****     }
 241:BSP/display.c ****     /* 进入管理员设置时记录时间 */
 242:BSP/display.c ****     if (state == DISP_STATE_ADMIN_SET) {
 243:BSP/display.c ****         s_adminSet.cursor = 0;
 244:BSP/display.c ****         s_adminSet.enterTick = osKernelGetTickCount();
 245:BSP/display.c ****         s_adminSet.backup = s_adminCfg;  /* 保存副本, 取消时恢复 */
 246:BSP/display.c ****     }
 247:BSP/display.c **** }
 248:BSP/display.c **** 
 249:BSP/display.c **** void DISP_RunStartup(void)
 250:BSP/display.c **** {
 251:BSP/display.c ****     drawLogo();
 252:BSP/display.c ****     GUI_Update();
 253:BSP/display.c ****     osDelay(2000);  /* LOGO 显示 2s */
 254:BSP/display.c **** 
 255:BSP/display.c ****     drawInfoPage();
 256:BSP/display.c ****     GUI_Update();
 257:BSP/display.c ****     osDelay(1000);
 258:BSP/display.c **** }
ARM GAS  C:\Users\24120\AppData\Local\Temp\cciaFKJB.s 			page 6


 259:BSP/display.c **** 
 260:BSP/display.c **** /**
 261:BSP/display.c ****  * @brief  显示系统初始化进度信息 (OLED 居中单行)
 262:BSP/display.c ****  * @param  msg  中文提示字符串
 263:BSP/display.c ****  */
 264:BSP/display.c **** void DISP_ShowInitMsg(const char *msg)
 265:BSP/display.c **** {
 266:BSP/display.c ****     GUI_Clear();
 267:BSP/display.c ****     GUI_SetColor(GUI_COLOR_WHITE);
 268:BSP/display.c ****     GUI_SetFont((GUI_FONT *)&GUI_FontHZ_SimSun_16);
 269:BSP/display.c ****     GUI_DispStringHCenterAt("System Init", 64, 8);
 270:BSP/display.c ****     GUI_DispStringHCenterAt(msg, 64, 32);
 271:BSP/display.c ****     GUI_Update();
 272:BSP/display.c **** }
 273:BSP/display.c **** 
 274:BSP/display.c **** /* ====== 公开 API: CLOCK 状态 ====== */
 275:BSP/display.c **** 
 276:BSP/display.c **** /**
 277:BSP/display.c ****  * @brief  预计算 UTF-8 字符串中每个字符的字节长度和像素宽度
 278:BSP/display.c ****  * @note   SimSun_16 字体: ASCII→8px, CJK(3B UTF-8)→16px
 279:BSP/display.c ****  */
 280:BSP/display.c **** static void computeCharWidths(const char *str,
 281:BSP/display.c ****                               uint8_t *charByteLen, uint8_t *charPixelW,
 282:BSP/display.c ****                               uint8_t *charCount, uint16_t *totalW,
 283:BSP/display.c ****                               uint8_t maxChars)
 284:BSP/display.c **** {
  29              		.loc 1 284 1 view -0
  30              		.cfi_startproc
  31              		@ args = 8, pretend = 0, frame = 0
  32              		@ frame_needed = 0, uses_anonymous_args = 0
  33              		.loc 1 284 1 is_stmt 0 view .LVU1
  34 0000 70B5     		push	{r4, r5, r6, lr}
  35              	.LCFI0:
  36              		.cfi_def_cfa_offset 16
  37              		.cfi_offset 4, -16
  38              		.cfi_offset 5, -12
  39              		.cfi_offset 6, -8
  40              		.cfi_offset 14, -4
  41 0002 9DF81460 		ldrb	r6, [sp, #20]	@ zero_extendqisi2
 285:BSP/display.c ****     const uint8_t *p = (const uint8_t *)str;
  42              		.loc 1 285 5 is_stmt 1 view .LVU2
  43              	.LVL1:
 286:BSP/display.c ****     uint16_t w = 0;
  44              		.loc 1 286 5 view .LVU3
 287:BSP/display.c ****     uint8_t  n = 0;
  45              		.loc 1 287 5 view .LVU4
 288:BSP/display.c **** 
 289:BSP/display.c ****     while (*p && n < maxChars) {
  46              		.loc 1 289 5 view .LVU5
 287:BSP/display.c ****     uint8_t  n = 0;
  47              		.loc 1 287 14 is_stmt 0 view .LVU6
  48 0006 4FF0000C 		mov	ip, #0
 286:BSP/display.c ****     uint8_t  n = 0;
  49              		.loc 1 286 14 view .LVU7
  50 000a 6546     		mov	r5, ip
  51              		.loc 1 289 11 view .LVU8
  52 000c 20E0     		b	.L2
ARM GAS  C:\Users\24120\AppData\Local\Temp\cciaFKJB.s 			page 7


  53              	.LVL2:
  54              	.L11:
  55              	.LBB2:
 290:BSP/display.c ****         uint8_t blen = 1;
 291:BSP/display.c ****         uint8_t pw   = 8;
 292:BSP/display.c **** 
 293:BSP/display.c ****         if (*p <= 0x7F) {
 294:BSP/display.c ****             blen = 1; pw = 8;
 295:BSP/display.c ****         } else if ((*p & 0xE0) == 0xC0) {
  56              		.loc 1 295 16 is_stmt 1 view .LVU9
  57              		.loc 1 295 19 is_stmt 0 view .LVU10
  58 000e 04F0E00E 		and	lr, r4, #224
  59 0012 BEF1C00F 		cmp	lr, #192
  60 0016 0CD0     		beq	.L7
 296:BSP/display.c ****             blen = 2; pw = 8;
 297:BSP/display.c ****         } else if ((*p & 0xF0) == 0xE0) {
  61              		.loc 1 297 16 is_stmt 1 view .LVU11
  62              		.loc 1 297 19 is_stmt 0 view .LVU12
  63 0018 04F0F00E 		and	lr, r4, #240
  64 001c BEF1E00F 		cmp	lr, #224
  65 0020 21D0     		beq	.L8
 298:BSP/display.c ****             blen = 3; pw = 16;
 299:BSP/display.c ****         } else if ((*p & 0xF8) == 0xF0) {
  66              		.loc 1 299 16 is_stmt 1 view .LVU13
  67              		.loc 1 299 19 is_stmt 0 view .LVU14
  68 0022 04F0F804 		and	r4, r4, #248
  69 0026 F02C     		cmp	r4, #240
  70 0028 21D0     		beq	.L9
 291:BSP/display.c **** 
  71              		.loc 1 291 17 view .LVU15
  72 002a 4FF0080E 		mov	lr, #8
 290:BSP/display.c ****         uint8_t pw   = 8;
  73              		.loc 1 290 17 view .LVU16
  74 002e 0124     		movs	r4, #1
  75 0030 02E0     		b	.L3
  76              	.L7:
 296:BSP/display.c ****         } else if ((*p & 0xF0) == 0xE0) {
  77              		.loc 1 296 26 view .LVU17
  78 0032 4FF0080E 		mov	lr, #8
 296:BSP/display.c ****         } else if ((*p & 0xF0) == 0xE0) {
  79              		.loc 1 296 18 view .LVU18
  80 0036 0224     		movs	r4, #2
  81              	.L3:
  82              	.LVL3:
 300:BSP/display.c ****             blen = 4; pw = 16;
 301:BSP/display.c ****         }
 302:BSP/display.c **** 
 303:BSP/display.c ****         charByteLen[n] = blen;
  83              		.loc 1 303 9 is_stmt 1 view .LVU19
  84              		.loc 1 303 24 is_stmt 0 view .LVU20
  85 0038 01F80C40 		strb	r4, [r1, ip]
 304:BSP/display.c ****         charPixelW[n]  = pw;
  86              		.loc 1 304 9 is_stmt 1 view .LVU21
  87              		.loc 1 304 24 is_stmt 0 view .LVU22
  88 003c 02F80CE0 		strb	lr, [r2, ip]
 305:BSP/display.c ****         w += pw;
  89              		.loc 1 305 9 is_stmt 1 view .LVU23
ARM GAS  C:\Users\24120\AppData\Local\Temp\cciaFKJB.s 			page 8


  90              		.loc 1 305 11 is_stmt 0 view .LVU24
  91 0040 AE44     		add	lr, lr, r5
  92              	.LVL4:
  93              		.loc 1 305 11 view .LVU25
  94 0042 1FFA8EF5 		uxth	r5, lr
  95              	.LVL5:
 306:BSP/display.c ****         n++;
  96              		.loc 1 306 9 is_stmt 1 view .LVU26
  97              		.loc 1 306 10 is_stmt 0 view .LVU27
  98 0046 0CF1010C 		add	ip, ip, #1
  99              	.LVL6:
 100              		.loc 1 306 10 view .LVU28
 101 004a 5FFA8CFC 		uxtb	ip, ip
 102              	.LVL7:
 307:BSP/display.c ****         p += blen;
 103              		.loc 1 307 9 is_stmt 1 view .LVU29
 104              		.loc 1 307 11 is_stmt 0 view .LVU30
 105 004e 2044     		add	r0, r0, r4
 106              	.LVL8:
 107              	.L2:
 108              		.loc 1 307 11 view .LVU31
 109              	.LBE2:
 289:BSP/display.c ****         uint8_t blen = 1;
 110              		.loc 1 289 15 is_stmt 1 view .LVU32
 289:BSP/display.c ****         uint8_t blen = 1;
 111              		.loc 1 289 12 is_stmt 0 view .LVU33
 112 0050 0478     		ldrb	r4, [r0]	@ zero_extendqisi2
 289:BSP/display.c ****         uint8_t blen = 1;
 113              		.loc 1 289 15 view .LVU34
 114 0052 84B1     		cbz	r4, .L4
 289:BSP/display.c ****         uint8_t blen = 1;
 115              		.loc 1 289 15 discriminator 1 view .LVU35
 116 0054 B445     		cmp	ip, r6
 117 0056 0ED2     		bcs	.L4
 118              	.LBB3:
 290:BSP/display.c ****         uint8_t pw   = 8;
 119              		.loc 1 290 9 is_stmt 1 view .LVU36
 120              	.LVL9:
 291:BSP/display.c **** 
 121              		.loc 1 291 9 view .LVU37
 293:BSP/display.c ****             blen = 1; pw = 8;
 122              		.loc 1 293 9 view .LVU38
 293:BSP/display.c ****             blen = 1; pw = 8;
 123              		.loc 1 293 12 is_stmt 0 view .LVU39
 124 0058 14F0800F 		tst	r4, #128
 125 005c D7D1     		bne	.L11
 294:BSP/display.c ****         } else if ((*p & 0xE0) == 0xC0) {
 126              		.loc 1 294 26 view .LVU40
 127 005e 4FF0080E 		mov	lr, #8
 294:BSP/display.c ****         } else if ((*p & 0xE0) == 0xC0) {
 128              		.loc 1 294 18 view .LVU41
 129 0062 0124     		movs	r4, #1
 130 0064 E8E7     		b	.L3
 131              	.L8:
 298:BSP/display.c ****         } else if ((*p & 0xF8) == 0xF0) {
 132              		.loc 1 298 26 view .LVU42
 133 0066 4FF0100E 		mov	lr, #16
ARM GAS  C:\Users\24120\AppData\Local\Temp\cciaFKJB.s 			page 9


 298:BSP/display.c ****         } else if ((*p & 0xF8) == 0xF0) {
 134              		.loc 1 298 18 view .LVU43
 135 006a 0324     		movs	r4, #3
 136 006c E4E7     		b	.L3
 137              	.L9:
 300:BSP/display.c ****         }
 138              		.loc 1 300 26 view .LVU44
 139 006e 4FF0100E 		mov	lr, #16
 300:BSP/display.c ****         }
 140              		.loc 1 300 18 view .LVU45
 141 0072 0424     		movs	r4, #4
 142 0074 E0E7     		b	.L3
 143              	.LVL10:
 144              	.L4:
 300:BSP/display.c ****         }
 145              		.loc 1 300 18 view .LVU46
 146              	.LBE3:
 308:BSP/display.c ****     }
 309:BSP/display.c **** 
 310:BSP/display.c ****     *charCount = n;
 147              		.loc 1 310 5 is_stmt 1 view .LVU47
 148              		.loc 1 310 16 is_stmt 0 view .LVU48
 149 0076 83F800C0 		strb	ip, [r3]
 311:BSP/display.c ****     *totalW    = w;
 150              		.loc 1 311 5 is_stmt 1 view .LVU49
 151              		.loc 1 311 16 is_stmt 0 view .LVU50
 152 007a 049B     		ldr	r3, [sp, #16]
 153              	.LVL11:
 154              		.loc 1 311 16 view .LVU51
 155 007c 1D80     		strh	r5, [r3]	@ movhi
 312:BSP/display.c **** }
 156              		.loc 1 312 1 view .LVU52
 157 007e 70BD     		pop	{r4, r5, r6, pc}
 158              		.loc 1 312 1 view .LVU53
 159              		.cfi_endproc
 160              	.LFE261:
 162              		.section	.text.drawLogo,"ax",%progbits
 163              		.align	1
 164              		.syntax unified
 165              		.thumb
 166              		.thumb_func
 168              	drawLogo:
 169              	.LFB248:
 116:BSP/display.c ****     GUI_SetColor(GUI_COLOR_WHITE);
 170              		.loc 1 116 1 is_stmt 1 view -0
 171              		.cfi_startproc
 172              		@ args = 0, pretend = 0, frame = 0
 173              		@ frame_needed = 0, uses_anonymous_args = 0
 174 0000 08B5     		push	{r3, lr}
 175              	.LCFI1:
 176              		.cfi_def_cfa_offset 8
 177              		.cfi_offset 3, -8
 178              		.cfi_offset 14, -4
 117:BSP/display.c ****     GUI_Clear();
 179              		.loc 1 117 5 view .LVU55
 180 0002 0120     		movs	r0, #1
 181 0004 FFF7FEFF 		bl	GUI_SetColor
ARM GAS  C:\Users\24120\AppData\Local\Temp\cciaFKJB.s 			page 10


 182              	.LVL12:
 118:BSP/display.c ****     GUI_DrawBitmap((GUI_BITMAP *)&bmHDU, 32, 0);
 183              		.loc 1 118 5 view .LVU56
 184 0008 FFF7FEFF 		bl	GUI_Clear
 185              	.LVL13:
 119:BSP/display.c **** }
 186              		.loc 1 119 5 view .LVU57
 187 000c 0022     		movs	r2, #0
 188 000e 2021     		movs	r1, #32
 189 0010 0148     		ldr	r0, .L14
 190 0012 FFF7FEFF 		bl	GUI_DrawBitmap
 191              	.LVL14:
 120:BSP/display.c **** 
 192              		.loc 1 120 1 is_stmt 0 view .LVU58
 193 0016 08BD     		pop	{r3, pc}
 194              	.L15:
 195              		.align	2
 196              	.L14:
 197 0018 00000000 		.word	bmHDU
 198              		.cfi_endproc
 199              	.LFE248:
 201              		.section	.rodata.drawInfoPage.str1.4,"aMS",%progbits,1
 202              		.align	2
 203              	.LC1:
 204 0000 32303236 		.ascii	"2026\347\273\274\345\220\210\350\256\276\350\256\241"
 204      E7BBBCE5 
 204      9088E8AE 
 204      BEE8AEA1 
 205 0010 E4BA8C00 		.ascii	"\344\272\214\000"
 206              		.align	2
 207              	.LC2:
 208 0014 4E4643E8 		.ascii	"NFC\350\200\203\345\213\244\347\263\273\347\273\237"
 208      8083E58B 
 208      A4E7B3BB 
 208      E7BB9F
 209 0023 00       		.ascii	"\000"
 210              		.align	2
 211              	.LC3:
 212 0024 32333034 		.ascii	"23041036\346\235\234\346\230\261\350\276\260\000"
 212      31303336 
 212      E69D9CE6 
 212      98B1E8BE 
 212      B000
 213 0036 0000     		.align	2
 214              	.LC4:
 215 0038 32333034 		.ascii	"23041035\345\274\240\347\203\250\000"
 215      31303335 
 215      E5BCA0E7 
 215      83A800
 216              		.section	.text.drawInfoPage,"ax",%progbits
 217              		.align	1
 218              		.syntax unified
 219              		.thumb
 220              		.thumb_func
 222              	drawInfoPage:
 223              	.LFB251:
 139:BSP/display.c ****     GUI_Clear();
ARM GAS  C:\Users\24120\AppData\Local\Temp\cciaFKJB.s 			page 11


 224              		.loc 1 139 1 is_stmt 1 view -0
 225              		.cfi_startproc
 226              		@ args = 0, pretend = 0, frame = 0
 227              		@ frame_needed = 0, uses_anonymous_args = 0
 228 0000 08B5     		push	{r3, lr}
 229              	.LCFI2:
 230              		.cfi_def_cfa_offset 8
 231              		.cfi_offset 3, -8
 232              		.cfi_offset 14, -4
 140:BSP/display.c ****     GUI_SetFont((GUI_FONT *)&GUI_FontHZ_SimSun_16);
 233              		.loc 1 140 5 view .LVU60
 234 0002 FFF7FEFF 		bl	GUI_Clear
 235              	.LVL15:
 141:BSP/display.c **** 
 236              		.loc 1 141 5 view .LVU61
 237 0006 0C48     		ldr	r0, .L18
 238 0008 FFF7FEFF 		bl	GUI_SetFont
 239              	.LVL16:
 143:BSP/display.c ****         "2026\xe7\xbb\xbc\xe5\x90\x88\xe8\xae\xbe\xe8\xae\xa1\xe4\xba\x8c", 64, 0);
 240              		.loc 1 143 5 view .LVU62
 241 000c 0022     		movs	r2, #0
 242 000e 4021     		movs	r1, #64
 243 0010 0A48     		ldr	r0, .L18+4
 244 0012 FFF7FEFF 		bl	GUI_DispStringHCenterAt
 245              	.LVL17:
 145:BSP/display.c ****         "NFC\xe8\x80\x83\xe5\x8b\xa4\xe7\xb3\xbb\xe7\xbb\x9f", 64, 16);
 246              		.loc 1 145 5 view .LVU63
 247 0016 1022     		movs	r2, #16
 248 0018 4021     		movs	r1, #64
 249 001a 0948     		ldr	r0, .L18+8
 250 001c FFF7FEFF 		bl	GUI_DispStringHCenterAt
 251              	.LVL18:
 147:BSP/display.c ****         "23041036\xe6\x9d\x9c\xe6\x98\xb1\xe8\xbe\xb0", 64, 32);
 252              		.loc 1 147 5 view .LVU64
 253 0020 2022     		movs	r2, #32
 254 0022 4021     		movs	r1, #64
 255 0024 0748     		ldr	r0, .L18+12
 256 0026 FFF7FEFF 		bl	GUI_DispStringHCenterAt
 257              	.LVL19:
 149:BSP/display.c ****         "23041035\xe5\xbc\xa0\xe7\x83\xa8", 64, 48);
 258              		.loc 1 149 5 view .LVU65
 259 002a 3022     		movs	r2, #48
 260 002c 4021     		movs	r1, #64
 261 002e 0648     		ldr	r0, .L18+16
 262 0030 FFF7FEFF 		bl	GUI_DispStringHCenterAt
 263              	.LVL20:
 151:BSP/display.c **** 
 264              		.loc 1 151 1 is_stmt 0 view .LVU66
 265 0034 08BD     		pop	{r3, pc}
 266              	.L19:
 267 0036 00BF     		.align	2
 268              	.L18:
 269 0038 00000000 		.word	GUI_FontHZ_SimSun_16
 270 003c 00000000 		.word	.LC1
 271 0040 14000000 		.word	.LC2
 272 0044 24000000 		.word	.LC3
 273 0048 38000000 		.word	.LC4
ARM GAS  C:\Users\24120\AppData\Local\Temp\cciaFKJB.s 			page 12


 274              		.cfi_endproc
 275              	.LFE251:
 277              		.section	.text.renderScrollLine,"ax",%progbits
 278              		.align	1
 279              		.syntax unified
 280              		.thumb
 281              		.thumb_func
 283              	renderScrollLine:
 284              	.LVL21:
 285              	.LFB262:
 313:BSP/display.c **** 
 314:BSP/display.c **** /** 单行滚动文本拼接 + 渲染 (负 x 平滑滚动) */
 315:BSP/display.c **** static void renderScrollLine(const char *src, int srcLen,
 316:BSP/display.c ****                              const uint8_t *charBL, const uint8_t *charPW,
 317:BSP/display.c ****                              uint8_t charCnt, int totalW,
 318:BSP/display.c ****                              int scrollOff, int yPos)
 319:BSP/display.c **** {
 286              		.loc 1 319 1 is_stmt 1 view -0
 287              		.cfi_startproc
 288              		@ args = 16, pretend = 0, frame = 16
 289              		@ frame_needed = 0, uses_anonymous_args = 0
 290              		.loc 1 319 1 is_stmt 0 view .LVU68
 291 0000 2DE9F04F 		push	{r4, r5, r6, r7, r8, r9, r10, fp, lr}
 292              	.LCFI3:
 293              		.cfi_def_cfa_offset 36
 294              		.cfi_offset 4, -36
 295              		.cfi_offset 5, -32
 296              		.cfi_offset 6, -28
 297              		.cfi_offset 7, -24
 298              		.cfi_offset 8, -20
 299              		.cfi_offset 9, -16
 300              		.cfi_offset 10, -12
 301              		.cfi_offset 11, -8
 302              		.cfi_offset 14, -4
 303 0004 85B0     		sub	sp, sp, #20
 304              	.LCFI4:
 305              		.cfi_def_cfa_offset 56
 306 0006 0290     		str	r0, [sp, #8]
 307 0008 9046     		mov	r8, r2
 308 000a 1E46     		mov	r6, r3
 309 000c 9DF83870 		ldrb	r7, [sp, #56]	@ zero_extendqisi2
 310 0010 1099     		ldr	r1, [sp, #64]
 311              	.LVL22:
 320:BSP/display.c ****     /* 找到 scrollOff 对应的起始字符 */
 321:BSP/display.c ****     int charIdx = 0, byteOff = 0, accumW = 0;
 312              		.loc 1 321 5 is_stmt 1 view .LVU69
 322:BSP/display.c ****     while (charIdx < charCnt &&
 313              		.loc 1 322 5 view .LVU70
 321:BSP/display.c ****     while (charIdx < charCnt &&
 314              		.loc 1 321 35 is_stmt 0 view .LVU71
 315 0012 0022     		movs	r2, #0
 316              	.LVL23:
 321:BSP/display.c ****     while (charIdx < charCnt &&
 317              		.loc 1 321 22 view .LVU72
 318 0014 1546     		mov	r5, r2
 321:BSP/display.c ****     while (charIdx < charCnt &&
 319              		.loc 1 321 9 view .LVU73
ARM GAS  C:\Users\24120\AppData\Local\Temp\cciaFKJB.s 			page 13


 320 0016 1446     		mov	r4, r2
 321              		.loc 1 322 11 view .LVU74
 322 0018 04E0     		b	.L21
 323              	.LVL24:
 324              	.L23:
 323:BSP/display.c ****            accumW + charPW[charIdx] <= scrollOff) {
 324:BSP/display.c ****         accumW  += charPW[charIdx];
 325              		.loc 1 324 9 is_stmt 1 view .LVU75
 325:BSP/display.c ****         byteOff += charBL[charIdx];
 326              		.loc 1 325 9 view .LVU76
 327              		.loc 1 325 26 is_stmt 0 view .LVU77
 328 001a 18F80420 		ldrb	r2, [r8, r4]	@ zero_extendqisi2
 329              		.loc 1 325 17 view .LVU78
 330 001e 1544     		add	r5, r5, r2
 331              	.LVL25:
 326:BSP/display.c ****         charIdx++;
 332              		.loc 1 326 9 is_stmt 1 view .LVU79
 333              		.loc 1 326 16 is_stmt 0 view .LVU80
 334 0020 0134     		adds	r4, r4, #1
 335              	.LVL26:
 324:BSP/display.c ****         byteOff += charBL[charIdx];
 336              		.loc 1 324 17 view .LVU81
 337 0022 1A46     		mov	r2, r3
 338              	.LVL27:
 339              	.L21:
 322:BSP/display.c ****            accumW + charPW[charIdx] <= scrollOff) {
 340              		.loc 1 322 30 is_stmt 1 view .LVU82
 341 0024 A742     		cmp	r7, r4
 342 0026 03DD     		ble	.L22
 323:BSP/display.c ****         accumW  += charPW[charIdx];
 343              		.loc 1 323 27 is_stmt 0 view .LVU83
 344 0028 335D     		ldrb	r3, [r6, r4]	@ zero_extendqisi2
 323:BSP/display.c ****         accumW  += charPW[charIdx];
 345              		.loc 1 323 19 view .LVU84
 346 002a 1344     		add	r3, r3, r2
 322:BSP/display.c ****            accumW + charPW[charIdx] <= scrollOff) {
 347              		.loc 1 322 30 discriminator 1 view .LVU85
 348 002c 8B42     		cmp	r3, r1
 349 002e F4DD     		ble	.L23
 350              	.L22:
 327:BSP/display.c ****     }
 328:BSP/display.c ****     int subOff = scrollOff - accumW;
 351              		.loc 1 328 5 is_stmt 1 view .LVU86
 352              	.LVL28:
 329:BSP/display.c ****     if (subOff < 0) subOff = 0;
 353              		.loc 1 329 5 view .LVU87
 354              		.loc 1 329 8 is_stmt 0 view .LVU88
 355 0030 B1EB020A 		subs	r10, r1, r2
 356              	.LVL29:
 357              		.loc 1 329 8 view .LVU89
 358 0034 07D4     		bmi	.L32
 359              	.LVL30:
 360              	.L24:
 330:BSP/display.c **** 
 331:BSP/display.c ****     /* 拼接显示缓冲 */
 332:BSP/display.c ****     static char dispBuf[200];
 361              		.loc 1 332 5 is_stmt 1 view .LVU90
ARM GAS  C:\Users\24120\AppData\Local\Temp\cciaFKJB.s 			page 14


 333:BSP/display.c ****     int  bufPos    = 0;
 362              		.loc 1 333 5 view .LVU91
 334:BSP/display.c ****     int  curChar   = charIdx;
 363              		.loc 1 334 5 view .LVU92
 335:BSP/display.c ****     int  curByte   = byteOff;
 364              		.loc 1 335 5 view .LVU93
 336:BSP/display.c ****     int  renderedW = 0;
 365              		.loc 1 336 5 view .LVU94
 337:BSP/display.c ****     int  needW     = 128 + subOff;
 366              		.loc 1 337 5 view .LVU95
 367              		.loc 1 337 10 is_stmt 0 view .LVU96
 368 0036 0AF1800B 		add	fp, r10, #128
 369              	.LVL31:
 338:BSP/display.c **** 
 339:BSP/display.c ****     while (renderedW < needW && bufPos < (int)sizeof(dispBuf) - 4) {
 370              		.loc 1 339 5 is_stmt 1 view .LVU97
 336:BSP/display.c ****     int  needW     = 128 + subOff;
 371              		.loc 1 336 10 is_stmt 0 view .LVU98
 372 003a 4FF00009 		mov	r9, #0
 333:BSP/display.c ****     int  curChar   = charIdx;
 373              		.loc 1 333 10 view .LVU99
 374 003e 4B46     		mov	r3, r9
 375 0040 CDF80CA0 		str	r10, [sp, #12]
 376              		.loc 1 339 11 view .LVU100
 377 0044 18E0     		b	.L25
 378              	.LVL32:
 379              	.L32:
 329:BSP/display.c **** 
 380              		.loc 1 329 28 discriminator 1 view .LVU101
 381 0046 4FF0000A 		mov	r10, #0
 382              	.LVL33:
 329:BSP/display.c **** 
 383              		.loc 1 329 28 discriminator 1 view .LVU102
 384 004a F4E7     		b	.L24
 385              	.LVL34:
 386              	.L33:
 387              	.LBB4:
 340:BSP/display.c ****         if (curChar >= charCnt) {
 341:BSP/display.c ****             /* 循环: 2 空格间隔 */
 342:BSP/display.c ****             dispBuf[bufPos++] = ' '; dispBuf[bufPos++] = ' ';
 343:BSP/display.c ****             renderedW += 16;
 344:BSP/display.c ****             curChar = 0; curByte = 0;
 388              		.loc 1 344 34 view .LVU103
 389 004c 0025     		movs	r5, #0
 390              		.loc 1 344 21 view .LVU104
 391 004e 2C46     		mov	r4, r5
 392 0050 12E0     		b	.L25
 393              	.LVL35:
 394              	.L26:
 345:BSP/display.c ****             if (renderedW >= needW) break;
 346:BSP/display.c ****             continue;
 347:BSP/display.c ****         }
 348:BSP/display.c ****         uint8_t blen = charBL[curChar];
 395              		.loc 1 348 9 is_stmt 1 view .LVU105
 396              		.loc 1 348 17 is_stmt 0 view .LVU106
 397 0052 18F804A0 		ldrb	r10, [r8, r4]	@ zero_extendqisi2
 398              	.LVL36:
ARM GAS  C:\Users\24120\AppData\Local\Temp\cciaFKJB.s 			page 15


 349:BSP/display.c ****         if (bufPos + blen >= (int)sizeof(dispBuf) - 1) break;
 399              		.loc 1 349 9 is_stmt 1 view .LVU107
 400              		.loc 1 349 20 is_stmt 0 view .LVU108
 401 0056 0AEB0302 		add	r2, r10, r3
 402              		.loc 1 349 12 view .LVU109
 403 005a 0192     		str	r2, [sp, #4]
 404 005c C62A     		cmp	r2, #198
 405 005e 1BDC     		bgt	.L27
 350:BSP/display.c ****         memcpy(dispBuf + bufPos, src + curByte, blen);
 406              		.loc 1 350 9 is_stmt 1 view .LVU110
 407 0060 5246     		mov	r2, r10
 408 0062 0299     		ldr	r1, [sp, #8]
 409 0064 2944     		add	r1, r1, r5
 410 0066 1348     		ldr	r0, .L34
 411 0068 1844     		add	r0, r0, r3
 412 006a FFF7FEFF 		bl	memcpy
 413              	.LVL37:
 351:BSP/display.c ****         bufPos    += blen;
 414              		.loc 1 351 9 view .LVU111
 352:BSP/display.c ****         renderedW += charPW[curChar];
 415              		.loc 1 352 9 view .LVU112
 416              		.loc 1 352 28 is_stmt 0 view .LVU113
 417 006e 335D     		ldrb	r3, [r6, r4]	@ zero_extendqisi2
 418              		.loc 1 352 19 view .LVU114
 419 0070 9944     		add	r9, r9, r3
 420              	.LVL38:
 353:BSP/display.c ****         curByte   += blen;
 421              		.loc 1 353 9 is_stmt 1 view .LVU115
 422              		.loc 1 353 19 is_stmt 0 view .LVU116
 423 0072 5544     		add	r5, r5, r10
 424              	.LVL39:
 354:BSP/display.c ****         curChar++;
 425              		.loc 1 354 9 is_stmt 1 view .LVU117
 426              		.loc 1 354 16 is_stmt 0 view .LVU118
 427 0074 0134     		adds	r4, r4, #1
 428              	.LVL40:
 351:BSP/display.c ****         renderedW += charPW[curChar];
 429              		.loc 1 351 19 view .LVU119
 430 0076 019B     		ldr	r3, [sp, #4]
 431              	.LVL41:
 432              	.L25:
 351:BSP/display.c ****         renderedW += charPW[curChar];
 433              		.loc 1 351 19 view .LVU120
 434              	.LBE4:
 339:BSP/display.c ****         if (curChar >= charCnt) {
 435              		.loc 1 339 30 is_stmt 1 view .LVU121
 436 0078 D945     		cmp	r9, fp
 437 007a 0DDA     		bge	.L27
 339:BSP/display.c ****         if (curChar >= charCnt) {
 438              		.loc 1 339 30 is_stmt 0 discriminator 1 view .LVU122
 439 007c C32B     		cmp	r3, #195
 440 007e 0BDC     		bgt	.L27
 441              	.LBB5:
 340:BSP/display.c ****             /* 循环: 2 空格间隔 */
 442              		.loc 1 340 9 is_stmt 1 view .LVU123
 340:BSP/display.c ****             /* 循环: 2 空格间隔 */
 443              		.loc 1 340 12 is_stmt 0 view .LVU124
ARM GAS  C:\Users\24120\AppData\Local\Temp\cciaFKJB.s 			page 16


 444 0080 A742     		cmp	r7, r4
 445 0082 E6DC     		bgt	.L26
 342:BSP/display.c ****             renderedW += 16;
 446              		.loc 1 342 13 is_stmt 1 view .LVU125
 342:BSP/display.c ****             renderedW += 16;
 447              		.loc 1 342 27 is_stmt 0 view .LVU126
 448 0084 5A1C     		adds	r2, r3, #1
 449              	.LVL42:
 342:BSP/display.c ****             renderedW += 16;
 450              		.loc 1 342 31 view .LVU127
 451 0086 0B49     		ldr	r1, .L34
 452 0088 2020     		movs	r0, #32
 453 008a C854     		strb	r0, [r1, r3]
 342:BSP/display.c ****             renderedW += 16;
 454              		.loc 1 342 38 is_stmt 1 view .LVU128
 455              	.LVL43:
 342:BSP/display.c ****             renderedW += 16;
 456              		.loc 1 342 56 is_stmt 0 view .LVU129
 457 008c 8854     		strb	r0, [r1, r2]
 458 008e 0233     		adds	r3, r3, #2
 459              	.LVL44:
 343:BSP/display.c ****             curChar = 0; curByte = 0;
 460              		.loc 1 343 13 is_stmt 1 view .LVU130
 343:BSP/display.c ****             curChar = 0; curByte = 0;
 461              		.loc 1 343 23 is_stmt 0 view .LVU131
 462 0090 09F11009 		add	r9, r9, #16
 463              	.LVL45:
 344:BSP/display.c ****             if (renderedW >= needW) break;
 464              		.loc 1 344 13 is_stmt 1 view .LVU132
 344:BSP/display.c ****             if (renderedW >= needW) break;
 465              		.loc 1 344 26 view .LVU133
 345:BSP/display.c ****             continue;
 466              		.loc 1 345 13 view .LVU134
 345:BSP/display.c ****             continue;
 467              		.loc 1 345 16 is_stmt 0 view .LVU135
 468 0094 CB45     		cmp	fp, r9
 469 0096 D9DC     		bgt	.L33
 470              	.LVL46:
 471              	.L27:
 345:BSP/display.c ****             continue;
 472              		.loc 1 345 16 view .LVU136
 473              	.LBE5:
 355:BSP/display.c ****     }
 356:BSP/display.c ****     dispBuf[bufPos] = '\0';
 474              		.loc 1 356 21 view .LVU137
 475 0098 DDF80CA0 		ldr	r10, [sp, #12]
 476              	.LVL47:
 477              		.loc 1 356 5 is_stmt 1 view .LVU138
 478              		.loc 1 356 21 is_stmt 0 view .LVU139
 479 009c 0548     		ldr	r0, .L34
 480 009e 0022     		movs	r2, #0
 481 00a0 C254     		strb	r2, [r0, r3]
 357:BSP/display.c ****     GUI_DispStringAt(dispBuf, -subOff, yPos);
 482              		.loc 1 357 5 is_stmt 1 view .LVU140
 483 00a2 119A     		ldr	r2, [sp, #68]
 484 00a4 CAF10001 		rsb	r1, r10, #0
 485 00a8 FFF7FEFF 		bl	GUI_DispStringAt
ARM GAS  C:\Users\24120\AppData\Local\Temp\cciaFKJB.s 			page 17


 486              	.LVL48:
 358:BSP/display.c **** }
 487              		.loc 1 358 1 is_stmt 0 view .LVU141
 488 00ac 05B0     		add	sp, sp, #20
 489              	.LCFI5:
 490              		.cfi_def_cfa_offset 36
 491              		@ sp needed
 492 00ae BDE8F08F 		pop	{r4, r5, r6, r7, r8, r9, r10, fp, pc}
 493              	.LVL49:
 494              	.L35:
 495              		.loc 1 358 1 view .LVU142
 496 00b2 00BF     		.align	2
 497              	.L34:
 498 00b4 00000000 		.word	dispBuf.0
 499              		.cfi_endproc
 500              	.LFE262:
 502              		.section	.text.DISP_DateTimeToSeconds,"ax",%progbits
 503              		.align	1
 504              		.global	DISP_DateTimeToSeconds
 505              		.syntax unified
 506              		.thumb
 507              		.thumb_func
 509              	DISP_DateTimeToSeconds:
 510              	.LVL50:
 511              	.LFB246:
  80:BSP/display.c ****     uint32_t days = 0;
 512              		.loc 1 80 1 is_stmt 1 view -0
 513              		.cfi_startproc
 514              		@ args = 0, pretend = 0, frame = 0
 515              		@ frame_needed = 0, uses_anonymous_args = 0
  80:BSP/display.c ****     uint32_t days = 0;
 516              		.loc 1 80 1 is_stmt 0 view .LVU144
 517 0000 70B5     		push	{r4, r5, r6, lr}
 518              	.LCFI6:
 519              		.cfi_def_cfa_offset 16
 520              		.cfi_offset 4, -16
 521              		.cfi_offset 5, -12
 522              		.cfi_offset 6, -8
 523              		.cfi_offset 14, -4
 524 0002 0646     		mov	r6, r0
  81:BSP/display.c ****     uint16_t y;
 525              		.loc 1 81 5 is_stmt 1 view .LVU145
 526              	.LVL51:
  82:BSP/display.c **** 
 527              		.loc 1 82 5 view .LVU146
  85:BSP/display.c ****         days += BSP_RTC_IsLeapYear(y) ? 366U : 365U;
 528              		.loc 1 85 5 view .LVU147
  85:BSP/display.c ****         days += BSP_RTC_IsLeapYear(y) ? 366U : 365U;
 529              		.loc 1 85 12 is_stmt 0 view .LVU148
 530 0004 4FF4FD64 		mov	r4, #2024
  81:BSP/display.c ****     uint16_t y;
 531              		.loc 1 81 14 view .LVU149
 532 0008 0025     		movs	r5, #0
  85:BSP/display.c ****         days += BSP_RTC_IsLeapYear(y) ? 366U : 365U;
 533              		.loc 1 85 5 view .LVU150
 534 000a 04E0     		b	.L37
 535              	.LVL52:
ARM GAS  C:\Users\24120\AppData\Local\Temp\cciaFKJB.s 			page 18


 536              	.L43:
  86:BSP/display.c ****     }
 537              		.loc 1 86 46 discriminator 2 view .LVU151
 538 000c 40F26D13 		movw	r3, #365
 539              	.L38:
  86:BSP/display.c ****     }
 540              		.loc 1 86 14 discriminator 4 view .LVU152
 541 0010 1D44     		add	r5, r5, r3
 542              	.LVL53:
  85:BSP/display.c ****         days += BSP_RTC_IsLeapYear(y) ? 366U : 365U;
 543              		.loc 1 85 35 is_stmt 1 discriminator 2 view .LVU153
 544 0012 0134     		adds	r4, r4, #1
 545              	.LVL54:
  85:BSP/display.c ****         days += BSP_RTC_IsLeapYear(y) ? 366U : 365U;
 546              		.loc 1 85 35 is_stmt 0 discriminator 2 view .LVU154
 547 0014 A4B2     		uxth	r4, r4
 548              	.LVL55:
 549              	.L37:
  85:BSP/display.c ****         days += BSP_RTC_IsLeapYear(y) ? 366U : 365U;
 550              		.loc 1 85 22 is_stmt 1 discriminator 1 view .LVU155
  85:BSP/display.c ****         days += BSP_RTC_IsLeapYear(y) ? 366U : 365U;
 551              		.loc 1 85 26 is_stmt 0 discriminator 1 view .LVU156
 552 0016 3388     		ldrh	r3, [r6]
  85:BSP/display.c ****         days += BSP_RTC_IsLeapYear(y) ? 366U : 365U;
 553              		.loc 1 85 22 discriminator 1 view .LVU157
 554 0018 A342     		cmp	r3, r4
 555 001a 07D9     		bls	.L45
  86:BSP/display.c ****     }
 556              		.loc 1 86 9 is_stmt 1 view .LVU158
  86:BSP/display.c ****     }
 557              		.loc 1 86 17 is_stmt 0 view .LVU159
 558 001c 2046     		mov	r0, r4
 559 001e FFF7FEFF 		bl	BSP_RTC_IsLeapYear
 560              	.LVL56:
  86:BSP/display.c ****     }
 561              		.loc 1 86 46 discriminator 1 view .LVU160
 562 0022 0028     		cmp	r0, #0
 563 0024 F2D0     		beq	.L43
 564 0026 4FF4B773 		mov	r3, #366
 565 002a F1E7     		b	.L38
 566              	.L45:
 567              	.LBB6:
  90:BSP/display.c ****         days += s_daysInMonth[m - 1];
 568              		.loc 1 90 18 view .LVU161
 569 002c 0124     		movs	r4, #1
 570              	.LVL57:
  90:BSP/display.c ****         days += s_daysInMonth[m - 1];
 571              		.loc 1 90 18 view .LVU162
 572 002e 01E0     		b	.L40
 573              	.LVL58:
 574              	.L41:
  90:BSP/display.c ****         days += s_daysInMonth[m - 1];
 575              		.loc 1 90 41 is_stmt 1 discriminator 2 view .LVU163
 576 0030 0134     		adds	r4, r4, #1
 577              	.LVL59:
  90:BSP/display.c ****         days += s_daysInMonth[m - 1];
 578              		.loc 1 90 41 is_stmt 0 discriminator 2 view .LVU164
ARM GAS  C:\Users\24120\AppData\Local\Temp\cciaFKJB.s 			page 19


 579 0032 E4B2     		uxtb	r4, r4
 580              	.LVL60:
 581              	.L40:
  90:BSP/display.c ****         days += s_daysInMonth[m - 1];
 582              		.loc 1 90 27 is_stmt 1 discriminator 1 view .LVU165
  90:BSP/display.c ****         days += s_daysInMonth[m - 1];
 583              		.loc 1 90 31 is_stmt 0 discriminator 1 view .LVU166
 584 0034 B378     		ldrb	r3, [r6, #2]	@ zero_extendqisi2
  90:BSP/display.c ****         days += s_daysInMonth[m - 1];
 585              		.loc 1 90 27 discriminator 1 view .LVU167
 586 0036 A342     		cmp	r3, r4
 587 0038 0CD9     		bls	.L46
  91:BSP/display.c ****         if (m == 2 && BSP_RTC_IsLeapYear(dt->year)) days++;
 588              		.loc 1 91 9 is_stmt 1 view .LVU168
  91:BSP/display.c ****         if (m == 2 && BSP_RTC_IsLeapYear(dt->year)) days++;
 589              		.loc 1 91 33 is_stmt 0 view .LVU169
 590 003a 631E     		subs	r3, r4, #1
  91:BSP/display.c ****         if (m == 2 && BSP_RTC_IsLeapYear(dt->year)) days++;
 591              		.loc 1 91 30 view .LVU170
 592 003c 0F4A     		ldr	r2, .L47
 593 003e D35C     		ldrb	r3, [r2, r3]	@ zero_extendqisi2
  91:BSP/display.c ****         if (m == 2 && BSP_RTC_IsLeapYear(dt->year)) days++;
 594              		.loc 1 91 14 view .LVU171
 595 0040 1D44     		add	r5, r5, r3
 596              	.LVL61:
  92:BSP/display.c ****     }
 597              		.loc 1 92 9 is_stmt 1 view .LVU172
  92:BSP/display.c ****     }
 598              		.loc 1 92 12 is_stmt 0 view .LVU173
 599 0042 022C     		cmp	r4, #2
 600 0044 F4D1     		bne	.L41
  92:BSP/display.c ****     }
 601              		.loc 1 92 23 discriminator 1 view .LVU174
 602 0046 3088     		ldrh	r0, [r6]
 603 0048 FFF7FEFF 		bl	BSP_RTC_IsLeapYear
 604              	.LVL62:
  92:BSP/display.c ****     }
 605              		.loc 1 92 20 discriminator 1 view .LVU175
 606 004c 0028     		cmp	r0, #0
 607 004e EFD0     		beq	.L41
  92:BSP/display.c ****     }
 608              		.loc 1 92 53 is_stmt 1 discriminator 2 view .LVU176
  92:BSP/display.c ****     }
 609              		.loc 1 92 57 is_stmt 0 discriminator 2 view .LVU177
 610 0050 0135     		adds	r5, r5, #1
 611              	.LVL63:
  92:BSP/display.c ****     }
 612              		.loc 1 92 57 discriminator 2 view .LVU178
 613 0052 EDE7     		b	.L41
 614              	.LVL64:
 615              	.L46:
  92:BSP/display.c ****     }
 616              		.loc 1 92 57 discriminator 2 view .LVU179
 617              	.LBE6:
  96:BSP/display.c **** 
 618              		.loc 1 96 5 is_stmt 1 view .LVU180
  96:BSP/display.c **** 
ARM GAS  C:\Users\24120\AppData\Local\Temp\cciaFKJB.s 			page 20


 619              		.loc 1 96 26 is_stmt 0 view .LVU181
 620 0054 F278     		ldrb	r2, [r6, #3]	@ zero_extendqisi2
  96:BSP/display.c **** 
 621              		.loc 1 96 10 view .LVU182
 622 0056 2A44     		add	r2, r2, r5
 623 0058 013A     		subs	r2, r2, #1
 624              	.LVL65:
  98:BSP/display.c ****                          + (uint32_t)dt->minute * 60U
 625              		.loc 1 98 5 is_stmt 1 view .LVU183
  98:BSP/display.c ****                          + (uint32_t)dt->minute * 60U
 626              		.loc 1 98 40 is_stmt 0 view .LVU184
 627 005a 7379     		ldrb	r3, [r6, #5]	@ zero_extendqisi2
  98:BSP/display.c ****                          + (uint32_t)dt->minute * 60U
 628              		.loc 1 98 47 view .LVU185
 629 005c 4FF46161 		mov	r1, #3600
 630 0060 01FB03F3 		mul	r3, r1, r3
  98:BSP/display.c ****                          + (uint32_t)dt->minute * 60U
 631              		.loc 1 98 26 view .LVU186
 632 0064 0649     		ldr	r1, .L47+4
 633 0066 01FB0233 		mla	r3, r1, r2, r3
  99:BSP/display.c ****                          + (uint32_t)dt->second;
 634              		.loc 1 99 40 view .LVU187
 635 006a B279     		ldrb	r2, [r6, #6]	@ zero_extendqisi2
 636              	.LVL66:
  99:BSP/display.c ****                          + (uint32_t)dt->second;
 637              		.loc 1 99 49 view .LVU188
 638 006c C2EB0212 		rsb	r2, r2, r2, lsl #4
  99:BSP/display.c ****                          + (uint32_t)dt->second;
 639              		.loc 1 99 26 view .LVU189
 640 0070 03EB8203 		add	r3, r3, r2, lsl #2
 100:BSP/display.c **** }
 641              		.loc 1 100 40 view .LVU190
 642 0074 F079     		ldrb	r0, [r6, #7]	@ zero_extendqisi2
 101:BSP/display.c **** 
 643              		.loc 1 101 1 view .LVU191
 644 0076 1844     		add	r0, r0, r3
 645 0078 70BD     		pop	{r4, r5, r6, pc}
 646              	.LVL67:
 647              	.L48:
 101:BSP/display.c **** 
 648              		.loc 1 101 1 view .LVU192
 649 007a 00BF     		.align	2
 650              	.L47:
 651 007c 00000000 		.word	s_daysInMonth
 652 0080 80510100 		.word	86400
 653              		.cfi_endproc
 654              	.LFE246:
 656              		.section	.text.DISP_GetAdminCfg,"ax",%progbits
 657              		.align	1
 658              		.global	DISP_GetAdminCfg
 659              		.syntax unified
 660              		.thumb
 661              		.thumb_func
 663              	DISP_GetAdminCfg:
 664              	.LFB247:
 105:BSP/display.c **** 
 665              		.loc 1 105 46 is_stmt 1 view -0
ARM GAS  C:\Users\24120\AppData\Local\Temp\cciaFKJB.s 			page 21


 666              		.cfi_startproc
 667              		@ args = 0, pretend = 0, frame = 0
 668              		@ frame_needed = 0, uses_anonymous_args = 0
 669              		@ link register save eliminated.
 105:BSP/display.c **** 
 670              		.loc 1 105 48 view .LVU194
 105:BSP/display.c **** 
 671              		.loc 1 105 68 is_stmt 0 view .LVU195
 672 0000 0048     		ldr	r0, .L50
 673 0002 7047     		bx	lr
 674              	.L51:
 675              		.align	2
 676              	.L50:
 677 0004 00000000 		.word	s_adminCfg
 678              		.cfi_endproc
 679              	.LFE247:
 681              		.section	.text.DISP_ShowLogo,"ax",%progbits
 682              		.align	1
 683              		.global	DISP_ShowLogo
 684              		.syntax unified
 685              		.thumb
 686              		.thumb_func
 688              	DISP_ShowLogo:
 689              	.LFB249:
 123:BSP/display.c ****     drawLogo();
 690              		.loc 1 123 1 is_stmt 1 view -0
 691              		.cfi_startproc
 692              		@ args = 0, pretend = 0, frame = 0
 693              		@ frame_needed = 0, uses_anonymous_args = 0
 694 0000 08B5     		push	{r3, lr}
 695              	.LCFI7:
 696              		.cfi_def_cfa_offset 8
 697              		.cfi_offset 3, -8
 698              		.cfi_offset 14, -4
 124:BSP/display.c ****     GUI_Update();
 699              		.loc 1 124 5 view .LVU197
 700 0002 FFF7FEFF 		bl	drawLogo
 701              	.LVL68:
 125:BSP/display.c ****     osDelay(2000);
 702              		.loc 1 125 5 view .LVU198
 703 0006 FFF7FEFF 		bl	GUI_Update
 704              	.LVL69:
 126:BSP/display.c **** }
 705              		.loc 1 126 5 view .LVU199
 706 000a 4FF4FA60 		mov	r0, #2000
 707 000e FFF7FEFF 		bl	osDelay
 708              	.LVL70:
 127:BSP/display.c **** 
 709              		.loc 1 127 1 is_stmt 0 view .LVU200
 710 0012 08BD     		pop	{r3, pc}
 711              		.cfi_endproc
 712              	.LFE249:
 714              		.section	.text.DISP_ShowInfoPage,"ax",%progbits
 715              		.align	1
 716              		.global	DISP_ShowInfoPage
 717              		.syntax unified
 718              		.thumb
ARM GAS  C:\Users\24120\AppData\Local\Temp\cciaFKJB.s 			page 22


 719              		.thumb_func
 721              	DISP_ShowInfoPage:
 722              	.LFB250:
 130:BSP/display.c ****     drawInfoPage();
 723              		.loc 1 130 1 is_stmt 1 view -0
 724              		.cfi_startproc
 725              		@ args = 0, pretend = 0, frame = 0
 726              		@ frame_needed = 0, uses_anonymous_args = 0
 727 0000 08B5     		push	{r3, lr}
 728              	.LCFI8:
 729              		.cfi_def_cfa_offset 8
 730              		.cfi_offset 3, -8
 731              		.cfi_offset 14, -4
 131:BSP/display.c ****     GUI_Update();
 732              		.loc 1 131 5 view .LVU202
 733 0002 FFF7FEFF 		bl	drawInfoPage
 734              	.LVL71:
 132:BSP/display.c ****     osDelay(2000);
 735              		.loc 1 132 5 view .LVU203
 736 0006 FFF7FEFF 		bl	GUI_Update
 737              	.LVL72:
 133:BSP/display.c **** }
 738              		.loc 1 133 5 view .LVU204
 739 000a 4FF4FA60 		mov	r0, #2000
 740 000e FFF7FEFF 		bl	osDelay
 741              	.LVL73:
 134:BSP/display.c **** 
 742              		.loc 1 134 1 is_stmt 0 view .LVU205
 743 0012 08BD     		pop	{r3, pc}
 744              		.cfi_endproc
 745              	.LFE250:
 747              		.section	.text.DISP_FeedWatchdog,"ax",%progbits
 748              		.align	1
 749              		.global	DISP_FeedWatchdog
 750              		.syntax unified
 751              		.thumb
 752              		.thumb_func
 754              	DISP_FeedWatchdog:
 755              	.LFB252:
 169:BSP/display.c ****     s_lastFrameTick = osKernelGetTickCount();
 756              		.loc 1 169 1 is_stmt 1 view -0
 757              		.cfi_startproc
 758              		@ args = 0, pretend = 0, frame = 0
 759              		@ frame_needed = 0, uses_anonymous_args = 0
 760 0000 08B5     		push	{r3, lr}
 761              	.LCFI9:
 762              		.cfi_def_cfa_offset 8
 763              		.cfi_offset 3, -8
 764              		.cfi_offset 14, -4
 170:BSP/display.c **** }
 765              		.loc 1 170 5 view .LVU207
 170:BSP/display.c **** }
 766              		.loc 1 170 23 is_stmt 0 view .LVU208
 767 0002 FFF7FEFF 		bl	osKernelGetTickCount
 768              	.LVL74:
 170:BSP/display.c **** }
 769              		.loc 1 170 21 discriminator 1 view .LVU209
ARM GAS  C:\Users\24120\AppData\Local\Temp\cciaFKJB.s 			page 23


 770 0006 014B     		ldr	r3, .L58
 771 0008 1860     		str	r0, [r3]
 171:BSP/display.c **** 
 772              		.loc 1 171 1 view .LVU210
 773 000a 08BD     		pop	{r3, pc}
 774              	.L59:
 775              		.align	2
 776              	.L58:
 777 000c 00000000 		.word	s_lastFrameTick
 778              		.cfi_endproc
 779              	.LFE252:
 781              		.section	.text.DISP_CheckStuck,"ax",%progbits
 782              		.align	1
 783              		.global	DISP_CheckStuck
 784              		.syntax unified
 785              		.thumb
 786              		.thumb_func
 788              	DISP_CheckStuck:
 789              	.LFB253:
 178:BSP/display.c ****     if (s_lastFrameTick == 0) return 0;  /* 尚未完成首帧渲染 */
 790              		.loc 1 178 1 is_stmt 1 view -0
 791              		.cfi_startproc
 792              		@ args = 0, pretend = 0, frame = 0
 793              		@ frame_needed = 0, uses_anonymous_args = 0
 794 0000 08B5     		push	{r3, lr}
 795              	.LCFI10:
 796              		.cfi_def_cfa_offset 8
 797              		.cfi_offset 3, -8
 798              		.cfi_offset 14, -4
 179:BSP/display.c ****     uint32_t elapsed = osKernelGetTickCount() - s_lastFrameTick;
 799              		.loc 1 179 5 view .LVU212
 179:BSP/display.c ****     uint32_t elapsed = osKernelGetTickCount() - s_lastFrameTick;
 800              		.loc 1 179 25 is_stmt 0 view .LVU213
 801 0002 084B     		ldr	r3, .L65
 802 0004 1B68     		ldr	r3, [r3]
 179:BSP/display.c ****     uint32_t elapsed = osKernelGetTickCount() - s_lastFrameTick;
 803              		.loc 1 179 8 view .LVU214
 804 0006 0BB9     		cbnz	r3, .L64
 179:BSP/display.c ****     uint32_t elapsed = osKernelGetTickCount() - s_lastFrameTick;
 805              		.loc 1 179 38 discriminator 1 view .LVU215
 806 0008 0020     		movs	r0, #0
 807              	.L61:
 182:BSP/display.c **** 
 808              		.loc 1 182 1 view .LVU216
 809 000a 08BD     		pop	{r3, pc}
 810              	.L64:
 180:BSP/display.c ****     return (elapsed >= DISP_STUCK_TIMEOUT_MS) ? 1 : 0;
 811              		.loc 1 180 5 is_stmt 1 view .LVU217
 180:BSP/display.c ****     return (elapsed >= DISP_STUCK_TIMEOUT_MS) ? 1 : 0;
 812              		.loc 1 180 24 is_stmt 0 view .LVU218
 813 000c FFF7FEFF 		bl	osKernelGetTickCount
 814              	.LVL75:
 180:BSP/display.c ****     return (elapsed >= DISP_STUCK_TIMEOUT_MS) ? 1 : 0;
 815              		.loc 1 180 47 discriminator 1 view .LVU219
 816 0010 044B     		ldr	r3, .L65
 817 0012 1B68     		ldr	r3, [r3]
 180:BSP/display.c ****     return (elapsed >= DISP_STUCK_TIMEOUT_MS) ? 1 : 0;
ARM GAS  C:\Users\24120\AppData\Local\Temp\cciaFKJB.s 			page 24


 818              		.loc 1 180 14 discriminator 1 view .LVU220
 819 0014 C01A     		subs	r0, r0, r3
 820              	.LVL76:
 181:BSP/display.c **** }
 821              		.loc 1 181 5 is_stmt 1 view .LVU221
 181:BSP/display.c **** }
 822              		.loc 1 181 51 is_stmt 0 view .LVU222
 823 0016 40F6B733 		movw	r3, #2999
 824 001a 9842     		cmp	r0, r3
 825 001c 94BF     		ite	ls
 826 001e 0020     		movls	r0, #0
 827              	.LVL77:
 181:BSP/display.c **** }
 828              		.loc 1 181 51 view .LVU223
 829 0020 0120     		movhi	r0, #1
 830 0022 F2E7     		b	.L61
 831              	.L66:
 832              		.align	2
 833              	.L65:
 834 0024 00000000 		.word	s_lastFrameTick
 835              		.cfi_endproc
 836              	.LFE253:
 838              		.section	.text.DISP_ResetOLED,"ax",%progbits
 839              		.align	1
 840              		.global	DISP_ResetOLED
 841              		.syntax unified
 842              		.thumb
 843              		.thumb_func
 845              	DISP_ResetOLED:
 846              	.LFB254:
 189:BSP/display.c ****     SSD1306_init();       /* 重新初始化 OLED 芯片 (含自检+配置) */
 847              		.loc 1 189 1 is_stmt 1 view -0
 848              		.cfi_startproc
 849              		@ args = 0, pretend = 0, frame = 0
 850              		@ frame_needed = 0, uses_anonymous_args = 0
 851 0000 08B5     		push	{r3, lr}
 852              	.LCFI11:
 853              		.cfi_def_cfa_offset 8
 854              		.cfi_offset 3, -8
 855              		.cfi_offset 14, -4
 190:BSP/display.c ****     GUI_Init();           /* 重新初始化 GUI 上下文 */
 856              		.loc 1 190 5 view .LVU225
 857 0002 FFF7FEFF 		bl	SSD1306_init
 858              	.LVL78:
 191:BSP/display.c ****     GUI_Clear();          /* 清空帧缓冲 */
 859              		.loc 1 191 5 view .LVU226
 860 0006 FFF7FEFF 		bl	GUI_Init
 861              	.LVL79:
 192:BSP/display.c ****     GUI_SetColor(GUI_COLOR_WHITE);
 862              		.loc 1 192 5 view .LVU227
 863 000a FFF7FEFF 		bl	GUI_Clear
 864              	.LVL80:
 193:BSP/display.c ****     GUI_Update();         /* 立即刷新一帧黑屏, 清除可能的花屏 */
 865              		.loc 1 193 5 view .LVU228
 866 000e 0120     		movs	r0, #1
 867 0010 FFF7FEFF 		bl	GUI_SetColor
 868              	.LVL81:
ARM GAS  C:\Users\24120\AppData\Local\Temp\cciaFKJB.s 			page 25


 194:BSP/display.c ****     DISP_FeedWatchdog();  /* 重置看门狗时间戳 */
 869              		.loc 1 194 5 view .LVU229
 870 0014 FFF7FEFF 		bl	GUI_Update
 871              	.LVL82:
 195:BSP/display.c **** }
 872              		.loc 1 195 5 view .LVU230
 873 0018 FFF7FEFF 		bl	DISP_FeedWatchdog
 874              	.LVL83:
 196:BSP/display.c **** 
 875              		.loc 1 196 1 is_stmt 0 view .LVU231
 876 001c 08BD     		pop	{r3, pc}
 877              		.cfi_endproc
 878              	.LFE254:
 880              		.section	.text.DISP_Init,"ax",%progbits
 881              		.align	1
 882              		.global	DISP_Init
 883              		.syntax unified
 884              		.thumb
 885              		.thumb_func
 887              	DISP_Init:
 888              	.LFB255:
 201:BSP/display.c ****     memset(&s_cardInfo, 0, sizeof(s_cardInfo));
 889              		.loc 1 201 1 is_stmt 1 view -0
 890              		.cfi_startproc
 891              		@ args = 0, pretend = 0, frame = 0
 892              		@ frame_needed = 0, uses_anonymous_args = 0
 893 0000 08B5     		push	{r3, lr}
 894              	.LCFI12:
 895              		.cfi_def_cfa_offset 8
 896              		.cfi_offset 3, -8
 897              		.cfi_offset 14, -4
 202:BSP/display.c ****     memset(&s_cardBitmap, 0, sizeof(s_cardBitmap));
 898              		.loc 1 202 5 view .LVU233
 899 0002 2422     		movs	r2, #36
 900 0004 0021     		movs	r1, #0
 901 0006 0A48     		ldr	r0, .L71
 902 0008 FFF7FEFF 		bl	memset
 903              	.LVL84:
 203:BSP/display.c ****     s_state = DISP_STATE_CLOCK;
 904              		.loc 1 203 5 view .LVU234
 905 000c 40F2C122 		movw	r2, #705
 906 0010 0021     		movs	r1, #0
 907 0012 0848     		ldr	r0, .L71+4
 908 0014 FFF7FEFF 		bl	memset
 909              	.LVL85:
 204:BSP/display.c ****     s_adminCfg.deviceId = 1;
 910              		.loc 1 204 5 view .LVU235
 204:BSP/display.c ****     s_adminCfg.deviceId = 1;
 911              		.loc 1 204 13 is_stmt 0 view .LVU236
 912 0018 0023     		movs	r3, #0
 913 001a 074A     		ldr	r2, .L71+8
 914 001c 1370     		strb	r3, [r2]
 205:BSP/display.c ****     s_adminCfg.attendMode = 2;  /* 默认出入口模式 */
 915              		.loc 1 205 5 is_stmt 1 view .LVU237
 205:BSP/display.c ****     s_adminCfg.attendMode = 2;  /* 默认出入口模式 */
 916              		.loc 1 205 25 is_stmt 0 view .LVU238
 917 001e 074A     		ldr	r2, .L71+12
ARM GAS  C:\Users\24120\AppData\Local\Temp\cciaFKJB.s 			page 26


 918 0020 0121     		movs	r1, #1
 919 0022 1180     		strh	r1, [r2]	@ movhi
 206:BSP/display.c ****     s_lastFrameTick = 0;  /* 重置看门狗时间戳 */
 920              		.loc 1 206 5 is_stmt 1 view .LVU239
 206:BSP/display.c ****     s_lastFrameTick = 0;  /* 重置看门狗时间戳 */
 921              		.loc 1 206 27 is_stmt 0 view .LVU240
 922 0024 0221     		movs	r1, #2
 923 0026 9170     		strb	r1, [r2, #2]
 207:BSP/display.c **** }
 924              		.loc 1 207 5 is_stmt 1 view .LVU241
 207:BSP/display.c **** }
 925              		.loc 1 207 21 is_stmt 0 view .LVU242
 926 0028 054A     		ldr	r2, .L71+16
 927 002a 1360     		str	r3, [r2]
 208:BSP/display.c **** 
 928              		.loc 1 208 1 view .LVU243
 929 002c 08BD     		pop	{r3, pc}
 930              	.L72:
 931 002e 00BF     		.align	2
 932              	.L71:
 933 0030 00000000 		.word	s_cardInfo
 934 0034 00000000 		.word	s_cardBitmap
 935 0038 00000000 		.word	s_state
 936 003c 00000000 		.word	s_adminCfg
 937 0040 00000000 		.word	s_lastFrameTick
 938              		.cfi_endproc
 939              	.LFE255:
 941              		.section	.text.DISP_ApplyI2CConfig,"ax",%progbits
 942              		.align	1
 943              		.global	DISP_ApplyI2CConfig
 944              		.syntax unified
 945              		.thumb
 946              		.thumb_func
 948              	DISP_ApplyI2CConfig:
 949              	.LFB256:
 215:BSP/display.c ****     if (hi2c1.Init.ClockSpeed != DISP_I2C_TARGET_HZ) {
 950              		.loc 1 215 1 is_stmt 1 view -0
 951              		.cfi_startproc
 952              		@ args = 0, pretend = 0, frame = 0
 953              		@ frame_needed = 0, uses_anonymous_args = 0
 216:BSP/display.c ****         hi2c1.Init.ClockSpeed = DISP_I2C_TARGET_HZ;
 954              		.loc 1 216 5 view .LVU245
 216:BSP/display.c ****         hi2c1.Init.ClockSpeed = DISP_I2C_TARGET_HZ;
 955              		.loc 1 216 19 is_stmt 0 view .LVU246
 956 0000 074B     		ldr	r3, .L80
 957 0002 5A68     		ldr	r2, [r3, #4]
 216:BSP/display.c ****         hi2c1.Init.ClockSpeed = DISP_I2C_TARGET_HZ;
 958              		.loc 1 216 8 view .LVU247
 959 0004 074B     		ldr	r3, .L80+4
 960 0006 9A42     		cmp	r2, r3
 961 0008 00D1     		bne	.L79
 962 000a 7047     		bx	lr
 963              	.L79:
 215:BSP/display.c ****     if (hi2c1.Init.ClockSpeed != DISP_I2C_TARGET_HZ) {
 964              		.loc 1 215 1 view .LVU248
 965 000c 10B5     		push	{r4, lr}
 966              	.LCFI13:
ARM GAS  C:\Users\24120\AppData\Local\Temp\cciaFKJB.s 			page 27


 967              		.cfi_def_cfa_offset 8
 968              		.cfi_offset 4, -8
 969              		.cfi_offset 14, -4
 217:BSP/display.c ****         HAL_I2C_DeInit(&hi2c1);
 970              		.loc 1 217 9 is_stmt 1 view .LVU249
 217:BSP/display.c ****         HAL_I2C_DeInit(&hi2c1);
 971              		.loc 1 217 31 is_stmt 0 view .LVU250
 972 000e 044C     		ldr	r4, .L80
 973 0010 6360     		str	r3, [r4, #4]
 218:BSP/display.c ****         HAL_I2C_Init(&hi2c1);
 974              		.loc 1 218 9 is_stmt 1 view .LVU251
 975 0012 2046     		mov	r0, r4
 976 0014 FFF7FEFF 		bl	HAL_I2C_DeInit
 977              	.LVL86:
 219:BSP/display.c ****     }
 978              		.loc 1 219 9 view .LVU252
 979 0018 2046     		mov	r0, r4
 980 001a FFF7FEFF 		bl	HAL_I2C_Init
 981              	.LVL87:
 221:BSP/display.c **** 
 982              		.loc 1 221 1 is_stmt 0 view .LVU253
 983 001e 10BD     		pop	{r4, pc}
 984              	.L81:
 985              		.align	2
 986              	.L80:
 987 0020 00000000 		.word	hi2c1
 988 0024 801A0600 		.word	400000
 989              		.cfi_endproc
 990              	.LFE256:
 992              		.section	.text.DISP_GetState,"ax",%progbits
 993              		.align	1
 994              		.global	DISP_GetState
 995              		.syntax unified
 996              		.thumb
 997              		.thumb_func
 999              	DISP_GetState:
 1000              	.LFB257:
 224:BSP/display.c ****     return s_state;
 1001              		.loc 1 224 1 is_stmt 1 view -0
 1002              		.cfi_startproc
 1003              		@ args = 0, pretend = 0, frame = 0
 1004              		@ frame_needed = 0, uses_anonymous_args = 0
 1005              		@ link register save eliminated.
 225:BSP/display.c **** }
 1006              		.loc 1 225 5 view .LVU255
 226:BSP/display.c **** 
 1007              		.loc 1 226 1 is_stmt 0 view .LVU256
 1008 0000 014B     		ldr	r3, .L83
 1009 0002 1878     		ldrb	r0, [r3]	@ zero_extendqisi2
 1010 0004 7047     		bx	lr
 1011              	.L84:
 1012 0006 00BF     		.align	2
 1013              	.L83:
 1014 0008 00000000 		.word	s_state
 1015              		.cfi_endproc
 1016              	.LFE257:
 1018              		.section	.text.DISP_SetState,"ax",%progbits
ARM GAS  C:\Users\24120\AppData\Local\Temp\cciaFKJB.s 			page 28


 1019              		.align	1
 1020              		.global	DISP_SetState
 1021              		.syntax unified
 1022              		.thumb
 1023              		.thumb_func
 1025              	DISP_SetState:
 1026              	.LVL88:
 1027              	.LFB258:
 229:BSP/display.c ****     /* 从管理员设置退出且非 K6 保存 → 恢复旧配置 */
 1028              		.loc 1 229 1 is_stmt 1 view -0
 1029              		.cfi_startproc
 1030              		@ args = 0, pretend = 0, frame = 0
 1031              		@ frame_needed = 0, uses_anonymous_args = 0
 229:BSP/display.c ****     /* 从管理员设置退出且非 K6 保存 → 恢复旧配置 */
 1032              		.loc 1 229 1 is_stmt 0 view .LVU258
 1033 0000 38B5     		push	{r3, r4, r5, lr}
 1034              	.LCFI14:
 1035              		.cfi_def_cfa_offset 16
 1036              		.cfi_offset 3, -16
 1037              		.cfi_offset 4, -12
 1038              		.cfi_offset 5, -8
 1039              		.cfi_offset 14, -4
 1040 0002 0446     		mov	r4, r0
 231:BSP/display.c ****         s_adminCfg = s_adminSet.backup;
 1041              		.loc 1 231 5 is_stmt 1 view .LVU259
 231:BSP/display.c ****         s_adminCfg = s_adminSet.backup;
 1042              		.loc 1 231 17 is_stmt 0 view .LVU260
 1043 0004 144B     		ldr	r3, .L95
 1044 0006 1B78     		ldrb	r3, [r3]	@ zero_extendqisi2
 231:BSP/display.c ****         s_adminCfg = s_adminSet.backup;
 1045              		.loc 1 231 8 view .LVU261
 1046 0008 032B     		cmp	r3, #3
 1047 000a 06D0     		beq	.L91
 1048              	.L86:
 234:BSP/display.c ****     /* 进入时间设置时复制当前 RTC 值 */
 1049              		.loc 1 234 5 is_stmt 1 view .LVU262
 234:BSP/display.c ****     /* 进入时间设置时复制当前 RTC 值 */
 1050              		.loc 1 234 13 is_stmt 0 view .LVU263
 1051 000c 124B     		ldr	r3, .L95
 1052 000e 1C70     		strb	r4, [r3]
 236:BSP/display.c ****         BSP_RTC_GetDateTime(&s_timeSet.dt);
 1053              		.loc 1 236 5 is_stmt 1 view .LVU264
 236:BSP/display.c ****         BSP_RTC_GetDateTime(&s_timeSet.dt);
 1054              		.loc 1 236 8 is_stmt 0 view .LVU265
 1055 0010 022C     		cmp	r4, #2
 1056 0012 0CD0     		beq	.L92
 1057              	.LVL89:
 1058              	.L88:
 242:BSP/display.c ****         s_adminSet.cursor = 0;
 1059              		.loc 1 242 5 is_stmt 1 view .LVU266
 242:BSP/display.c ****         s_adminSet.cursor = 0;
 1060              		.loc 1 242 8 is_stmt 0 view .LVU267
 1061 0014 032C     		cmp	r4, #3
 1062 0016 14D0     		beq	.L93
 1063              	.LVL90:
 1064              	.L85:
 247:BSP/display.c **** 
ARM GAS  C:\Users\24120\AppData\Local\Temp\cciaFKJB.s 			page 29


 1065              		.loc 1 247 1 view .LVU268
 1066 0018 38BD     		pop	{r3, r4, r5, pc}
 1067              	.LVL91:
 1068              	.L91:
 231:BSP/display.c ****         s_adminCfg = s_adminSet.backup;
 1069              		.loc 1 231 41 discriminator 1 view .LVU269
 1070 001a 0328     		cmp	r0, #3
 1071 001c 04D0     		beq	.L94
 232:BSP/display.c ****     }
 1072              		.loc 1 232 9 is_stmt 1 view .LVU270
 232:BSP/display.c ****     }
 1073              		.loc 1 232 20 is_stmt 0 view .LVU271
 1074 001e 0F4B     		ldr	r3, .L95+4
 1075 0020 9A68     		ldr	r2, [r3, #8]
 1076 0022 0F4B     		ldr	r3, .L95+8
 1077 0024 1A60     		str	r2, [r3]
 1078 0026 F1E7     		b	.L86
 1079              	.L94:
 234:BSP/display.c ****     /* 进入时间设置时复制当前 RTC 值 */
 1080              		.loc 1 234 5 is_stmt 1 view .LVU272
 234:BSP/display.c ****     /* 进入时间设置时复制当前 RTC 值 */
 1081              		.loc 1 234 13 is_stmt 0 view .LVU273
 1082 0028 0B4B     		ldr	r3, .L95
 1083 002a 1870     		strb	r0, [r3]
 236:BSP/display.c ****         BSP_RTC_GetDateTime(&s_timeSet.dt);
 1084              		.loc 1 236 5 is_stmt 1 view .LVU274
 1085 002c F2E7     		b	.L88
 1086              	.L92:
 237:BSP/display.c ****         s_timeSet.cursor = 0;
 1087              		.loc 1 237 9 view .LVU275
 1088 002e 0D4D     		ldr	r5, .L95+12
 1089 0030 2846     		mov	r0, r5
 1090              	.LVL92:
 237:BSP/display.c ****         s_timeSet.cursor = 0;
 1091              		.loc 1 237 9 is_stmt 0 view .LVU276
 1092 0032 FFF7FEFF 		bl	BSP_RTC_GetDateTime
 1093              	.LVL93:
 238:BSP/display.c ****         s_timeSet.enterTick = osKernelGetTickCount();
 1094              		.loc 1 238 9 is_stmt 1 view .LVU277
 238:BSP/display.c ****         s_timeSet.enterTick = osKernelGetTickCount();
 1095              		.loc 1 238 26 is_stmt 0 view .LVU278
 1096 0036 0023     		movs	r3, #0
 1097 0038 2B72     		strb	r3, [r5, #8]
 239:BSP/display.c ****     }
 1098              		.loc 1 239 9 is_stmt 1 view .LVU279
 239:BSP/display.c ****     }
 1099              		.loc 1 239 31 is_stmt 0 view .LVU280
 1100 003a FFF7FEFF 		bl	osKernelGetTickCount
 1101              	.LVL94:
 239:BSP/display.c ****     }
 1102              		.loc 1 239 29 discriminator 1 view .LVU281
 1103 003e E860     		str	r0, [r5, #12]
 1104 0040 E8E7     		b	.L88
 1105              	.L93:
 243:BSP/display.c ****         s_adminSet.enterTick = osKernelGetTickCount();
 1106              		.loc 1 243 9 is_stmt 1 view .LVU282
 243:BSP/display.c ****         s_adminSet.enterTick = osKernelGetTickCount();
ARM GAS  C:\Users\24120\AppData\Local\Temp\cciaFKJB.s 			page 30


 1107              		.loc 1 243 27 is_stmt 0 view .LVU283
 1108 0042 064C     		ldr	r4, .L95+4
 1109              	.LVL95:
 243:BSP/display.c ****         s_adminSet.enterTick = osKernelGetTickCount();
 1110              		.loc 1 243 27 view .LVU284
 1111 0044 0023     		movs	r3, #0
 1112 0046 2370     		strb	r3, [r4]
 244:BSP/display.c ****         s_adminSet.backup = s_adminCfg;  /* 保存副本, 取消时恢复 */
 1113              		.loc 1 244 9 is_stmt 1 view .LVU285
 244:BSP/display.c ****         s_adminSet.backup = s_adminCfg;  /* 保存副本, 取消时恢复 */
 1114              		.loc 1 244 32 is_stmt 0 view .LVU286
 1115 0048 FFF7FEFF 		bl	osKernelGetTickCount
 1116              	.LVL96:
 244:BSP/display.c ****         s_adminSet.backup = s_adminCfg;  /* 保存副本, 取消时恢复 */
 1117              		.loc 1 244 30 discriminator 1 view .LVU287
 1118 004c 6060     		str	r0, [r4, #4]
 245:BSP/display.c ****     }
 1119              		.loc 1 245 9 is_stmt 1 view .LVU288
 245:BSP/display.c ****     }
 1120              		.loc 1 245 27 is_stmt 0 view .LVU289
 1121 004e 044B     		ldr	r3, .L95+8
 1122 0050 1B68     		ldr	r3, [r3]
 1123 0052 A360     		str	r3, [r4, #8]
 247:BSP/display.c **** 
 1124              		.loc 1 247 1 view .LVU290
 1125 0054 E0E7     		b	.L85
 1126              	.L96:
 1127 0056 00BF     		.align	2
 1128              	.L95:
 1129 0058 00000000 		.word	s_state
 1130 005c 00000000 		.word	s_adminSet
 1131 0060 00000000 		.word	s_adminCfg
 1132 0064 00000000 		.word	s_timeSet
 1133              		.cfi_endproc
 1134              	.LFE258:
 1136              		.section	.text.DISP_RunStartup,"ax",%progbits
 1137              		.align	1
 1138              		.global	DISP_RunStartup
 1139              		.syntax unified
 1140              		.thumb
 1141              		.thumb_func
 1143              	DISP_RunStartup:
 1144              	.LFB259:
 250:BSP/display.c ****     drawLogo();
 1145              		.loc 1 250 1 is_stmt 1 view -0
 1146              		.cfi_startproc
 1147              		@ args = 0, pretend = 0, frame = 0
 1148              		@ frame_needed = 0, uses_anonymous_args = 0
 1149 0000 08B5     		push	{r3, lr}
 1150              	.LCFI15:
 1151              		.cfi_def_cfa_offset 8
 1152              		.cfi_offset 3, -8
 1153              		.cfi_offset 14, -4
 251:BSP/display.c ****     GUI_Update();
 1154              		.loc 1 251 5 view .LVU292
 1155 0002 FFF7FEFF 		bl	drawLogo
 1156              	.LVL97:
ARM GAS  C:\Users\24120\AppData\Local\Temp\cciaFKJB.s 			page 31


 252:BSP/display.c ****     osDelay(2000);  /* LOGO 显示 2s */
 1157              		.loc 1 252 5 view .LVU293
 1158 0006 FFF7FEFF 		bl	GUI_Update
 1159              	.LVL98:
 253:BSP/display.c **** 
 1160              		.loc 1 253 5 view .LVU294
 1161 000a 4FF4FA60 		mov	r0, #2000
 1162 000e FFF7FEFF 		bl	osDelay
 1163              	.LVL99:
 255:BSP/display.c ****     GUI_Update();
 1164              		.loc 1 255 5 view .LVU295
 1165 0012 FFF7FEFF 		bl	drawInfoPage
 1166              	.LVL100:
 256:BSP/display.c ****     osDelay(1000);
 1167              		.loc 1 256 5 view .LVU296
 1168 0016 FFF7FEFF 		bl	GUI_Update
 1169              	.LVL101:
 257:BSP/display.c **** }
 1170              		.loc 1 257 5 view .LVU297
 1171 001a 4FF47A70 		mov	r0, #1000
 1172 001e FFF7FEFF 		bl	osDelay
 1173              	.LVL102:
 258:BSP/display.c **** 
 1174              		.loc 1 258 1 is_stmt 0 view .LVU298
 1175 0022 08BD     		pop	{r3, pc}
 1176              		.cfi_endproc
 1177              	.LFE259:
 1179              		.section	.rodata.DISP_ShowInitMsg.str1.4,"aMS",%progbits,1
 1180              		.align	2
 1181              	.LC5:
 1182 0000 53797374 		.ascii	"System Init\000"
 1182      656D2049 
 1182      6E697400 
 1183              		.section	.text.DISP_ShowInitMsg,"ax",%progbits
 1184              		.align	1
 1185              		.global	DISP_ShowInitMsg
 1186              		.syntax unified
 1187              		.thumb
 1188              		.thumb_func
 1190              	DISP_ShowInitMsg:
 1191              	.LVL103:
 1192              	.LFB260:
 265:BSP/display.c ****     GUI_Clear();
 1193              		.loc 1 265 1 is_stmt 1 view -0
 1194              		.cfi_startproc
 1195              		@ args = 0, pretend = 0, frame = 0
 1196              		@ frame_needed = 0, uses_anonymous_args = 0
 265:BSP/display.c ****     GUI_Clear();
 1197              		.loc 1 265 1 is_stmt 0 view .LVU300
 1198 0000 10B5     		push	{r4, lr}
 1199              	.LCFI16:
 1200              		.cfi_def_cfa_offset 8
 1201              		.cfi_offset 4, -8
 1202              		.cfi_offset 14, -4
 1203 0002 0446     		mov	r4, r0
 266:BSP/display.c ****     GUI_SetColor(GUI_COLOR_WHITE);
 1204              		.loc 1 266 5 is_stmt 1 view .LVU301
ARM GAS  C:\Users\24120\AppData\Local\Temp\cciaFKJB.s 			page 32


 1205 0004 FFF7FEFF 		bl	GUI_Clear
 1206              	.LVL104:
 267:BSP/display.c ****     GUI_SetFont((GUI_FONT *)&GUI_FontHZ_SimSun_16);
 1207              		.loc 1 267 5 view .LVU302
 1208 0008 0120     		movs	r0, #1
 1209 000a FFF7FEFF 		bl	GUI_SetColor
 1210              	.LVL105:
 268:BSP/display.c ****     GUI_DispStringHCenterAt("System Init", 64, 8);
 1211              		.loc 1 268 5 view .LVU303
 1212 000e 0848     		ldr	r0, .L101
 1213 0010 FFF7FEFF 		bl	GUI_SetFont
 1214              	.LVL106:
 269:BSP/display.c ****     GUI_DispStringHCenterAt(msg, 64, 32);
 1215              		.loc 1 269 5 view .LVU304
 1216 0014 0822     		movs	r2, #8
 1217 0016 4021     		movs	r1, #64
 1218 0018 0648     		ldr	r0, .L101+4
 1219 001a FFF7FEFF 		bl	GUI_DispStringHCenterAt
 1220              	.LVL107:
 270:BSP/display.c ****     GUI_Update();
 1221              		.loc 1 270 5 view .LVU305
 1222 001e 2022     		movs	r2, #32
 1223 0020 4021     		movs	r1, #64
 1224 0022 2046     		mov	r0, r4
 1225 0024 FFF7FEFF 		bl	GUI_DispStringHCenterAt
 1226              	.LVL108:
 271:BSP/display.c **** }
 1227              		.loc 1 271 5 view .LVU306
 1228 0028 FFF7FEFF 		bl	GUI_Update
 1229              	.LVL109:
 272:BSP/display.c **** 
 1230              		.loc 1 272 1 is_stmt 0 view .LVU307
 1231 002c 10BD     		pop	{r4, pc}
 1232              	.LVL110:
 1233              	.L102:
 272:BSP/display.c **** 
 1234              		.loc 1 272 1 view .LVU308
 1235 002e 00BF     		.align	2
 1236              	.L101:
 1237 0030 00000000 		.word	GUI_FontHZ_SimSun_16
 1238 0034 00000000 		.word	.LC5
 1239              		.cfi_endproc
 1240              	.LFE260:
 1242              		.section	.text.DISP_UpdateTempCache,"ax",%progbits
 1243              		.align	1
 1244              		.global	DISP_UpdateTempCache
 1245              		.syntax unified
 1246              		.thumb
 1247              		.thumb_func
 1249              	DISP_UpdateTempCache:
 1250              	.LFB263:
 359:BSP/display.c **** 
 360:BSP/display.c **** /* 温度缓存: defaultTask 异步更新, guiTask 只读 (避免阻塞 OneWire) */
 361:BSP/display.c **** static volatile float g_cachedTemp = 25.0f;
 362:BSP/display.c **** 
 363:BSP/display.c **** void DISP_UpdateTempCache(void)
 364:BSP/display.c **** {
ARM GAS  C:\Users\24120\AppData\Local\Temp\cciaFKJB.s 			page 33


 1251              		.loc 1 364 1 is_stmt 1 view -0
 1252              		.cfi_startproc
 1253              		@ args = 0, pretend = 0, frame = 0
 1254              		@ frame_needed = 0, uses_anonymous_args = 0
 1255 0000 08B5     		push	{r3, lr}
 1256              	.LCFI17:
 1257              		.cfi_def_cfa_offset 8
 1258              		.cfi_offset 3, -8
 1259              		.cfi_offset 14, -4
 365:BSP/display.c ****     float t = ds18b20_read();
 1260              		.loc 1 365 5 view .LVU310
 1261              		.loc 1 365 15 is_stmt 0 view .LVU311
 1262 0002 FFF7FEFF 		bl	ds18b20_read
 1263              	.LVL111:
 366:BSP/display.c ****     if (t >= -55.0f && t <= 125.0f) {
 1264              		.loc 1 366 5 is_stmt 1 view .LVU312
 1265              		.loc 1 366 8 is_stmt 0 view .LVU313
 1266 0006 DFED097A 		vldr.32	s15, .L110
 1267 000a B4EEE70A 		vcmpe.f32	s0, s15
 1268 000e F1EE10FA 		vmrs	APSR_nzcv, FPSCR
 1269 0012 09DB     		blt	.L103
 1270              		.loc 1 366 21 discriminator 1 view .LVU314
 1271 0014 DFED067A 		vldr.32	s15, .L110+4
 1272 0018 B4EEE70A 		vcmpe.f32	s0, s15
 1273 001c F1EE10FA 		vmrs	APSR_nzcv, FPSCR
 1274 0020 02D8     		bhi	.L103
 367:BSP/display.c ****         g_cachedTemp = t;
 1275              		.loc 1 367 9 is_stmt 1 view .LVU315
 1276              		.loc 1 367 22 is_stmt 0 view .LVU316
 1277 0022 044B     		ldr	r3, .L110+8
 1278 0024 83ED000A 		vstr.32	s0, [r3]
 1279              	.L103:
 368:BSP/display.c ****     }
 369:BSP/display.c **** }
 1280              		.loc 1 369 1 view .LVU317
 1281 0028 08BD     		pop	{r3, pc}
 1282              	.L111:
 1283 002a 00BF     		.align	2
 1284              	.L110:
 1285 002c 00005CC2 		.word	-1034158080
 1286 0030 0000FA42 		.word	1123680256
 1287 0034 00000000 		.word	g_cachedTemp
 1288              		.cfi_endproc
 1289              	.LFE263:
 1291              		.section	.text.DISP_GetCachedTemp,"ax",%progbits
 1292              		.align	1
 1293              		.global	DISP_GetCachedTemp
 1294              		.syntax unified
 1295              		.thumb
 1296              		.thumb_func
 1298              	DISP_GetCachedTemp:
 1299              	.LFB264:
 370:BSP/display.c **** 
 371:BSP/display.c **** float DISP_GetCachedTemp(void)
 372:BSP/display.c **** {
 1300              		.loc 1 372 1 is_stmt 1 view -0
 1301              		.cfi_startproc
ARM GAS  C:\Users\24120\AppData\Local\Temp\cciaFKJB.s 			page 34


 1302              		@ args = 0, pretend = 0, frame = 0
 1303              		@ frame_needed = 0, uses_anonymous_args = 0
 1304              		@ link register save eliminated.
 373:BSP/display.c ****     return g_cachedTemp;
 1305              		.loc 1 373 5 view .LVU319
 1306              		.loc 1 373 12 is_stmt 0 view .LVU320
 1307 0000 014B     		ldr	r3, .L113
 1308 0002 93ED000A 		vldr.32	s0, [r3]
 374:BSP/display.c **** }
 1309              		.loc 1 374 1 view .LVU321
 1310 0006 7047     		bx	lr
 1311              	.L114:
 1312              		.align	2
 1313              	.L113:
 1314 0008 00000000 		.word	g_cachedTemp
 1315              		.cfi_endproc
 1316              	.LFE264:
 1318              		.section	.rodata.DISP_ShowClock.str1.4,"aMS",%progbits,1
 1319              		.align	2
 1320              	.LC6:
 1321 0000 25303464 		.ascii	"%04d\345\271\264%02d\346\234\210%02d\346\227\245 %s"
 1321      E5B9B425 
 1321      303264E6 
 1321      9C882530 
 1321      3264E697 
 1322 0018 20E8AEBE 		.ascii	" \350\256\276\345\244\207:%03d \346\250\241\345\274"
 1322      E5A4873A 
 1322      25303364 
 1322      20E6A8A1 
 1322      E5BC
 1323 002a 8F3A2573 		.ascii	"\217:%s\000"
 1323      00
 1324 002f 00       		.align	2
 1325              	.LC7:
 1326 0030 25303264 		.ascii	"%02d:%02d:%02d\000"
 1326      3A253032 
 1326      643A2530 
 1326      326400
 1327 003f 00       		.align	2
 1328              	.LC8:
 1329 0040 E69CACE5 		.ascii	"\346\234\254\345\234\260\346\270\251\345\272\246\357"
 1329      9CB0E6B8 
 1329      A9E5BAA6 
 1329      EF
 1330 004d BC9A252E 		.ascii	"\274\232%.1f\342\204\203\000"
 1330      3166E284 
 1330      8300
 1331 0057 00       		.align	2
 1332              	.LC9:
 1333 0058 25732020 		.ascii	"%s  %s\000"
 1333      257300
 1334              		.section	.text.DISP_ShowClock,"ax",%progbits
 1335              		.align	1
 1336              		.global	DISP_ShowClock
 1337              		.syntax unified
 1338              		.thumb
 1339              		.thumb_func
ARM GAS  C:\Users\24120\AppData\Local\Temp\cciaFKJB.s 			page 35


 1341              	DISP_ShowClock:
 1342              	.LFB265:
 375:BSP/display.c **** 
 376:BSP/display.c **** void DISP_ShowClock(void)
 377:BSP/display.c **** {
 1343              		.loc 1 377 1 is_stmt 1 view -0
 1344              		.cfi_startproc
 1345              		@ args = 0, pretend = 0, frame = 384
 1346              		@ frame_needed = 0, uses_anonymous_args = 0
 1347 0000 2DE9F04F 		push	{r4, r5, r6, r7, r8, r9, r10, fp, lr}
 1348              	.LCFI18:
 1349              		.cfi_def_cfa_offset 36
 1350              		.cfi_offset 4, -36
 1351              		.cfi_offset 5, -32
 1352              		.cfi_offset 6, -28
 1353              		.cfi_offset 7, -24
 1354              		.cfi_offset 8, -20
 1355              		.cfi_offset 9, -16
 1356              		.cfi_offset 10, -12
 1357              		.cfi_offset 11, -8
 1358              		.cfi_offset 14, -4
 1359 0004 E7B0     		sub	sp, sp, #412
 1360              	.LCFI19:
 1361              		.cfi_def_cfa_offset 448
 378:BSP/display.c ****     BSP_RTC_DateTime_t dt;
 1362              		.loc 1 378 5 view .LVU323
 379:BSP/display.c ****     char buf[100];
 1363              		.loc 1 379 5 view .LVU324
 380:BSP/display.c ****     float temp;
 1364              		.loc 1 380 5 view .LVU325
 381:BSP/display.c ****     static uint32_t s_scrollTick = 0;
 1365              		.loc 1 381 5 view .LVU326
 382:BSP/display.c **** 
 383:BSP/display.c ****     BSP_RTC_GetDateTime(&dt);
 1366              		.loc 1 383 5 view .LVU327
 1367 0006 64A8     		add	r0, sp, #400
 1368 0008 FFF7FEFF 		bl	BSP_RTC_GetDateTime
 1369              	.LVL112:
 384:BSP/display.c ****     temp = g_cachedTemp;  /* 异步缓存, 不阻塞 */
 1370              		.loc 1 384 5 view .LVU328
 1371              		.loc 1 384 10 is_stmt 0 view .LVU329
 1372 000c A54B     		ldr	r3, .L153
 1373 000e 1E68     		ldr	r6, [r3]	@ float
 1374              	.LVL113:
 385:BSP/display.c **** 
 386:BSP/display.c ****     GUI_Clear();
 1375              		.loc 1 386 5 is_stmt 1 view .LVU330
 1376 0010 FFF7FEFF 		bl	GUI_Clear
 1377              	.LVL114:
 387:BSP/display.c ****     GUI_SetColor(GUI_COLOR_WHITE);
 1378              		.loc 1 387 5 view .LVU331
 1379 0014 0120     		movs	r0, #1
 1380 0016 FFF7FEFF 		bl	GUI_SetColor
 1381              	.LVL115:
 388:BSP/display.c **** 
 389:BSP/display.c ****     /* ===== 第一行: 日期信息 (16px, 滚动) ===== */
 390:BSP/display.c ****     GUI_SetFont((GUI_FONT *)&GUI_FontHZ_SimSun_16);
ARM GAS  C:\Users\24120\AppData\Local\Temp\cciaFKJB.s 			page 36


 1382              		.loc 1 390 5 view .LVU332
 1383 001a A348     		ldr	r0, .L153+4
 1384 001c FFF7FEFF 		bl	GUI_SetFont
 1385              	.LVL116:
 1386              	.LBB7:
 391:BSP/display.c **** 
 392:BSP/display.c ****     {
 393:BSP/display.c ****         snprintf(buf, sizeof(buf),
 1387              		.loc 1 393 9 view .LVU333
 394:BSP/display.c ****                  "%04d\xe5\xb9\xb4%02d\xe6\x9c\x88%02d\xe6\x97\xa5 %s "
 395:BSP/display.c ****                  "\xe8\xae\xbe\xe5\xa4\x87:%03d "
 396:BSP/display.c ****                  "\xe6\xa8\xa1\xe5\xbc\x8f:%s",
 397:BSP/display.c ****                  dt.year, dt.month, dt.day, s_weekdays_cn[dt.weekday],
 1388              		.loc 1 397 29 is_stmt 0 view .LVU334
 1389 0020 9DF89221 		ldrb	r2, [sp, #402]	@ zero_extendqisi2
 1390              		.loc 1 397 39 view .LVU335
 1391 0024 9DF89311 		ldrb	r1, [sp, #403]	@ zero_extendqisi2
 1392              		.loc 1 397 61 view .LVU336
 1393 0028 9DF89401 		ldrb	r0, [sp, #404]	@ zero_extendqisi2
 398:BSP/display.c ****                  s_adminCfg.deviceId,
 1394              		.loc 1 398 28 view .LVU337
 1395 002c 9F4B     		ldr	r3, .L153+8
 1396 002e 1C88     		ldrh	r4, [r3]
 399:BSP/display.c ****                  s_modeNames[s_adminCfg.attendMode]);
 1397              		.loc 1 399 40 view .LVU338
 1398 0030 9F78     		ldrb	r7, [r3, #2]	@ zero_extendqisi2
 393:BSP/display.c ****                  "%04d\xe5\xb9\xb4%02d\xe6\x9c\x88%02d\xe6\x97\xa5 %s "
 1399              		.loc 1 393 9 view .LVU339
 1400 0032 4BAD     		add	r5, sp, #300
 1401 0034 9E4B     		ldr	r3, .L153+12
 1402 0036 53F82730 		ldr	r3, [r3, r7, lsl #2]
 1403 003a 0493     		str	r3, [sp, #16]
 1404 003c 0394     		str	r4, [sp, #12]
 1405 003e 9D4B     		ldr	r3, .L153+16
 1406 0040 53F82030 		ldr	r3, [r3, r0, lsl #2]
 1407 0044 0293     		str	r3, [sp, #8]
 1408 0046 0191     		str	r1, [sp, #4]
 1409 0048 0092     		str	r2, [sp]
 1410 004a BDF89031 		ldrh	r3, [sp, #400]
 1411 004e 9A4A     		ldr	r2, .L153+20
 1412 0050 6421     		movs	r1, #100
 1413 0052 2846     		mov	r0, r5
 1414 0054 FFF7FEFF 		bl	snprintf
 1415              	.LVL117:
 400:BSP/display.c **** 
 401:BSP/display.c ****         uint8_t  dBL[64], dPW[64];
 1416              		.loc 1 401 9 is_stmt 1 view .LVU340
 402:BSP/display.c ****         uint8_t  dCnt;
 1417              		.loc 1 402 9 view .LVU341
 403:BSP/display.c ****         uint16_t dTW;
 1418              		.loc 1 403 9 view .LVU342
 404:BSP/display.c ****         computeCharWidths(buf, dBL, dPW, &dCnt, &dTW, 64);
 1419              		.loc 1 404 9 view .LVU343
 1420 0058 4023     		movs	r3, #64
 1421 005a 0193     		str	r3, [sp, #4]
 1422 005c 0DF12A04 		add	r4, sp, #42
 1423 0060 0094     		str	r4, [sp]
ARM GAS  C:\Users\24120\AppData\Local\Temp\cciaFKJB.s 			page 37


 1424 0062 0DF12903 		add	r3, sp, #41
 1425 0066 1BAA     		add	r2, sp, #108
 1426 0068 0BA9     		add	r1, sp, #44
 1427 006a 2846     		mov	r0, r5
 1428 006c FFF7FEFF 		bl	computeCharWidths
 1429              	.LVL118:
 405:BSP/display.c ****         int datePixelW = (int)dTW;
 1430              		.loc 1 405 9 view .LVU344
 1431              		.loc 1 405 26 is_stmt 0 view .LVU345
 1432 0070 BDF82A50 		ldrh	r5, [sp, #42]
 1433              	.LVL119:
 406:BSP/display.c ****         if (datePixelW <= 0) datePixelW = 128;
 1434              		.loc 1 406 9 is_stmt 1 view .LVU346
 1435              		.loc 1 406 12 is_stmt 0 view .LVU347
 1436 0074 002D     		cmp	r5, #0
 1437 0076 41D0     		beq	.L146
 1438              	.LVL120:
 1439              	.L116:
 407:BSP/display.c **** 
 408:BSP/display.c ****         uint32_t now = osKernelGetTickCount();
 1440              		.loc 1 408 9 is_stmt 1 view .LVU348
 1441              		.loc 1 408 24 is_stmt 0 view .LVU349
 1442 0078 FFF7FEFF 		bl	osKernelGetTickCount
 1443              	.LVL121:
 409:BSP/display.c ****         if (s_scrollTick == 0) s_scrollTick = now;
 1444              		.loc 1 409 9 is_stmt 1 view .LVU350
 1445              		.loc 1 409 26 is_stmt 0 view .LVU351
 1446 007c 8F4B     		ldr	r3, .L153+24
 1447 007e 1B68     		ldr	r3, [r3]
 1448              		.loc 1 409 12 view .LVU352
 1449 0080 0BB9     		cbnz	r3, .L117
 1450              		.loc 1 409 32 is_stmt 1 discriminator 1 view .LVU353
 1451              		.loc 1 409 45 is_stmt 0 discriminator 1 view .LVU354
 1452 0082 8E4B     		ldr	r3, .L153+24
 1453 0084 1860     		str	r0, [r3]
 1454              	.L117:
 410:BSP/display.c **** 
 411:BSP/display.c ****         if (datePixelW <= 128) {
 1455              		.loc 1 411 9 is_stmt 1 view .LVU355
 1456              		.loc 1 411 12 is_stmt 0 view .LVU356
 1457 0086 802D     		cmp	r5, #128
 1458 0088 3ADC     		bgt	.L118
 412:BSP/display.c ****             GUI_DispStringHCenterAt(buf, 64, 0);
 1459              		.loc 1 412 13 is_stmt 1 view .LVU357
 1460 008a 0022     		movs	r2, #0
 1461 008c 4021     		movs	r1, #64
 1462 008e 4BA8     		add	r0, sp, #300
 1463              	.LVL122:
 1464              		.loc 1 412 13 is_stmt 0 view .LVU358
 1465 0090 FFF7FEFF 		bl	GUI_DispStringHCenterAt
 1466              	.LVL123:
 1467              	.L119:
 1468              	.LBE7:
 413:BSP/display.c ****         } else {
 414:BSP/display.c ****             int cycleW = datePixelW + 16;
 415:BSP/display.c ****             int scrollOff = (int)(((now - s_scrollTick) / DISP_SCROLL_MS_PER_PX)
 416:BSP/display.c ****                                   % (uint32_t)cycleW);
ARM GAS  C:\Users\24120\AppData\Local\Temp\cciaFKJB.s 			page 38


 417:BSP/display.c ****             renderScrollLine(buf, (int)strlen(buf), dBL, dPW, dCnt,
 418:BSP/display.c ****                              datePixelW, scrollOff, 0);
 419:BSP/display.c ****         }
 420:BSP/display.c ****     }
 421:BSP/display.c **** 
 422:BSP/display.c ****     /* ===== 第二行: 时间 (32px 大字居中) ===== */
 423:BSP/display.c ****     GUI_SetFont((GUI_FONT *)&GUI_FontHZ_SimSun_32);
 1469              		.loc 1 423 5 is_stmt 1 view .LVU359
 1470 0094 8A48     		ldr	r0, .L153+28
 1471 0096 FFF7FEFF 		bl	GUI_SetFont
 1472              	.LVL124:
 424:BSP/display.c ****     sprintf(buf, "%02d:%02d:%02d", dt.hour, dt.minute, dt.second);
 1473              		.loc 1 424 5 view .LVU360
 1474              		.loc 1 424 58 is_stmt 0 view .LVU361
 1475 009a 9DF89731 		ldrb	r3, [sp, #407]	@ zero_extendqisi2
 1476              		.loc 1 424 5 view .LVU362
 1477 009e 4BAC     		add	r4, sp, #300
 1478 00a0 0093     		str	r3, [sp]
 1479 00a2 9DF89631 		ldrb	r3, [sp, #406]	@ zero_extendqisi2
 1480 00a6 9DF89521 		ldrb	r2, [sp, #405]	@ zero_extendqisi2
 1481 00aa 8649     		ldr	r1, .L153+32
 1482 00ac 2046     		mov	r0, r4
 1483 00ae FFF7FEFF 		bl	sprintf
 1484              	.LVL125:
 425:BSP/display.c ****     GUI_DispStringHCenterAt(buf, 64, 16);
 1485              		.loc 1 425 5 is_stmt 1 view .LVU363
 1486 00b2 1022     		movs	r2, #16
 1487 00b4 4021     		movs	r1, #64
 1488 00b6 2046     		mov	r0, r4
 1489 00b8 FFF7FEFF 		bl	GUI_DispStringHCenterAt
 1490              	.LVL126:
 426:BSP/display.c **** 
 427:BSP/display.c ****     /* ===== 第三行: 天气滚动 + 本地温度 ===== */
 428:BSP/display.c ****     GUI_SetFont((GUI_FONT *)&GUI_FontHZ_SimSun_16);
 1491              		.loc 1 428 5 view .LVU364
 1492 00bc 7A48     		ldr	r0, .L153+4
 1493 00be FFF7FEFF 		bl	GUI_SetFont
 1494              	.LVL127:
 429:BSP/display.c **** 
 430:BSP/display.c ****     if (s_weatherCache.ready && s_weatherCache.line[0] != '\0') {
 1495              		.loc 1 430 5 view .LVU365
 1496              		.loc 1 430 23 is_stmt 0 view .LVU366
 1497 00c2 814B     		ldr	r3, .L153+36
 1498 00c4 93F80431 		ldrb	r3, [r3, #260]	@ zero_extendqisi2
 1499              		.loc 1 430 8 view .LVU367
 1500 00c8 1BB1     		cbz	r3, .L120
 1501              		.loc 1 430 52 discriminator 1 view .LVU368
 1502 00ca 7F4B     		ldr	r3, .L153+36
 1503 00cc 1B78     		ldrb	r3, [r3]	@ zero_extendqisi2
 1504              		.loc 1 430 30 discriminator 1 view .LVU369
 1505 00ce 002B     		cmp	r3, #0
 1506 00d0 36D1     		bne	.L147
 1507              	.L120:
 431:BSP/display.c ****         uint32_t now = osKernelGetTickCount();
 432:BSP/display.c ****         if (s_scrollTick == 0) s_scrollTick = now;
 433:BSP/display.c **** 
 434:BSP/display.c ****         int textPixelW = (int)s_weatherCache.totalPixelW;
ARM GAS  C:\Users\24120\AppData\Local\Temp\cciaFKJB.s 			page 39


 435:BSP/display.c ****         if (textPixelW <= 0) textPixelW = 128;
 436:BSP/display.c **** 
 437:BSP/display.c ****         /* 温度后缀: "本地温度：25.5℃" (5CJK×16+4ASCII×8+℃×16=128px) */
 438:BSP/display.c ****         char tempStr[48];
 439:BSP/display.c ****         snprintf(tempStr, sizeof(tempStr),
 440:BSP/display.c ****                  "\xe6\x9c\xac\xe5\x9c\xb0\xe6\xb8\xa9\xe5\xba\xa6\xef\xbc\x9a"
 441:BSP/display.c ****                  "%.1f\xe2\x84\x83", temp);
 442:BSP/display.c **** #define TEMP_PIXEL_W  128
 443:BSP/display.c **** #define SCROLL_GAP    16
 444:BSP/display.c **** 
 445:BSP/display.c ****         int cycleW = textPixelW + SCROLL_GAP + TEMP_PIXEL_W + SCROLL_GAP;
 446:BSP/display.c ****         if (cycleW <= 0) cycleW = 128;
 447:BSP/display.c **** 
 448:BSP/display.c ****         int scrollOff = (int)(((now - s_scrollTick) / DISP_SCROLL_MS_PER_PX)
 449:BSP/display.c ****                               % (uint32_t)cycleW);
 450:BSP/display.c **** 
 451:BSP/display.c ****         /* 总宽不超屏 → 静态居中 */
 452:BSP/display.c ****         if (textPixelW + SCROLL_GAP + TEMP_PIXEL_W <= 128) {
 453:BSP/display.c ****             char combined[192];
 454:BSP/display.c ****             snprintf(combined, sizeof(combined), "%s  %s",
 455:BSP/display.c ****                      s_weatherCache.line, tempStr);
 456:BSP/display.c ****             GUI_DispStringHCenterAt(combined, 64, 48);
 457:BSP/display.c ****         } else {
 458:BSP/display.c ****             /* 查找起始字符 & 子像素偏移 */
 459:BSP/display.c ****             int charIdx = 0, byteOff = 0, accumW = 0;
 460:BSP/display.c ****             while (charIdx < s_weatherCache.charCount &&
 461:BSP/display.c ****                    accumW + s_weatherCache.charPixelW[charIdx] <= scrollOff) {
 462:BSP/display.c ****                 accumW  += s_weatherCache.charPixelW[charIdx];
 463:BSP/display.c ****                 byteOff += s_weatherCache.charByteLen[charIdx];
 464:BSP/display.c ****                 charIdx++;
 465:BSP/display.c ****             }
 466:BSP/display.c ****             int subOff = scrollOff - accumW;
 467:BSP/display.c ****             if (subOff < 0) subOff = 0;
 468:BSP/display.c **** 
 469:BSP/display.c ****             /* 拼接: 天气文本 → 间隔 → 温度 → 间隔 → 循环 */
 470:BSP/display.c ****             static char dispBuf[200];
 471:BSP/display.c ****             int  bufPos    = 0;
 472:BSP/display.c ****             int  curChar   = charIdx;
 473:BSP/display.c ****             int  curByte   = byteOff;
 474:BSP/display.c ****             int  renderedW = 0;
 475:BSP/display.c ****             int  needW     = 128 + subOff;
 476:BSP/display.c ****             int  phase     = 0;   /* 0=天气 1=间隔 2=温度 3=间隔 */
 477:BSP/display.c ****             int  tempSent  = 0;
 478:BSP/display.c **** 
 479:BSP/display.c ****             while (renderedW < needW && bufPos < (int)sizeof(dispBuf) - 8) {
 480:BSP/display.c ****                 if (phase == 0) {
 481:BSP/display.c ****                     if (curChar >= s_weatherCache.charCount) {
 482:BSP/display.c ****                         phase = 1; continue;
 483:BSP/display.c ****                     }
 484:BSP/display.c ****                     uint8_t blen = s_weatherCache.charByteLen[curChar];
 485:BSP/display.c ****                     if (bufPos + blen >= (int)sizeof(dispBuf) - 1) break;
 486:BSP/display.c ****                     memcpy(dispBuf + bufPos,
 487:BSP/display.c ****                            s_weatherCache.line + curByte, blen);
 488:BSP/display.c ****                     bufPos    += blen;
 489:BSP/display.c ****                     renderedW += s_weatherCache.charPixelW[curChar];
 490:BSP/display.c ****                     curByte   += blen;
 491:BSP/display.c ****                     curChar++;
ARM GAS  C:\Users\24120\AppData\Local\Temp\cciaFKJB.s 			page 40


 492:BSP/display.c ****                 } else if (phase == 1) {
 493:BSP/display.c ****                     dispBuf[bufPos++] = ' ';
 494:BSP/display.c ****                     dispBuf[bufPos++] = ' ';
 495:BSP/display.c ****                     renderedW += SCROLL_GAP;
 496:BSP/display.c ****                     phase = 2;
 497:BSP/display.c ****                 } else if (phase == 2) {
 498:BSP/display.c ****                     if (!tempSent) {
 499:BSP/display.c ****                         int tlen = (int)strlen(tempStr);
 500:BSP/display.c ****                         if (bufPos + tlen < (int)sizeof(dispBuf) - 1) {
 501:BSP/display.c ****                             memcpy(dispBuf + bufPos, tempStr, tlen);
 502:BSP/display.c ****                             bufPos    += tlen;
 503:BSP/display.c ****                             renderedW += TEMP_PIXEL_W;
 504:BSP/display.c ****                         }
 505:BSP/display.c ****                         tempSent = 1;
 506:BSP/display.c ****                     }
 507:BSP/display.c ****                     phase = 3;
 508:BSP/display.c ****                 } else {
 509:BSP/display.c ****                     dispBuf[bufPos++] = ' ';
 510:BSP/display.c ****                     dispBuf[bufPos++] = ' ';
 511:BSP/display.c ****                     renderedW += SCROLL_GAP;
 512:BSP/display.c ****                     curChar = 0; curByte = 0;
 513:BSP/display.c ****                     phase   = 0;
 514:BSP/display.c ****                 }
 515:BSP/display.c ****             }
 516:BSP/display.c ****             dispBuf[bufPos] = '\0';
 517:BSP/display.c ****             GUI_DispStringAt(dispBuf, -subOff, 48);
 518:BSP/display.c ****         }
 519:BSP/display.c ****     } else {
 520:BSP/display.c ****         /* 天气未就绪: 仅显示温度 */
 521:BSP/display.c ****         snprintf(buf, sizeof(buf), "\xe6\x9c\xac\xe5\x9c\xb0\xe6\xb8\xa9\xe5\xba\xa6\xef\xbc\x9a%.1
 1508              		.loc 1 521 9 is_stmt 1 view .LVU370
 1509 00d2 4BAC     		add	r4, sp, #300
 1510 00d4 3046     		mov	r0, r6	@ float
 1511 00d6 FFF7FEFF 		bl	__aeabi_f2d
 1512              	.LVL128:
 1513 00da CDE90001 		strd	r0, [sp]
 1514 00de 7B4A     		ldr	r2, .L153+40
 1515 00e0 6421     		movs	r1, #100
 1516 00e2 2046     		mov	r0, r4
 1517 00e4 FFF7FEFF 		bl	snprintf
 1518              	.LVL129:
 522:BSP/display.c ****         GUI_DispStringHCenterAt(buf, 64, 48);
 1519              		.loc 1 522 9 view .LVU371
 1520 00e8 3022     		movs	r2, #48
 1521 00ea 4021     		movs	r1, #64
 1522 00ec 2046     		mov	r0, r4
 1523 00ee FFF7FEFF 		bl	GUI_DispStringHCenterAt
 1524              	.LVL130:
 1525              	.L136:
 523:BSP/display.c ****     }
 524:BSP/display.c **** 
 525:BSP/display.c ****     GUI_Update();
 1526              		.loc 1 525 5 view .LVU372
 1527 00f2 FFF7FEFF 		bl	GUI_Update
 1528              	.LVL131:
 526:BSP/display.c **** }
 1529              		.loc 1 526 1 is_stmt 0 view .LVU373
ARM GAS  C:\Users\24120\AppData\Local\Temp\cciaFKJB.s 			page 41


 1530 00f6 67B0     		add	sp, sp, #412
 1531              	.LCFI20:
 1532              		.cfi_remember_state
 1533              		.cfi_def_cfa_offset 36
 1534              		@ sp needed
 1535 00f8 BDE8F08F 		pop	{r4, r5, r6, r7, r8, r9, r10, fp, pc}
 1536              	.LVL132:
 1537              	.L146:
 1538              	.LCFI21:
 1539              		.cfi_restore_state
 1540              	.LBB9:
 406:BSP/display.c **** 
 1541              		.loc 1 406 41 discriminator 1 view .LVU374
 1542 00fc 8025     		movs	r5, #128
 1543              	.LVL133:
 406:BSP/display.c **** 
 1544              		.loc 1 406 41 discriminator 1 view .LVU375
 1545 00fe BBE7     		b	.L116
 1546              	.LVL134:
 1547              	.L118:
 1548              	.LBB8:
 414:BSP/display.c ****             int scrollOff = (int)(((now - s_scrollTick) / DISP_SCROLL_MS_PER_PX)
 1549              		.loc 1 414 13 is_stmt 1 view .LVU376
 414:BSP/display.c ****             int scrollOff = (int)(((now - s_scrollTick) / DISP_SCROLL_MS_PER_PX)
 1550              		.loc 1 414 17 is_stmt 0 view .LVU377
 1551 0100 05F11003 		add	r3, r5, #16
 1552              	.LVL135:
 415:BSP/display.c ****                                   % (uint32_t)cycleW);
 1553              		.loc 1 415 13 is_stmt 1 view .LVU378
 415:BSP/display.c ****                                   % (uint32_t)cycleW);
 1554              		.loc 1 415 41 is_stmt 0 view .LVU379
 1555 0104 6D4A     		ldr	r2, .L153+24
 1556 0106 1268     		ldr	r2, [r2]
 1557 0108 801A     		subs	r0, r0, r2
 1558              	.LVL136:
 415:BSP/display.c ****                                   % (uint32_t)cycleW);
 1559              		.loc 1 415 57 view .LVU380
 1560 010a 4008     		lsrs	r0, r0, #1
 1561 010c 704A     		ldr	r2, .L153+44
 1562 010e A2FB0020 		umull	r2, r0, r2, r0
 1563 0112 0009     		lsrs	r0, r0, #4
 416:BSP/display.c ****             renderScrollLine(buf, (int)strlen(buf), dBL, dPW, dCnt,
 1564              		.loc 1 416 35 view .LVU381
 1565 0114 B0FBF3F2 		udiv	r2, r0, r3
 1566 0118 03FB1204 		mls	r4, r3, r2, r0
 1567              	.LVL137:
 417:BSP/display.c ****                              datePixelW, scrollOff, 0);
 1568              		.loc 1 417 13 is_stmt 1 view .LVU382
 417:BSP/display.c ****                              datePixelW, scrollOff, 0);
 1569              		.loc 1 417 40 is_stmt 0 view .LVU383
 1570 011c 4BAF     		add	r7, sp, #300
 1571 011e 3846     		mov	r0, r7
 1572 0120 FFF7FEFF 		bl	strlen
 1573              	.LVL138:
 417:BSP/display.c ****                              datePixelW, scrollOff, 0);
 1574              		.loc 1 417 40 view .LVU384
 1575 0124 0146     		mov	r1, r0
ARM GAS  C:\Users\24120\AppData\Local\Temp\cciaFKJB.s 			page 42


 417:BSP/display.c ****                              datePixelW, scrollOff, 0);
 1576              		.loc 1 417 13 discriminator 1 view .LVU385
 1577 0126 0023     		movs	r3, #0
 1578 0128 0393     		str	r3, [sp, #12]
 1579 012a 0294     		str	r4, [sp, #8]
 1580 012c 0195     		str	r5, [sp, #4]
 1581 012e 9DF82930 		ldrb	r3, [sp, #41]	@ zero_extendqisi2
 1582 0132 0093     		str	r3, [sp]
 1583 0134 1BAB     		add	r3, sp, #108
 1584 0136 0BAA     		add	r2, sp, #44
 1585 0138 3846     		mov	r0, r7
 1586 013a FFF7FEFF 		bl	renderScrollLine
 1587              	.LVL139:
 1588 013e A9E7     		b	.L119
 1589              	.LVL140:
 1590              	.L147:
 417:BSP/display.c ****                              datePixelW, scrollOff, 0);
 1591              		.loc 1 417 13 discriminator 1 view .LVU386
 1592              	.LBE8:
 1593              	.LBE9:
 1594              	.LBB10:
 431:BSP/display.c ****         if (s_scrollTick == 0) s_scrollTick = now;
 1595              		.loc 1 431 9 is_stmt 1 view .LVU387
 431:BSP/display.c ****         if (s_scrollTick == 0) s_scrollTick = now;
 1596              		.loc 1 431 24 is_stmt 0 view .LVU388
 1597 0140 FFF7FEFF 		bl	osKernelGetTickCount
 1598              	.LVL141:
 1599 0144 0446     		mov	r4, r0
 1600              	.LVL142:
 432:BSP/display.c **** 
 1601              		.loc 1 432 9 is_stmt 1 view .LVU389
 432:BSP/display.c **** 
 1602              		.loc 1 432 26 is_stmt 0 view .LVU390
 1603 0146 5D4B     		ldr	r3, .L153+24
 1604 0148 1B68     		ldr	r3, [r3]
 432:BSP/display.c **** 
 1605              		.loc 1 432 12 view .LVU391
 1606 014a 0BB9     		cbnz	r3, .L121
 432:BSP/display.c **** 
 1607              		.loc 1 432 32 is_stmt 1 discriminator 1 view .LVU392
 432:BSP/display.c **** 
 1608              		.loc 1 432 45 is_stmt 0 discriminator 1 view .LVU393
 1609 014c 5B4B     		ldr	r3, .L153+24
 1610 014e 1860     		str	r0, [r3]
 1611              	.L121:
 434:BSP/display.c ****         if (textPixelW <= 0) textPixelW = 128;
 1612              		.loc 1 434 9 is_stmt 1 view .LVU394
 434:BSP/display.c ****         if (textPixelW <= 0) textPixelW = 128;
 1613              		.loc 1 434 45 is_stmt 0 view .LVU395
 1614 0150 5D4B     		ldr	r3, .L153+36
 1615 0152 B3F80251 		ldrh	r5, [r3, #258]
 1616              	.LVL143:
 435:BSP/display.c **** 
 1617              		.loc 1 435 9 is_stmt 1 view .LVU396
 435:BSP/display.c **** 
 1618              		.loc 1 435 12 is_stmt 0 view .LVU397
 1619 0156 D5B1     		cbz	r5, .L148
ARM GAS  C:\Users\24120\AppData\Local\Temp\cciaFKJB.s 			page 43


 1620              	.LVL144:
 1621              	.L122:
 438:BSP/display.c ****         snprintf(tempStr, sizeof(tempStr),
 1622              		.loc 1 438 9 is_stmt 1 view .LVU398
 439:BSP/display.c ****                  "\xe6\x9c\xac\xe5\x9c\xb0\xe6\xb8\xa9\xe5\xba\xa6\xef\xbc\x9a"
 1623              		.loc 1 439 9 view .LVU399
 1624 0158 3046     		mov	r0, r6	@ float
 1625              	.LVL145:
 439:BSP/display.c ****                  "\xe6\x9c\xac\xe5\x9c\xb0\xe6\xb8\xa9\xe5\xba\xa6\xef\xbc\x9a"
 1626              		.loc 1 439 9 is_stmt 0 view .LVU400
 1627 015a FFF7FEFF 		bl	__aeabi_f2d
 1628              	.LVL146:
 1629 015e CDE90001 		strd	r0, [sp]
 1630 0162 5A4A     		ldr	r2, .L153+40
 1631 0164 3021     		movs	r1, #48
 1632 0166 0BA8     		add	r0, sp, #44
 1633 0168 FFF7FEFF 		bl	snprintf
 1634              	.LVL147:
 445:BSP/display.c ****         if (cycleW <= 0) cycleW = 128;
 1635              		.loc 1 445 9 is_stmt 1 view .LVU401
 446:BSP/display.c **** 
 1636              		.loc 1 446 9 view .LVU402
 446:BSP/display.c **** 
 1637              		.loc 1 446 12 is_stmt 0 view .LVU403
 1638 016c A035     		adds	r5, r5, #160
 1639              	.LVL148:
 448:BSP/display.c ****                               % (uint32_t)cycleW);
 1640              		.loc 1 448 9 is_stmt 1 view .LVU404
 448:BSP/display.c ****                               % (uint32_t)cycleW);
 1641              		.loc 1 448 37 is_stmt 0 view .LVU405
 1642 016e 534B     		ldr	r3, .L153+24
 1643 0170 1968     		ldr	r1, [r3]
 1644 0172 611A     		subs	r1, r4, r1
 448:BSP/display.c ****                               % (uint32_t)cycleW);
 1645              		.loc 1 448 53 view .LVU406
 1646 0174 4908     		lsrs	r1, r1, #1
 1647 0176 564B     		ldr	r3, .L153+44
 1648 0178 A3FB0131 		umull	r3, r1, r3, r1
 1649 017c 0909     		lsrs	r1, r1, #4
 449:BSP/display.c **** 
 1650              		.loc 1 449 31 view .LVU407
 1651 017e B1FBF5F3 		udiv	r3, r1, r5
 1652 0182 05FB1311 		mls	r1, r5, r3, r1
 1653              	.LVL149:
 452:BSP/display.c ****             char combined[192];
 1654              		.loc 1 452 9 is_stmt 1 view .LVU408
 1655              	.LBB11:
 459:BSP/display.c ****             while (charIdx < s_weatherCache.charCount &&
 1656              		.loc 1 459 43 is_stmt 0 view .LVU409
 1657 0186 0022     		movs	r2, #0
 459:BSP/display.c ****             while (charIdx < s_weatherCache.charCount &&
 1658              		.loc 1 459 30 view .LVU410
 1659 0188 1746     		mov	r7, r2
 459:BSP/display.c ****             while (charIdx < s_weatherCache.charCount &&
 1660              		.loc 1 459 17 view .LVU411
 1661 018a 1446     		mov	r4, r2
 1662              	.LVL150:
ARM GAS  C:\Users\24120\AppData\Local\Temp\cciaFKJB.s 			page 44


 459:BSP/display.c ****             while (charIdx < s_weatherCache.charCount &&
 1663              		.loc 1 459 17 view .LVU412
 1664 018c 08E0     		b	.L124
 1665              	.LVL151:
 1666              	.L148:
 459:BSP/display.c ****             while (charIdx < s_weatherCache.charCount &&
 1667              		.loc 1 459 17 view .LVU413
 1668              	.LBE11:
 435:BSP/display.c **** 
 1669              		.loc 1 435 41 discriminator 1 view .LVU414
 1670 018e 8025     		movs	r5, #128
 1671              	.LVL152:
 435:BSP/display.c **** 
 1672              		.loc 1 435 41 discriminator 1 view .LVU415
 1673 0190 E2E7     		b	.L122
 1674              	.LVL153:
 1675              	.L127:
 1676              	.LBB16:
 462:BSP/display.c ****                 byteOff += s_weatherCache.charByteLen[charIdx];
 1677              		.loc 1 462 17 is_stmt 1 view .LVU416
 463:BSP/display.c ****                 charIdx++;
 1678              		.loc 1 463 17 view .LVU417
 463:BSP/display.c ****                 charIdx++;
 1679              		.loc 1 463 54 is_stmt 0 view .LVU418
 1680 0192 4D4A     		ldr	r2, .L153+36
 1681 0194 2244     		add	r2, r2, r4
 1682 0196 92F88020 		ldrb	r2, [r2, #128]	@ zero_extendqisi2
 463:BSP/display.c ****                 charIdx++;
 1683              		.loc 1 463 25 view .LVU419
 1684 019a 1744     		add	r7, r7, r2
 1685              	.LVL154:
 464:BSP/display.c ****             }
 1686              		.loc 1 464 17 is_stmt 1 view .LVU420
 464:BSP/display.c ****             }
 1687              		.loc 1 464 24 is_stmt 0 view .LVU421
 1688 019c 0134     		adds	r4, r4, #1
 1689              	.LVL155:
 462:BSP/display.c ****                 byteOff += s_weatherCache.charByteLen[charIdx];
 1690              		.loc 1 462 25 view .LVU422
 1691 019e 1A46     		mov	r2, r3
 1692              	.LVL156:
 1693              	.L124:
 460:BSP/display.c ****                    accumW + s_weatherCache.charPixelW[charIdx] <= scrollOff) {
 1694              		.loc 1 460 55 is_stmt 1 view .LVU423
 460:BSP/display.c ****                    accumW + s_weatherCache.charPixelW[charIdx] <= scrollOff) {
 1695              		.loc 1 460 44 is_stmt 0 view .LVU424
 1696 01a0 494B     		ldr	r3, .L153+36
 1697 01a2 93F80031 		ldrb	r3, [r3, #256]	@ zero_extendqisi2
 460:BSP/display.c ****                    accumW + s_weatherCache.charPixelW[charIdx] <= scrollOff) {
 1698              		.loc 1 460 55 view .LVU425
 1699 01a6 A342     		cmp	r3, r4
 1700 01a8 06DD     		ble	.L126
 461:BSP/display.c ****                 accumW  += s_weatherCache.charPixelW[charIdx];
 1701              		.loc 1 461 54 view .LVU426
 1702 01aa 474B     		ldr	r3, .L153+36
 1703 01ac 2344     		add	r3, r3, r4
 1704 01ae 93F8C030 		ldrb	r3, [r3, #192]	@ zero_extendqisi2
ARM GAS  C:\Users\24120\AppData\Local\Temp\cciaFKJB.s 			page 45


 461:BSP/display.c ****                 accumW  += s_weatherCache.charPixelW[charIdx];
 1705              		.loc 1 461 27 view .LVU427
 1706 01b2 1344     		add	r3, r3, r2
 460:BSP/display.c ****                    accumW + s_weatherCache.charPixelW[charIdx] <= scrollOff) {
 1707              		.loc 1 460 55 discriminator 1 view .LVU428
 1708 01b4 8B42     		cmp	r3, r1
 1709 01b6 ECDD     		ble	.L127
 1710              	.L126:
 466:BSP/display.c ****             if (subOff < 0) subOff = 0;
 1711              		.loc 1 466 13 is_stmt 1 view .LVU429
 1712              	.LVL157:
 467:BSP/display.c **** 
 1713              		.loc 1 467 13 view .LVU430
 467:BSP/display.c **** 
 1714              		.loc 1 467 16 is_stmt 0 view .LVU431
 1715 01b8 B1EB020A 		subs	r10, r1, r2
 1716              	.LVL158:
 467:BSP/display.c **** 
 1717              		.loc 1 467 16 view .LVU432
 1718 01bc 09D4     		bmi	.L149
 1719              	.LVL159:
 1720              	.L128:
 470:BSP/display.c ****             int  bufPos    = 0;
 1721              		.loc 1 470 13 is_stmt 1 view .LVU433
 471:BSP/display.c ****             int  curChar   = charIdx;
 1722              		.loc 1 471 13 view .LVU434
 472:BSP/display.c ****             int  curByte   = byteOff;
 1723              		.loc 1 472 13 view .LVU435
 473:BSP/display.c ****             int  renderedW = 0;
 1724              		.loc 1 473 13 view .LVU436
 474:BSP/display.c ****             int  needW     = 128 + subOff;
 1725              		.loc 1 474 13 view .LVU437
 475:BSP/display.c ****             int  phase     = 0;   /* 0=天气 1=间隔 2=温度 3=间隔 */
 1726              		.loc 1 475 13 view .LVU438
 475:BSP/display.c ****             int  phase     = 0;   /* 0=天气 1=间隔 2=温度 3=间隔 */
 1727              		.loc 1 475 18 is_stmt 0 view .LVU439
 1728 01be 0AF1800B 		add	fp, r10, #128
 1729              	.LVL160:
 476:BSP/display.c ****             int  tempSent  = 0;
 1730              		.loc 1 476 13 is_stmt 1 view .LVU440
 477:BSP/display.c **** 
 1731              		.loc 1 477 13 view .LVU441
 479:BSP/display.c ****                 if (phase == 0) {
 1732              		.loc 1 479 13 view .LVU442
 477:BSP/display.c **** 
 1733              		.loc 1 477 18 is_stmt 0 view .LVU443
 1734 01c2 0023     		movs	r3, #0
 1735 01c4 1D46     		mov	r5, r3
 1736              	.LVL161:
 477:BSP/display.c **** 
 1737              		.loc 1 477 18 view .LVU444
 1738 01c6 0893     		str	r3, [sp, #32]
 476:BSP/display.c ****             int  tempSent  = 0;
 1739              		.loc 1 476 18 view .LVU445
 1740 01c8 1E46     		mov	r6, r3
 1741              	.LVL162:
 474:BSP/display.c ****             int  needW     = 128 + subOff;
ARM GAS  C:\Users\24120\AppData\Local\Temp\cciaFKJB.s 			page 46


 1742              		.loc 1 474 18 view .LVU446
 1743 01ca 9846     		mov	r8, r3
 1744 01cc CDF824A0 		str	r10, [sp, #36]
 479:BSP/display.c ****                 if (phase == 0) {
 1745              		.loc 1 479 19 view .LVU447
 1746 01d0 11E0     		b	.L129
 1747              	.LVL163:
 1748              	.L149:
 467:BSP/display.c **** 
 1749              		.loc 1 467 36 discriminator 1 view .LVU448
 1750 01d2 4FF0000A 		mov	r10, #0
 1751              	.LVL164:
 467:BSP/display.c **** 
 1752              		.loc 1 467 36 discriminator 1 view .LVU449
 1753 01d6 F2E7     		b	.L128
 1754              	.LVL165:
 1755              	.L130:
 492:BSP/display.c ****                     dispBuf[bufPos++] = ' ';
 1756              		.loc 1 492 24 is_stmt 1 view .LVU450
 492:BSP/display.c ****                     dispBuf[bufPos++] = ' ';
 1757              		.loc 1 492 27 is_stmt 0 view .LVU451
 1758 01d8 012E     		cmp	r6, #1
 1759 01da 31D0     		beq	.L150
 497:BSP/display.c ****                     if (!tempSent) {
 1760              		.loc 1 497 24 is_stmt 1 view .LVU452
 497:BSP/display.c ****                     if (!tempSent) {
 1761              		.loc 1 497 27 is_stmt 0 view .LVU453
 1762 01dc 022E     		cmp	r6, #2
 1763 01de 39D0     		beq	.L151
 509:BSP/display.c ****                     dispBuf[bufPos++] = ' ';
 1764              		.loc 1 509 21 is_stmt 1 view .LVU454
 509:BSP/display.c ****                     dispBuf[bufPos++] = ' ';
 1765              		.loc 1 509 35 is_stmt 0 view .LVU455
 1766 01e0 6B1C     		adds	r3, r5, #1
 1767              	.LVL166:
 509:BSP/display.c ****                     dispBuf[bufPos++] = ' ';
 1768              		.loc 1 509 39 view .LVU456
 1769 01e2 3C4A     		ldr	r2, .L153+48
 1770 01e4 2021     		movs	r1, #32
 1771 01e6 5155     		strb	r1, [r2, r5]
 510:BSP/display.c ****                     renderedW += SCROLL_GAP;
 1772              		.loc 1 510 21 is_stmt 1 view .LVU457
 1773              	.LVL167:
 510:BSP/display.c ****                     renderedW += SCROLL_GAP;
 1774              		.loc 1 510 39 is_stmt 0 view .LVU458
 1775 01e8 D154     		strb	r1, [r2, r3]
 1776 01ea 0235     		adds	r5, r5, #2
 1777              	.LVL168:
 511:BSP/display.c ****                     curChar = 0; curByte = 0;
 1778              		.loc 1 511 21 is_stmt 1 view .LVU459
 511:BSP/display.c ****                     curChar = 0; curByte = 0;
 1779              		.loc 1 511 31 is_stmt 0 view .LVU460
 1780 01ec 08F11008 		add	r8, r8, #16
 1781              	.LVL169:
 512:BSP/display.c ****                     phase   = 0;
 1782              		.loc 1 512 21 is_stmt 1 view .LVU461
 512:BSP/display.c ****                     phase   = 0;
ARM GAS  C:\Users\24120\AppData\Local\Temp\cciaFKJB.s 			page 47


 1783              		.loc 1 512 34 view .LVU462
 513:BSP/display.c ****                 }
 1784              		.loc 1 513 21 view .LVU463
 513:BSP/display.c ****                 }
 1785              		.loc 1 513 29 is_stmt 0 view .LVU464
 1786 01f0 0026     		movs	r6, #0
 512:BSP/display.c ****                     phase   = 0;
 1787              		.loc 1 512 42 view .LVU465
 1788 01f2 3746     		mov	r7, r6
 512:BSP/display.c ****                     phase   = 0;
 1789              		.loc 1 512 29 view .LVU466
 1790 01f4 3446     		mov	r4, r6
 1791              	.LVL170:
 1792              	.L129:
 479:BSP/display.c ****                 if (phase == 0) {
 1793              		.loc 1 479 38 is_stmt 1 view .LVU467
 1794 01f6 D845     		cmp	r8, fp
 1795 01f8 49DA     		bge	.L132
 479:BSP/display.c ****                 if (phase == 0) {
 1796              		.loc 1 479 38 is_stmt 0 discriminator 1 view .LVU468
 1797 01fa BF2D     		cmp	r5, #191
 1798 01fc 47DC     		bgt	.L132
 480:BSP/display.c ****                     if (curChar >= s_weatherCache.charCount) {
 1799              		.loc 1 480 17 is_stmt 1 view .LVU469
 480:BSP/display.c ****                     if (curChar >= s_weatherCache.charCount) {
 1800              		.loc 1 480 20 is_stmt 0 view .LVU470
 1801 01fe 002E     		cmp	r6, #0
 1802 0200 EAD1     		bne	.L130
 1803              	.LBB12:
 481:BSP/display.c ****                         phase = 1; continue;
 1804              		.loc 1 481 21 is_stmt 1 view .LVU471
 481:BSP/display.c ****                         phase = 1; continue;
 1805              		.loc 1 481 50 is_stmt 0 view .LVU472
 1806 0202 314B     		ldr	r3, .L153+36
 1807 0204 93F80031 		ldrb	r3, [r3, #256]	@ zero_extendqisi2
 481:BSP/display.c ****                         phase = 1; continue;
 1808              		.loc 1 481 24 view .LVU473
 1809 0208 A342     		cmp	r3, r4
 1810 020a 3CDD     		ble	.L142
 484:BSP/display.c ****                     if (bufPos + blen >= (int)sizeof(dispBuf) - 1) break;
 1811              		.loc 1 484 21 is_stmt 1 view .LVU474
 484:BSP/display.c ****                     if (bufPos + blen >= (int)sizeof(dispBuf) - 1) break;
 1812              		.loc 1 484 29 is_stmt 0 view .LVU475
 1813 020c 2E4B     		ldr	r3, .L153+36
 1814 020e 2344     		add	r3, r3, r4
 1815 0210 93F880A0 		ldrb	r10, [r3, #128]	@ zero_extendqisi2
 1816              	.LVL171:
 485:BSP/display.c ****                     memcpy(dispBuf + bufPos,
 1817              		.loc 1 485 21 is_stmt 1 view .LVU476
 485:BSP/display.c ****                     memcpy(dispBuf + bufPos,
 1818              		.loc 1 485 32 is_stmt 0 view .LVU477
 1819 0214 0AEB0503 		add	r3, r10, r5
 485:BSP/display.c ****                     memcpy(dispBuf + bufPos,
 1820              		.loc 1 485 24 view .LVU478
 1821 0218 0793     		str	r3, [sp, #28]
 1822 021a C62B     		cmp	r3, #198
 1823 021c 37DC     		bgt	.L132
ARM GAS  C:\Users\24120\AppData\Local\Temp\cciaFKJB.s 			page 48


 486:BSP/display.c ****                            s_weatherCache.line + curByte, blen);
 1824              		.loc 1 486 21 is_stmt 1 view .LVU479
 1825 021e DFF8A890 		ldr	r9, .L153+36
 1826 0222 5246     		mov	r2, r10
 1827 0224 09EB0701 		add	r1, r9, r7
 1828 0228 2A48     		ldr	r0, .L153+48
 1829 022a 2844     		add	r0, r0, r5
 1830 022c FFF7FEFF 		bl	memcpy
 1831              	.LVL172:
 488:BSP/display.c ****                     renderedW += s_weatherCache.charPixelW[curChar];
 1832              		.loc 1 488 21 view .LVU480
 489:BSP/display.c ****                     curByte   += blen;
 1833              		.loc 1 489 21 view .LVU481
 489:BSP/display.c ****                     curByte   += blen;
 1834              		.loc 1 489 59 is_stmt 0 view .LVU482
 1835 0230 A144     		add	r9, r9, r4
 1836 0232 99F8C030 		ldrb	r3, [r9, #192]	@ zero_extendqisi2
 489:BSP/display.c ****                     curByte   += blen;
 1837              		.loc 1 489 31 view .LVU483
 1838 0236 9844     		add	r8, r8, r3
 1839              	.LVL173:
 490:BSP/display.c ****                     curChar++;
 1840              		.loc 1 490 21 is_stmt 1 view .LVU484
 490:BSP/display.c ****                     curChar++;
 1841              		.loc 1 490 31 is_stmt 0 view .LVU485
 1842 0238 5744     		add	r7, r7, r10
 1843              	.LVL174:
 491:BSP/display.c ****                 } else if (phase == 1) {
 1844              		.loc 1 491 21 is_stmt 1 view .LVU486
 491:BSP/display.c ****                 } else if (phase == 1) {
 1845              		.loc 1 491 28 is_stmt 0 view .LVU487
 1846 023a 0134     		adds	r4, r4, #1
 1847              	.LVL175:
 488:BSP/display.c ****                     renderedW += s_weatherCache.charPixelW[curChar];
 1848              		.loc 1 488 31 view .LVU488
 1849 023c 079D     		ldr	r5, [sp, #28]
 1850              	.LBE12:
 1851 023e DAE7     		b	.L129
 1852              	.LVL176:
 1853              	.L150:
 493:BSP/display.c ****                     dispBuf[bufPos++] = ' ';
 1854              		.loc 1 493 21 is_stmt 1 view .LVU489
 493:BSP/display.c ****                     dispBuf[bufPos++] = ' ';
 1855              		.loc 1 493 35 is_stmt 0 view .LVU490
 1856 0240 6B1C     		adds	r3, r5, #1
 1857              	.LVL177:
 493:BSP/display.c ****                     dispBuf[bufPos++] = ' ';
 1858              		.loc 1 493 39 view .LVU491
 1859 0242 244A     		ldr	r2, .L153+48
 1860 0244 2021     		movs	r1, #32
 1861 0246 5155     		strb	r1, [r2, r5]
 494:BSP/display.c ****                     renderedW += SCROLL_GAP;
 1862              		.loc 1 494 21 is_stmt 1 view .LVU492
 1863              	.LVL178:
 494:BSP/display.c ****                     renderedW += SCROLL_GAP;
 1864              		.loc 1 494 39 is_stmt 0 view .LVU493
 1865 0248 D154     		strb	r1, [r2, r3]
ARM GAS  C:\Users\24120\AppData\Local\Temp\cciaFKJB.s 			page 49


 1866 024a 0235     		adds	r5, r5, #2
 1867              	.LVL179:
 495:BSP/display.c ****                     phase = 2;
 1868              		.loc 1 495 21 is_stmt 1 view .LVU494
 495:BSP/display.c ****                     phase = 2;
 1869              		.loc 1 495 31 is_stmt 0 view .LVU495
 1870 024c 08F11008 		add	r8, r8, #16
 1871              	.LVL180:
 496:BSP/display.c ****                 } else if (phase == 2) {
 1872              		.loc 1 496 21 is_stmt 1 view .LVU496
 496:BSP/display.c ****                 } else if (phase == 2) {
 1873              		.loc 1 496 27 is_stmt 0 view .LVU497
 1874 0250 0226     		movs	r6, #2
 1875 0252 D0E7     		b	.L129
 1876              	.LVL181:
 1877              	.L151:
 498:BSP/display.c ****                         int tlen = (int)strlen(tempStr);
 1878              		.loc 1 498 21 is_stmt 1 view .LVU498
 498:BSP/display.c ****                         int tlen = (int)strlen(tempStr);
 1879              		.loc 1 498 24 is_stmt 0 view .LVU499
 1880 0254 089B     		ldr	r3, [sp, #32]
 1881 0256 C3B9     		cbnz	r3, .L143
 1882              	.LBB13:
 499:BSP/display.c ****                         if (bufPos + tlen < (int)sizeof(dispBuf) - 1) {
 1883              		.loc 1 499 25 is_stmt 1 view .LVU500
 499:BSP/display.c ****                         if (bufPos + tlen < (int)sizeof(dispBuf) - 1) {
 1884              		.loc 1 499 41 is_stmt 0 view .LVU501
 1885 0258 0BA8     		add	r0, sp, #44
 1886 025a FFF7FEFF 		bl	strlen
 1887              	.LVL182:
 500:BSP/display.c ****                             memcpy(dispBuf + bufPos, tempStr, tlen);
 1888              		.loc 1 500 25 is_stmt 1 view .LVU502
 500:BSP/display.c ****                             memcpy(dispBuf + bufPos, tempStr, tlen);
 1889              		.loc 1 500 36 is_stmt 0 view .LVU503
 1890 025e 2E18     		adds	r6, r5, r0
 1891              	.LVL183:
 500:BSP/display.c ****                             memcpy(dispBuf + bufPos, tempStr, tlen);
 1892              		.loc 1 500 28 view .LVU504
 1893 0260 C62E     		cmp	r6, #198
 1894 0262 03DD     		ble	.L152
 505:BSP/display.c ****                     }
 1895              		.loc 1 505 34 view .LVU505
 1896 0264 0123     		movs	r3, #1
 1897 0266 0893     		str	r3, [sp, #32]
 1898              	.LVL184:
 505:BSP/display.c ****                     }
 1899              		.loc 1 505 34 view .LVU506
 1900              	.LBE13:
 507:BSP/display.c ****                 } else {
 1901              		.loc 1 507 27 view .LVU507
 1902 0268 0326     		movs	r6, #3
 1903 026a C4E7     		b	.L129
 1904              	.LVL185:
 1905              	.L152:
 1906              	.LBB14:
 501:BSP/display.c ****                             bufPos    += tlen;
 1907              		.loc 1 501 29 is_stmt 1 view .LVU508
ARM GAS  C:\Users\24120\AppData\Local\Temp\cciaFKJB.s 			page 50


 1908 026c 0246     		mov	r2, r0
 1909 026e 0BA9     		add	r1, sp, #44
 1910 0270 1848     		ldr	r0, .L153+48
 1911              	.LVL186:
 501:BSP/display.c ****                             bufPos    += tlen;
 1912              		.loc 1 501 29 is_stmt 0 view .LVU509
 1913 0272 2844     		add	r0, r0, r5
 1914 0274 FFF7FEFF 		bl	memcpy
 1915              	.LVL187:
 502:BSP/display.c ****                             renderedW += TEMP_PIXEL_W;
 1916              		.loc 1 502 29 is_stmt 1 view .LVU510
 503:BSP/display.c ****                         }
 1917              		.loc 1 503 29 view .LVU511
 503:BSP/display.c ****                         }
 1918              		.loc 1 503 39 is_stmt 0 view .LVU512
 1919 0278 08F18008 		add	r8, r8, #128
 1920              	.LVL188:
 502:BSP/display.c ****                             renderedW += TEMP_PIXEL_W;
 1921              		.loc 1 502 39 view .LVU513
 1922 027c 3546     		mov	r5, r6
 505:BSP/display.c ****                     }
 1923              		.loc 1 505 34 view .LVU514
 1924 027e 0123     		movs	r3, #1
 1925 0280 0893     		str	r3, [sp, #32]
 1926              	.LVL189:
 505:BSP/display.c ****                     }
 1927              		.loc 1 505 34 view .LVU515
 1928              	.LBE14:
 507:BSP/display.c ****                 } else {
 1929              		.loc 1 507 27 view .LVU516
 1930 0282 0326     		movs	r6, #3
 1931              	.LVL190:
 507:BSP/display.c ****                 } else {
 1932              		.loc 1 507 27 view .LVU517
 1933 0284 B7E7     		b	.L129
 1934              	.LVL191:
 1935              	.L142:
 1936              	.LBB15:
 482:BSP/display.c ****                     }
 1937              		.loc 1 482 31 view .LVU518
 1938 0286 0126     		movs	r6, #1
 1939              	.LVL192:
 482:BSP/display.c ****                     }
 1940              		.loc 1 482 31 view .LVU519
 1941 0288 B5E7     		b	.L129
 1942              	.LVL193:
 1943              	.L143:
 482:BSP/display.c ****                     }
 1944              		.loc 1 482 31 view .LVU520
 1945              	.LBE15:
 507:BSP/display.c ****                 } else {
 1946              		.loc 1 507 27 view .LVU521
 1947 028a 0326     		movs	r6, #3
 1948              	.LVL194:
 507:BSP/display.c ****                 } else {
 1949              		.loc 1 507 27 view .LVU522
 1950 028c B3E7     		b	.L129
ARM GAS  C:\Users\24120\AppData\Local\Temp\cciaFKJB.s 			page 51


 1951              	.LVL195:
 1952              	.L132:
 516:BSP/display.c ****             GUI_DispStringAt(dispBuf, -subOff, 48);
 1953              		.loc 1 516 29 view .LVU523
 1954 028e DDF824A0 		ldr	r10, [sp, #36]
 516:BSP/display.c ****             GUI_DispStringAt(dispBuf, -subOff, 48);
 1955              		.loc 1 516 13 is_stmt 1 view .LVU524
 516:BSP/display.c ****             GUI_DispStringAt(dispBuf, -subOff, 48);
 1956              		.loc 1 516 29 is_stmt 0 view .LVU525
 1957 0292 1048     		ldr	r0, .L153+48
 1958 0294 0023     		movs	r3, #0
 1959 0296 4355     		strb	r3, [r0, r5]
 517:BSP/display.c ****         }
 1960              		.loc 1 517 13 is_stmt 1 view .LVU526
 1961 0298 3022     		movs	r2, #48
 1962 029a CAF10001 		rsb	r1, r10, #0
 1963 029e FFF7FEFF 		bl	GUI_DispStringAt
 1964              	.LVL196:
 1965              	.LBE16:
 1966              	.LBE10:
 430:BSP/display.c ****         uint32_t now = osKernelGetTickCount();
 1967              		.loc 1 430 65 is_stmt 0 view .LVU527
 1968 02a2 26E7     		b	.L136
 1969              	.L154:
 1970              		.align	2
 1971              	.L153:
 1972 02a4 00000000 		.word	g_cachedTemp
 1973 02a8 00000000 		.word	GUI_FontHZ_SimSun_16
 1974 02ac 00000000 		.word	s_adminCfg
 1975 02b0 00000000 		.word	s_modeNames
 1976 02b4 00000000 		.word	s_weekdays_cn
 1977 02b8 00000000 		.word	.LC6
 1978 02bc 00000000 		.word	s_scrollTick.2
 1979 02c0 00000000 		.word	GUI_FontHZ_SimSun_32
 1980 02c4 30000000 		.word	.LC7
 1981 02c8 00000000 		.word	s_weatherCache
 1982 02cc 40000000 		.word	.LC8
 1983 02d0 43082184 		.word	-2078209981
 1984 02d4 00000000 		.word	dispBuf.1
 1985              		.cfi_endproc
 1986              	.LFE265:
 1988              		.section	.rodata.DISP_ShowCardResult.str1.4,"aMS",%progbits,1
 1989              		.align	2
 1990              	.LC10:
 1991 0000 E8AFB7E5 		.ascii	"\350\257\267\345\213\277\351\207\215\345\244\215\345"
 1991      8BBFE987 
 1991      8DE5A48D 
 1991      E5
 1992 000d 88B7E58D 		.ascii	"\210\267\345\215\241\000"
 1992      A100
 1993 0013 00       		.align	2
 1994              	.LC11:
 1995 0014 256420E7 		.ascii	"%d \347\247\222\345\220\216\350\277\224\345\233\236"
 1995      A792E590 
 1995      8EE8BF94 
 1995      E59B9E
 1996 0023 00       		.ascii	"\000"
ARM GAS  C:\Users\24120\AppData\Local\Temp\cciaFKJB.s 			page 52


 1997              		.align	2
 1998              	.LC12:
 1999 0024 C39720E6 		.ascii	"\303\227 \346\227\240\345\205\245\345\234\272\350\256"
 1999      97A0E585 
 1999      A5E59CBA 
 1999      E8AE
 2000 0032 B0E5BD95 		.ascii	"\260\345\275\225\000"
 2000      00
 2001 0037 00       		.align	2
 2002              	.LC13:
 2003 0038 E8AFB7E5 		.ascii	"\350\257\267\345\205\210\347\255\276\345\210\260\000"
 2003      8588E7AD 
 2003      BEE588B0 
 2003      00
 2004 0045 000000   		.align	2
 2005              	.LC14:
 2006 0048 C39720E6 		.ascii	"\303\227 \346\227\240\346\225\210\345\215\241\000"
 2006      97A0E695 
 2006      88E58DA1 
 2006      00
 2007 0055 000000   		.align	2
 2008              	.LC15:
 2009 0058 E5B7B2E6 		.ascii	"\345\267\262\346\214\202\345\244\261\000"
 2009      8C82E5A4 
 2009      B100
 2010 0062 0000     		.align	2
 2011              	.LC16:
 2012 0064 E6A0A1E9 		.ascii	"\346\240\241\351\252\214\345\244\261\350\264\245\000"
 2012      AA8CE5A4 
 2012      B1E8B4A5 
 2012      00
 2013 0071 000000   		.align	2
 2014              	.LC17:
 2015 0074 E7ADBEE5 		.ascii	"\347\255\276\345\210\260\000"
 2015      88B000
 2016 007b 00       		.align	2
 2017              	.LC18:
 2018 007c 25303464 		.ascii	"%04d-%02d-%02d\000"
 2018      2D253032 
 2018      642D2530 
 2018      326400
 2019 008b 00       		.align	2
 2020              	.LC19:
 2021 008c E7A6BBE5 		.ascii	"\347\246\273\345\274\200\000"
 2021      BC8000
 2022 0093 00       		.align	2
 2023              	.LC20:
 2024 0094 256C75E5 		.ascii	"%lu\345\244\251%lu\346\227\266\000"
 2024      A4A9256C 
 2024      75E697B6 
 2024      00
 2025 00a1 000000   		.align	2
 2026              	.LC21:
 2027 00a4 256C75E6 		.ascii	"%lu\346\227\266\000"
 2027      97B600
 2028 00ab 00       		.align	2
 2029              	.LC22:
ARM GAS  C:\Users\24120\AppData\Local\Temp\cciaFKJB.s 			page 53


 2030 00ac 256C75E5 		.ascii	"%lu\345\210\206%lu\347\247\222\000"
 2030      8886256C 
 2030      75E7A792 
 2030      00
 2031 00b9 000000   		.align	2
 2032              	.LC23:
 2033 00bc 256C75E7 		.ascii	"%lu\347\247\222\000"
 2033      A79200
 2034 00c3 00       		.align	2
 2035              	.LC24:
 2036 00c4 E7ADBEE5 		.ascii	"\347\255\276\345\210\260 %02d:%02d:%02d\000"
 2036      88B02025 
 2036      3032643A 
 2036      25303264 
 2036      3A253032 
 2037 00da 0000     		.align	2
 2038              	.LC25:
 2039 00dc E7A6BBE5 		.ascii	"\347\246\273\345\274\200 %lud\345\244\251%luh\346\227"
 2039      BC802025 
 2039      6C7564E5 
 2039      A4A9256C 
 2039      7568E697 
 2040 00f0 B6256C75 		.ascii	"\266%lum\345\210\206%lus\347\247\222\000"
 2040      6DE58886 
 2040      256C7573 
 2040      E7A79200 
 2041              		.align	2
 2042              	.LC26:
 2043 0100 E7A6BBE5 		.ascii	"\347\246\273\345\274\200 %luh\346\227\266%lum\345\210"
 2043      BC802025 
 2043      6C7568E6 
 2043      97B6256C 
 2043      756DE588 
 2044 0114 86256C75 		.ascii	"\206%lus\347\247\222\000"
 2044      73E7A792 
 2044      00
 2045 011d 000000   		.align	2
 2046              	.LC27:
 2047 0120 E7A6BBE5 		.ascii	"\347\246\273\345\274\200 %lum\345\210\206%lus\347\247"
 2047      BC802025 
 2047      6C756DE5 
 2047      8886256C 
 2047      7573E7A7 
 2048 0134 9200     		.ascii	"\222\000"
 2049 0136 0000     		.align	2
 2050              	.LC28:
 2051 0138 E7A6BBE5 		.ascii	"\347\246\273\345\274\200 %lus\347\247\222\000"
 2051      BC802025 
 2051      6C7573E7 
 2051      A79200
 2052 0147 00       		.align	2
 2053              	.LC29:
 2054 0148 E7A6BBE5 		.ascii	"\347\246\273\345\274\200 %02d:%02d:%02d\000"
 2054      BC802025 
 2054      3032643A 
 2054      25303264 
 2054      3A253032 
ARM GAS  C:\Users\24120\AppData\Local\Temp\cciaFKJB.s 			page 54


 2055 015e 0000     		.align	2
 2056              	.LC30:
 2057 0160 E5B7A5E5 		.ascii	"\345\267\245\345\217\267:%lu\000"
 2057      8FB73A25 
 2057      6C7500
 2058              		.section	.text.DISP_ShowCardResult,"ax",%progbits
 2059              		.align	1
 2060              		.global	DISP_ShowCardResult
 2061              		.syntax unified
 2062              		.thumb
 2063              		.thumb_func
 2065              	DISP_ShowCardResult:
 2066              	.LVL197:
 2067              	.LFB266:
 527:BSP/display.c **** 
 528:BSP/display.c **** /* ====== 公开 API: RESULT 状态 ====== */
 529:BSP/display.c **** 
 530:BSP/display.c **** void DISP_ShowCardResult(const DispCardInfo_t *pInfo, int countdownSec)
 531:BSP/display.c **** {
 2068              		.loc 1 531 1 is_stmt 1 view -0
 2069              		.cfi_startproc
 2070              		@ args = 0, pretend = 0, frame = 64
 2071              		@ frame_needed = 0, uses_anonymous_args = 0
 532:BSP/display.c ****     char buf[48];
 2072              		.loc 1 532 5 view .LVU529
 533:BSP/display.c **** 
 534:BSP/display.c ****     if (pInfo == NULL) return;
 2073              		.loc 1 534 5 view .LVU530
 2074              		.loc 1 534 8 is_stmt 0 view .LVU531
 2075 0000 0028     		cmp	r0, #0
 2076 0002 00F08182 		beq	.L193
 531:BSP/display.c ****     char buf[48];
 2077              		.loc 1 531 1 view .LVU532
 2078 0006 2DE9F04F 		push	{r4, r5, r6, r7, r8, r9, r10, fp, lr}
 2079              	.LCFI22:
 2080              		.cfi_def_cfa_offset 36
 2081              		.cfi_offset 4, -36
 2082              		.cfi_offset 5, -32
 2083              		.cfi_offset 6, -28
 2084              		.cfi_offset 7, -24
 2085              		.cfi_offset 8, -20
 2086              		.cfi_offset 9, -16
 2087              		.cfi_offset 10, -12
 2088              		.cfi_offset 11, -8
 2089              		.cfi_offset 14, -4
 2090 000a 93B0     		sub	sp, sp, #76
 2091              	.LCFI23:
 2092              		.cfi_def_cfa_offset 112
 2093 000c 0D46     		mov	r5, r1
 2094 000e 0446     		mov	r4, r0
 535:BSP/display.c **** 
 536:BSP/display.c ****     GUI_Clear();
 2095              		.loc 1 536 5 is_stmt 1 view .LVU533
 2096 0010 FFF7FEFF 		bl	GUI_Clear
 2097              	.LVL198:
 537:BSP/display.c ****     GUI_SetColor(GUI_COLOR_WHITE);
 2098              		.loc 1 537 5 view .LVU534
ARM GAS  C:\Users\24120\AppData\Local\Temp\cciaFKJB.s 			page 55


 2099 0014 0120     		movs	r0, #1
 2100 0016 FFF7FEFF 		bl	GUI_SetColor
 2101              	.LVL199:
 538:BSP/display.c ****     GUI_SetFont((GUI_FONT *)&GUI_FontHZ_SimSun_16);
 2102              		.loc 1 538 5 view .LVU535
 2103 001a AC48     		ldr	r0, .L211
 2104 001c FFF7FEFF 		bl	GUI_SetFont
 2105              	.LVL200:
 539:BSP/display.c **** 
 540:BSP/display.c ****     /* ===== 重复刷卡 / 无效重复 ===== */
 541:BSP/display.c ****     if (pInfo->event == DISP_EVT_CARD_DUP || pInfo->recordStatus == 1) {
 2106              		.loc 1 541 5 view .LVU536
 2107              		.loc 1 541 14 is_stmt 0 view .LVU537
 2108 0020 A368     		ldr	r3, [r4, #8]
 2109              		.loc 1 541 8 view .LVU538
 2110 0022 042B     		cmp	r3, #4
 2111 0024 00F08180 		beq	.L157
 2112              		.loc 1 541 51 discriminator 1 view .LVU539
 2113 0028 A27F     		ldrb	r2, [r4, #30]	@ zero_extendqisi2
 2114              		.loc 1 541 43 discriminator 1 view .LVU540
 2115 002a 012A     		cmp	r2, #1
 2116 002c 7DD0     		beq	.L157
 542:BSP/display.c ****         GUI_DispStringHCenterAt(
 543:BSP/display.c ****             "\xe8\xaf\xb7\xe5\x8b\xbf\xe9\x87\x8d\xe5\xa4\x8d\xe5\x88\xb7\xe5\x8d\xa1", 64, 16);
 544:BSP/display.c ****         sprintf(buf, "%d \xe7\xa7\x92\xe5\x90\x8e\xe8\xbf\x94\xe5\x9b\x9e", countdownSec);
 545:BSP/display.c ****         GUI_DispStringHCenterAt(buf, 64, 40);
 546:BSP/display.c ****         GUI_Update();
 547:BSP/display.c ****         return;
 548:BSP/display.c ****     }
 549:BSP/display.c **** 
 550:BSP/display.c ****     /* ===== 无入场记录 ===== */
 551:BSP/display.c ****     if (pInfo->recordStatus == 2) {
 2117              		.loc 1 551 5 is_stmt 1 view .LVU541
 2118              		.loc 1 551 8 is_stmt 0 view .LVU542
 2119 002e 022A     		cmp	r2, #2
 2120 0030 00F09080 		beq	.L196
 552:BSP/display.c ****         GUI_DispStringHCenterAt(
 553:BSP/display.c ****             "\xc3\x97 \xe6\x97\xa0\xe5\x85\xa5\xe5\x9c\xba\xe8\xae\xb0\xe5\xbd\x95", 64, 16);
 554:BSP/display.c ****         GUI_DispStringHCenterAt(
 555:BSP/display.c ****             "\xe8\xaf\xb7\xe5\x85\x88\xe7\xad\xbe\xe5\x88\xb0", 64, 40);
 556:BSP/display.c ****         GUI_Update();
 557:BSP/display.c ****         return;
 558:BSP/display.c ****     }
 559:BSP/display.c **** 
 560:BSP/display.c ****     /* ===== 无效卡 ===== */
 561:BSP/display.c ****     if (pInfo->event == DISP_EVT_CARD_INVALID) {
 2121              		.loc 1 561 5 is_stmt 1 view .LVU543
 2122              		.loc 1 561 8 is_stmt 0 view .LVU544
 2123 0034 022B     		cmp	r3, #2
 2124 0036 00F09A80 		beq	.L197
 2125              	.LBB17:
 562:BSP/display.c ****         GUI_DispStringHCenterAt(
 563:BSP/display.c ****             "\xc3\x97 \xe6\x97\xa0\xe6\x95\x88\xe5\x8d\xa1", 64, 0);
 564:BSP/display.c ****         if (pInfo->statusFlag == 0xFF) {
 565:BSP/display.c ****             GUI_DispStringAt("\xe5\xb7\xb2\xe6\x8c\x82\xe5\xa4\xb1", 52, 24);
 566:BSP/display.c ****         } else {
 567:BSP/display.c ****             GUI_DispStringAt("\xe6\xa0\xa1\xe9\xaa\x8c\xe5\xa4\xb1\xe8\xb4\xa5", 52, 24);
ARM GAS  C:\Users\24120\AppData\Local\Temp\cciaFKJB.s 			page 56


 568:BSP/display.c ****         }
 569:BSP/display.c ****         GUI_Update();
 570:BSP/display.c ****         return;
 571:BSP/display.c ****     }
 572:BSP/display.c **** 
 573:BSP/display.c ****     /* ===== 入口/出口模式: 简化 UI, 不显示卡片详情 ===== */
 574:BSP/display.c ****     {
 575:BSP/display.c ****         uint8_t mode = DISP_GetAdminCfg()->attendMode;
 2126              		.loc 1 575 9 is_stmt 1 view .LVU545
 2127              		.loc 1 575 24 is_stmt 0 view .LVU546
 2128 003a FFF7FEFF 		bl	DISP_GetAdminCfg
 2129              	.LVL201:
 2130              		.loc 1 575 17 discriminator 1 view .LVU547
 2131 003e 8378     		ldrb	r3, [r0, #2]	@ zero_extendqisi2
 2132              	.LVL202:
 576:BSP/display.c **** 
 577:BSP/display.c ****         /* ---- 入口模式: 签到 / 时刻 / 日期 ---- */
 578:BSP/display.c ****         if (mode == 0) {
 2133              		.loc 1 578 9 is_stmt 1 view .LVU548
 2134              		.loc 1 578 12 is_stmt 0 view .LVU549
 2135 0040 002B     		cmp	r3, #0
 2136 0042 00F0AA80 		beq	.L198
 579:BSP/display.c ****             /* 行1: 签到 (16px) */
 580:BSP/display.c ****             GUI_DispStringHCenterAt(
 581:BSP/display.c ****                 "\xe7\xad\xbe\xe5\x88\xb0", 64, 8);
 582:BSP/display.c ****             /* 行2: 时刻 (16px) */
 583:BSP/display.c ****             sprintf(buf, "%02d:%02d:%02d",
 584:BSP/display.c ****                     pInfo->swipeHour, pInfo->swipeMinute, pInfo->swipeSecond);
 585:BSP/display.c ****             GUI_DispStringHCenterAt(buf, 64, 24);
 586:BSP/display.c ****             /* 行3: 日期 (16px) */
 587:BSP/display.c ****             {
 588:BSP/display.c ****                 BSP_RTC_DateTime_t dt;
 589:BSP/display.c ****                 BSP_RTC_GetDateTime(&dt);
 590:BSP/display.c ****                 sprintf(buf, "%04d-%02d-%02d", dt.year, dt.month, dt.day);
 591:BSP/display.c ****             }
 592:BSP/display.c ****             GUI_DispStringHCenterAt(buf, 64, 44);
 593:BSP/display.c ****             GUI_Update();
 594:BSP/display.c ****             return;
 595:BSP/display.c ****         }
 596:BSP/display.c **** 
 597:BSP/display.c ****         /* ---- 出口模式: 离开 / 时长(>1h 分两行, <=1h 单行) ---- */
 598:BSP/display.c ****         if (mode == 1) {
 2137              		.loc 1 598 9 is_stmt 1 view .LVU550
 2138              		.loc 1 598 12 is_stmt 0 view .LVU551
 2139 0046 012B     		cmp	r3, #1
 2140 0048 00F0D080 		beq	.L199
 2141              	.LBE17:
 599:BSP/display.c ****             /* 行1: 离开 (16px) */
 600:BSP/display.c ****             GUI_SetFont((GUI_FONT *)&GUI_FontHZ_SimSun_16);
 601:BSP/display.c ****             GUI_DispStringHCenterAt(
 602:BSP/display.c ****                 "\xe7\xa6\xbb\xe5\xbc\x80", 64, 8);
 603:BSP/display.c **** 
 604:BSP/display.c ****             if (pInfo->durationSec > 0) {
 605:BSP/display.c ****                 uint32_t d = pInfo->durationSec / 86400;
 606:BSP/display.c ****                 uint32_t h = (pInfo->durationSec % 86400) / 3600;
 607:BSP/display.c ****                 uint32_t m = (pInfo->durationSec % 3600) / 60;
 608:BSP/display.c ****                 uint32_t s = pInfo->durationSec % 60;
ARM GAS  C:\Users\24120\AppData\Local\Temp\cciaFKJB.s 			page 57


 609:BSP/display.c **** 
 610:BSP/display.c ****                 if (d > 0 || h > 0) {
 611:BSP/display.c ****                     /* > 1h: 行2=天+时, 行3=分+秒 */
 612:BSP/display.c ****                     if (d > 0)
 613:BSP/display.c ****                         sprintf(buf, "%lu\xe5\xa4\xa9%lu\xe6\x97\xb6", d, h);
 614:BSP/display.c ****                     else
 615:BSP/display.c ****                         sprintf(buf, "%lu\xe6\x97\xb6", h);
 616:BSP/display.c ****                     GUI_DispStringHCenterAt(buf, 64, 24);
 617:BSP/display.c **** 
 618:BSP/display.c ****                     sprintf(buf, "%lu\xe5\x88\x86%lu\xe7\xa7\x92", m, s);
 619:BSP/display.c ****                     GUI_DispStringHCenterAt(buf, 64, 40);
 620:BSP/display.c ****                 } else {
 621:BSP/display.c ****                     /* <= 1h: 行2=正常时长(分+秒) */
 622:BSP/display.c ****                     if (m > 0)
 623:BSP/display.c ****                         sprintf(buf, "%lu\xe5\x88\x86%lu\xe7\xa7\x92", m, s);
 624:BSP/display.c ****                     else
 625:BSP/display.c ****                         sprintf(buf, "%lu\xe7\xa7\x92", s);
 626:BSP/display.c ****                     GUI_DispStringHCenterAt(buf, 64, 28);
 627:BSP/display.c ****                 }
 628:BSP/display.c ****             } else {
 629:BSP/display.c ****                 /* 无 duration: 显示离开时刻 */
 630:BSP/display.c ****                 sprintf(buf, "%02d:%02d:%02d",
 631:BSP/display.c ****                         pInfo->swipeHour, pInfo->swipeMinute, pInfo->swipeSecond);
 632:BSP/display.c ****                 GUI_DispStringHCenterAt(buf, 64, 28);
 633:BSP/display.c ****             }
 634:BSP/display.c ****             GUI_Update();
 635:BSP/display.c ****             return;
 636:BSP/display.c ****         }
 637:BSP/display.c ****     }
 638:BSP/display.c **** 
 639:BSP/display.c ****     /* ===== 图像卡: 头像(可选) + 位图 ===== */
 640:BSP/display.c ****     if (pInfo->cardType == 0x01) {
 2142              		.loc 1 640 5 is_stmt 1 view .LVU552
 2143              		.loc 1 640 14 is_stmt 0 view .LVU553
 2144 004c 237E     		ldrb	r3, [r4, #24]	@ zero_extendqisi2
 2145              	.LVL203:
 2146              		.loc 1 640 8 view .LVU554
 2147 004e 012B     		cmp	r3, #1
 2148 0050 00F06C81 		beq	.L200
 2149              	.LBB21:
 641:BSP/display.c ****         int xOff = s_cardBitmap.hasAvatar ? 48 : 0;
 642:BSP/display.c **** 
 643:BSP/display.c ****         /* 头像 48×64 (有数据才绘制) */
 644:BSP/display.c ****         if (s_cardBitmap.hasAvatar) {
 645:BSP/display.c ****             GUI_BITMAP bmAv;
 646:BSP/display.c ****             bmAv.XSize = DISP_AVATAR_W;
 647:BSP/display.c ****             bmAv.YSize = DISP_AVATAR_H;
 648:BSP/display.c ****             bmAv.BytesPerLine = DISP_AVATAR_W / 8;
 649:BSP/display.c ****             bmAv.BitsPerPixel = 1;
 650:BSP/display.c ****             bmAv.pData = s_cardBitmap.avatar;
 651:BSP/display.c ****             bmAv.pPal = NULL;
 652:BSP/display.c ****             GUI_DrawBitmap(&bmAv, 0, 0);
 653:BSP/display.c ****         }
 654:BSP/display.c **** 
 655:BSP/display.c ****         /* 姓名位图 80×16 */
 656:BSP/display.c ****         {
 657:BSP/display.c ****             GUI_BITMAP bm;
ARM GAS  C:\Users\24120\AppData\Local\Temp\cciaFKJB.s 			page 58


 658:BSP/display.c ****             bm.XSize = DISP_NAME_W; bm.YSize = DISP_NAME_H;
 659:BSP/display.c ****             bm.BytesPerLine = DISP_NAME_W / 8; bm.BitsPerPixel = 1;
 660:BSP/display.c ****             bm.pData = s_cardBitmap.name; bm.pPal = NULL;
 661:BSP/display.c ****             GUI_DrawBitmap(&bm, xOff, 0);
 662:BSP/display.c ****         }
 663:BSP/display.c ****         /* 部门位图 80×16 */
 664:BSP/display.c ****         {
 665:BSP/display.c ****             GUI_BITMAP bm;
 666:BSP/display.c ****             bm.XSize = DISP_DEPT_W; bm.YSize = DISP_DEPT_H;
 667:BSP/display.c ****             bm.BytesPerLine = DISP_DEPT_W / 8; bm.BitsPerPixel = 1;
 668:BSP/display.c ****             bm.pData = s_cardBitmap.dept; bm.pPal = NULL;
 669:BSP/display.c ****             GUI_DrawBitmap(&bm, xOff, 16);
 670:BSP/display.c ****         }
 671:BSP/display.c ****         /* 签到/离开 + 时长 */
 672:BSP/display.c ****         if (pInfo->eventType == 0) {
 673:BSP/display.c ****             sprintf(buf, "\xe7\xad\xbe\xe5\x88\xb0 %02d:%02d:%02d",
 674:BSP/display.c ****                     pInfo->swipeHour, pInfo->swipeMinute, pInfo->swipeSecond);
 675:BSP/display.c ****         } else if (pInfo->durationSec > 0) {
 676:BSP/display.c ****             uint32_t d = pInfo->durationSec / 86400;
 677:BSP/display.c ****             uint32_t h = (pInfo->durationSec % 86400) / 3600;
 678:BSP/display.c ****             uint32_t m = (pInfo->durationSec % 3600) / 60;
 679:BSP/display.c ****             uint32_t s = pInfo->durationSec % 60;
 680:BSP/display.c ****             if (d > 0)
 681:BSP/display.c ****                 sprintf(buf, "\xe7\xa6\xbb\xe5\xbc\x80 %lud\xe5\xa4\xa9%luh\xe6\x97\xb6%lum\xe5\x88
 682:BSP/display.c ****             else if (h > 0)
 683:BSP/display.c ****                 sprintf(buf, "\xe7\xa6\xbb\xe5\xbc\x80 %luh\xe6\x97\xb6%lum\xe5\x88\x86%lus\xe7\xa7
 684:BSP/display.c ****             else if (m > 0)
 685:BSP/display.c ****                 sprintf(buf, "\xe7\xa6\xbb\xe5\xbc\x80 %lum\xe5\x88\x86%lus\xe7\xa7\x92", m, s);
 686:BSP/display.c ****             else
 687:BSP/display.c ****                 sprintf(buf, "\xe7\xa6\xbb\xe5\xbc\x80 %lus\xe7\xa7\x92", s);
 688:BSP/display.c ****         } else {
 689:BSP/display.c ****             sprintf(buf, "\xe7\xa6\xbb\xe5\xbc\x80 %02d:%02d:%02d",
 690:BSP/display.c ****                     pInfo->swipeHour, pInfo->swipeMinute, pInfo->swipeSecond);
 691:BSP/display.c ****         }
 692:BSP/display.c ****         GUI_DispStringAt(buf, xOff, 48);
 693:BSP/display.c **** 
 694:BSP/display.c ****         /* 无头像时用工号填充 */
 695:BSP/display.c ****         if (!s_cardBitmap.hasAvatar) {
 696:BSP/display.c ****             sprintf(buf, "\xe5\xb7\xa5\xe5\x8f\xb7:%lu", (unsigned long)pInfo->sid);
 697:BSP/display.c ****             GUI_DispStringAt(buf, xOff, 32);
 698:BSP/display.c ****         }
 699:BSP/display.c **** 
 700:BSP/display.c ****         GUI_Update();
 701:BSP/display.c ****         return;
 702:BSP/display.c ****     }
 703:BSP/display.c **** 
 704:BSP/display.c ****     /* ===== 普通卡/管理员卡: 位图 80×16 居中 + 文本 ===== */
 705:BSP/display.c ****     /* 行1 y=0: 姓名位图 80×16 (居中: (128-80)/2=24) */
 706:BSP/display.c ****     {
 707:BSP/display.c ****         GUI_BITMAP bm;
 2150              		.loc 1 707 9 is_stmt 1 view .LVU555
 708:BSP/display.c ****         bm.XSize = DISP_NAME_W; bm.YSize = DISP_NAME_H;
 2151              		.loc 1 708 9 view .LVU556
 2152              		.loc 1 708 18 is_stmt 0 view .LVU557
 2153 0054 4FF0500B 		mov	fp, #80
 2154 0058 ADF808B0 		strh	fp, [sp, #8]	@ movhi
 2155              	.LVL204:
ARM GAS  C:\Users\24120\AppData\Local\Temp\cciaFKJB.s 			page 59


 2156              		.loc 1 708 33 is_stmt 1 view .LVU558
 2157              		.loc 1 708 42 is_stmt 0 view .LVU559
 2158 005c 1026     		movs	r6, #16
 2159 005e ADF80A60 		strh	r6, [sp, #10]	@ movhi
 709:BSP/display.c ****         bm.BytesPerLine = DISP_NAME_W / 8; bm.BitsPerPixel = 1;
 2160              		.loc 1 709 9 is_stmt 1 view .LVU560
 2161              		.loc 1 709 25 is_stmt 0 view .LVU561
 2162 0062 4FF00A0A 		mov	r10, #10
 2163 0066 ADF80CA0 		strh	r10, [sp, #12]	@ movhi
 2164              		.loc 1 709 44 is_stmt 1 view .LVU562
 2165              		.loc 1 709 60 is_stmt 0 view .LVU563
 2166 006a 4FF00109 		mov	r9, #1
 2167 006e ADF80E90 		strh	r9, [sp, #14]	@ movhi
 710:BSP/display.c ****         bm.pData = s_cardBitmap.name; bm.pPal = NULL;
 2168              		.loc 1 710 9 is_stmt 1 view .LVU564
 2169              		.loc 1 710 18 is_stmt 0 view .LVU565
 2170 0072 974D     		ldr	r5, .L211+4
 2171              	.LVL205:
 2172              		.loc 1 710 18 view .LVU566
 2173 0074 0495     		str	r5, [sp, #16]
 2174              		.loc 1 710 39 is_stmt 1 view .LVU567
 2175              		.loc 1 710 47 is_stmt 0 view .LVU568
 2176 0076 0027     		movs	r7, #0
 2177 0078 0597     		str	r7, [sp, #20]
 711:BSP/display.c ****         GUI_DrawBitmap(&bm, 24, 0);
 2178              		.loc 1 711 9 is_stmt 1 view .LVU569
 2179 007a 0DF10808 		add	r8, sp, #8
 2180 007e 3A46     		mov	r2, r7
 2181 0080 1821     		movs	r1, #24
 2182 0082 4046     		mov	r0, r8
 2183 0084 FFF7FEFF 		bl	GUI_DrawBitmap
 2184              	.LVL206:
 2185              	.LBE21:
 2186              	.LBB22:
 712:BSP/display.c ****     }
 713:BSP/display.c **** 
 714:BSP/display.c ****     /* 行2 y=16: 部门位图 80×16 (居中) */
 715:BSP/display.c ****     {
 716:BSP/display.c ****         GUI_BITMAP bm;
 2187              		.loc 1 716 9 view .LVU570
 717:BSP/display.c ****         bm.XSize = DISP_DEPT_W; bm.YSize = DISP_DEPT_H;
 2188              		.loc 1 717 9 view .LVU571
 2189              		.loc 1 717 18 is_stmt 0 view .LVU572
 2190 0088 ADF808B0 		strh	fp, [sp, #8]	@ movhi
 2191              		.loc 1 717 33 is_stmt 1 view .LVU573
 2192              		.loc 1 717 42 is_stmt 0 view .LVU574
 2193 008c ADF80A60 		strh	r6, [sp, #10]	@ movhi
 718:BSP/display.c ****         bm.BytesPerLine = DISP_DEPT_W / 8; bm.BitsPerPixel = 1;
 2194              		.loc 1 718 9 is_stmt 1 view .LVU575
 2195              		.loc 1 718 25 is_stmt 0 view .LVU576
 2196 0090 ADF80CA0 		strh	r10, [sp, #12]	@ movhi
 2197              		.loc 1 718 44 is_stmt 1 view .LVU577
 2198              		.loc 1 718 60 is_stmt 0 view .LVU578
 2199 0094 ADF80E90 		strh	r9, [sp, #14]	@ movhi
 719:BSP/display.c ****         bm.pData = s_cardBitmap.dept; bm.pPal = NULL;
 2200              		.loc 1 719 9 is_stmt 1 view .LVU579
 2201              		.loc 1 719 18 is_stmt 0 view .LVU580
ARM GAS  C:\Users\24120\AppData\Local\Temp\cciaFKJB.s 			page 60


 2202 0098 A035     		adds	r5, r5, #160
 2203 009a 0495     		str	r5, [sp, #16]
 2204              		.loc 1 719 39 is_stmt 1 view .LVU581
 2205              		.loc 1 719 47 is_stmt 0 view .LVU582
 2206 009c 0597     		str	r7, [sp, #20]
 720:BSP/display.c ****         GUI_DrawBitmap(&bm, 24, 16);
 2207              		.loc 1 720 9 is_stmt 1 view .LVU583
 2208 009e 3246     		mov	r2, r6
 2209 00a0 1821     		movs	r1, #24
 2210 00a2 4046     		mov	r0, r8
 2211 00a4 FFF7FEFF 		bl	GUI_DrawBitmap
 2212              	.LVL207:
 2213              	.LBE22:
 721:BSP/display.c ****     }
 722:BSP/display.c **** 
 723:BSP/display.c ****     /* 行3 y=32: 工号 (居中) */
 724:BSP/display.c ****     sprintf(buf, "\xe5\xb7\xa5\xe5\x8f\xb7:%lu",
 2214              		.loc 1 724 5 view .LVU584
 2215 00a8 06AD     		add	r5, sp, #24
 2216 00aa 2269     		ldr	r2, [r4, #16]
 2217 00ac 8949     		ldr	r1, .L211+8
 2218 00ae 2846     		mov	r0, r5
 2219 00b0 FFF7FEFF 		bl	sprintf
 2220              	.LVL208:
 725:BSP/display.c ****             (unsigned long)pInfo->sid);
 726:BSP/display.c ****     GUI_DispStringHCenterAt(buf, 64, 32);
 2221              		.loc 1 726 5 view .LVU585
 2222 00b4 2022     		movs	r2, #32
 2223 00b6 4021     		movs	r1, #64
 2224 00b8 2846     		mov	r0, r5
 2225 00ba FFF7FEFF 		bl	GUI_DispStringHCenterAt
 2226              	.LVL209:
 727:BSP/display.c **** 
 728:BSP/display.c ****     /* 行4 y=48: 签到/离开 + 时刻 (+ 时长) */
 729:BSP/display.c ****     if (pInfo->eventType == 0) {
 2227              		.loc 1 729 5 view .LVU586
 2228              		.loc 1 729 14 is_stmt 0 view .LVU587
 2229 00be 637F     		ldrb	r3, [r4, #29]	@ zero_extendqisi2
 2230              		.loc 1 729 8 view .LVU588
 2231 00c0 002B     		cmp	r3, #0
 2232 00c2 00F0F281 		beq	.L201
 730:BSP/display.c ****         sprintf(buf, "\xe7\xad\xbe\xe5\x88\xb0 %02d:%02d:%02d",
 731:BSP/display.c ****                 pInfo->swipeHour, pInfo->swipeMinute, pInfo->swipeSecond);
 732:BSP/display.c ****     } else if (pInfo->durationSec > 0) {
 2233              		.loc 1 732 12 is_stmt 1 view .LVU589
 2234              		.loc 1 732 21 is_stmt 0 view .LVU590
 2235 00c6 216A     		ldr	r1, [r4, #32]
 2236              		.loc 1 732 15 view .LVU591
 2237 00c8 0029     		cmp	r1, #0
 2238 00ca 00F01482 		beq	.L185
 2239              	.LBB23:
 733:BSP/display.c ****         uint32_t d = pInfo->durationSec / 86400;
 2240              		.loc 1 733 9 is_stmt 1 view .LVU592
 2241              		.loc 1 733 18 is_stmt 0 view .LVU593
 2242 00ce 824C     		ldr	r4, .L211+12
 2243              	.LVL210:
 2244              		.loc 1 733 18 view .LVU594
ARM GAS  C:\Users\24120\AppData\Local\Temp\cciaFKJB.s 			page 61


 2245 00d0 A4FB0134 		umull	r3, r4, r4, r1
 2246 00d4 240C     		lsrs	r4, r4, #16
 2247              	.LVL211:
 734:BSP/display.c ****         uint32_t h = (pInfo->durationSec % 86400) / 3600;
 2248              		.loc 1 734 9 is_stmt 1 view .LVU595
 2249              		.loc 1 734 42 is_stmt 0 view .LVU596
 2250 00d6 814E     		ldr	r6, .L211+16
 2251 00d8 06FB1416 		mls	r6, r6, r4, r1
 2252              		.loc 1 734 18 view .LVU597
 2253 00dc 8048     		ldr	r0, .L211+20
 2254 00de A0FB0632 		umull	r3, r2, r0, r6
 2255 00e2 D20A     		lsrs	r2, r2, #11
 2256              	.LVL212:
 735:BSP/display.c ****         uint32_t m = (pInfo->durationSec % 3600) / 60;
 2257              		.loc 1 735 9 is_stmt 1 view .LVU598
 2258              		.loc 1 735 42 is_stmt 0 view .LVU599
 2259 00e4 A0FB0130 		umull	r3, r0, r0, r1
 2260 00e8 C00A     		lsrs	r0, r0, #11
 2261 00ea 4FF46163 		mov	r3, #3600
 2262 00ee 03FB1010 		mls	r0, r3, r0, r1
 2263              		.loc 1 735 18 view .LVU600
 2264 00f2 7C4B     		ldr	r3, .L211+24
 2265 00f4 A3FB0075 		umull	r7, r5, r3, r0
 2266 00f8 6D09     		lsrs	r5, r5, #5
 2267              	.LVL213:
 736:BSP/display.c ****         uint32_t s = pInfo->durationSec % 60;
 2268              		.loc 1 736 9 is_stmt 1 view .LVU601
 2269              		.loc 1 736 18 is_stmt 0 view .LVU602
 2270 00fa A3FB0173 		umull	r7, r3, r3, r1
 2271 00fe 5B09     		lsrs	r3, r3, #5
 2272 0100 C3EB0313 		rsb	r3, r3, r3, lsl #4
 2273 0104 A1EB8303 		sub	r3, r1, r3, lsl #2
 2274              	.LVL214:
 737:BSP/display.c ****         if (d > 0)
 2275              		.loc 1 737 9 is_stmt 1 view .LVU603
 2276              		.loc 1 737 12 is_stmt 0 view .LVU604
 2277 0108 774F     		ldr	r7, .L211+28
 2278 010a B942     		cmp	r1, r7
 2279 010c 00F2DD81 		bhi	.L202
 738:BSP/display.c ****             sprintf(buf, "\xe7\xa6\xbb\xe5\xbc\x80 %lud\xe5\xa4\xa9%luh\xe6\x97\xb6%lum\xe5\x88\x86
 739:BSP/display.c ****         else if (h > 0)
 2280              		.loc 1 739 14 is_stmt 1 view .LVU605
 2281              		.loc 1 739 17 is_stmt 0 view .LVU606
 2282 0110 B6F5616F 		cmp	r6, #3600
 2283 0114 80F0E281 		bcs	.L203
 740:BSP/display.c ****             sprintf(buf, "\xe7\xa6\xbb\xe5\xbc\x80 %luh\xe6\x97\xb6%lum\xe5\x88\x86%lus\xe7\xa7\x92
 741:BSP/display.c ****         else if (m > 0)
 2284              		.loc 1 741 14 is_stmt 1 view .LVU607
 2285              		.loc 1 741 17 is_stmt 0 view .LVU608
 2286 0118 3B28     		cmp	r0, #59
 2287 011a 40F2E681 		bls	.L188
 742:BSP/display.c ****             sprintf(buf, "\xe7\xa6\xbb\xe5\xbc\x80 %lum\xe5\x88\x86%lus\xe7\xa7\x92", m, s);
 2288              		.loc 1 742 13 is_stmt 1 view .LVU609
 2289 011e 2A46     		mov	r2, r5
 2290              	.LVL215:
 2291              		.loc 1 742 13 is_stmt 0 view .LVU610
 2292 0120 7249     		ldr	r1, .L211+32
ARM GAS  C:\Users\24120\AppData\Local\Temp\cciaFKJB.s 			page 62


 2293 0122 06A8     		add	r0, sp, #24
 2294 0124 FFF7FEFF 		bl	sprintf
 2295              	.LVL216:
 2296              		.loc 1 742 13 view .LVU611
 2297 0128 C7E1     		b	.L184
 2298              	.LVL217:
 2299              	.L157:
 2300              		.loc 1 742 13 view .LVU612
 2301              	.LBE23:
 542:BSP/display.c ****             "\xe8\xaf\xb7\xe5\x8b\xbf\xe9\x87\x8d\xe5\xa4\x8d\xe5\x88\xb7\xe5\x8d\xa1", 64, 16);
 2302              		.loc 1 542 9 is_stmt 1 view .LVU613
 2303 012a 1022     		movs	r2, #16
 2304 012c 4021     		movs	r1, #64
 2305 012e 7048     		ldr	r0, .L211+36
 2306 0130 FFF7FEFF 		bl	GUI_DispStringHCenterAt
 2307              	.LVL218:
 544:BSP/display.c ****         GUI_DispStringHCenterAt(buf, 64, 40);
 2308              		.loc 1 544 9 view .LVU614
 2309 0134 06AC     		add	r4, sp, #24
 2310              	.LVL219:
 544:BSP/display.c ****         GUI_DispStringHCenterAt(buf, 64, 40);
 2311              		.loc 1 544 9 is_stmt 0 view .LVU615
 2312 0136 2A46     		mov	r2, r5
 2313 0138 6E49     		ldr	r1, .L211+40
 2314 013a 2046     		mov	r0, r4
 2315 013c FFF7FEFF 		bl	sprintf
 2316              	.LVL220:
 545:BSP/display.c ****         GUI_Update();
 2317              		.loc 1 545 9 is_stmt 1 view .LVU616
 2318 0140 2822     		movs	r2, #40
 2319 0142 4021     		movs	r1, #64
 2320 0144 2046     		mov	r0, r4
 2321 0146 FFF7FEFF 		bl	GUI_DispStringHCenterAt
 2322              	.LVL221:
 546:BSP/display.c ****         return;
 2323              		.loc 1 546 9 view .LVU617
 2324 014a FFF7FEFF 		bl	GUI_Update
 2325              	.LVL222:
 547:BSP/display.c ****     }
 2326              		.loc 1 547 9 view .LVU618
 2327              	.L155:
 743:BSP/display.c ****         else
 744:BSP/display.c ****             sprintf(buf, "\xe7\xa6\xbb\xe5\xbc\x80 %lus\xe7\xa7\x92", s);
 745:BSP/display.c ****     } else {
 746:BSP/display.c ****         sprintf(buf, "\xe7\xa6\xbb\xe5\xbc\x80 %02d:%02d:%02d",
 747:BSP/display.c ****                 pInfo->swipeHour, pInfo->swipeMinute, pInfo->swipeSecond);
 748:BSP/display.c ****     }
 749:BSP/display.c ****     GUI_DispStringHCenterAt(buf, 64, 48);
 750:BSP/display.c **** 
 751:BSP/display.c ****     GUI_Update();
 752:BSP/display.c **** }
 2328              		.loc 1 752 1 is_stmt 0 view .LVU619
 2329 014e 13B0     		add	sp, sp, #76
 2330              	.LCFI24:
 2331              		.cfi_remember_state
 2332              		.cfi_def_cfa_offset 36
 2333              		@ sp needed
ARM GAS  C:\Users\24120\AppData\Local\Temp\cciaFKJB.s 			page 63


 2334 0150 BDE8F08F 		pop	{r4, r5, r6, r7, r8, r9, r10, fp, pc}
 2335              	.LVL223:
 2336              	.L196:
 2337              	.LCFI25:
 2338              		.cfi_restore_state
 552:BSP/display.c ****             "\xc3\x97 \xe6\x97\xa0\xe5\x85\xa5\xe5\x9c\xba\xe8\xae\xb0\xe5\xbd\x95", 64, 16);
 2339              		.loc 1 552 9 is_stmt 1 view .LVU620
 2340 0154 1022     		movs	r2, #16
 2341 0156 4021     		movs	r1, #64
 2342 0158 6748     		ldr	r0, .L211+44
 2343 015a FFF7FEFF 		bl	GUI_DispStringHCenterAt
 2344              	.LVL224:
 554:BSP/display.c ****             "\xe8\xaf\xb7\xe5\x85\x88\xe7\xad\xbe\xe5\x88\xb0", 64, 40);
 2345              		.loc 1 554 9 view .LVU621
 2346 015e 2822     		movs	r2, #40
 2347 0160 4021     		movs	r1, #64
 2348 0162 6648     		ldr	r0, .L211+48
 2349 0164 FFF7FEFF 		bl	GUI_DispStringHCenterAt
 2350              	.LVL225:
 556:BSP/display.c ****         return;
 2351              		.loc 1 556 9 view .LVU622
 2352 0168 FFF7FEFF 		bl	GUI_Update
 2353              	.LVL226:
 557:BSP/display.c ****     }
 2354              		.loc 1 557 9 view .LVU623
 2355 016c EFE7     		b	.L155
 2356              	.L197:
 562:BSP/display.c ****             "\xc3\x97 \xe6\x97\xa0\xe6\x95\x88\xe5\x8d\xa1", 64, 0);
 2357              		.loc 1 562 9 view .LVU624
 2358 016e 0022     		movs	r2, #0
 2359 0170 4021     		movs	r1, #64
 2360 0172 6348     		ldr	r0, .L211+52
 2361 0174 FFF7FEFF 		bl	GUI_DispStringHCenterAt
 2362              	.LVL227:
 564:BSP/display.c ****             GUI_DispStringAt("\xe5\xb7\xb2\xe6\x8c\x82\xe5\xa4\xb1", 52, 24);
 2363              		.loc 1 564 9 view .LVU625
 564:BSP/display.c ****             GUI_DispStringAt("\xe5\xb7\xb2\xe6\x8c\x82\xe5\xa4\xb1", 52, 24);
 2364              		.loc 1 564 18 is_stmt 0 view .LVU626
 2365 0178 637E     		ldrb	r3, [r4, #25]	@ zero_extendqisi2
 564:BSP/display.c ****             GUI_DispStringAt("\xe5\xb7\xb2\xe6\x8c\x82\xe5\xa4\xb1", 52, 24);
 2366              		.loc 1 564 12 view .LVU627
 2367 017a FF2B     		cmp	r3, #255
 2368 017c 07D0     		beq	.L204
 567:BSP/display.c ****         }
 2369              		.loc 1 567 13 is_stmt 1 view .LVU628
 2370 017e 1822     		movs	r2, #24
 2371 0180 3421     		movs	r1, #52
 2372 0182 6048     		ldr	r0, .L211+56
 2373 0184 FFF7FEFF 		bl	GUI_DispStringAt
 2374              	.LVL228:
 2375              	.L162:
 569:BSP/display.c ****         return;
 2376              		.loc 1 569 9 view .LVU629
 2377 0188 FFF7FEFF 		bl	GUI_Update
 2378              	.LVL229:
 570:BSP/display.c ****     }
 2379              		.loc 1 570 9 view .LVU630
ARM GAS  C:\Users\24120\AppData\Local\Temp\cciaFKJB.s 			page 64


 2380 018c DFE7     		b	.L155
 2381              	.L204:
 565:BSP/display.c ****         } else {
 2382              		.loc 1 565 13 view .LVU631
 2383 018e 1822     		movs	r2, #24
 2384 0190 3421     		movs	r1, #52
 2385 0192 5D48     		ldr	r0, .L211+60
 2386 0194 FFF7FEFF 		bl	GUI_DispStringAt
 2387              	.LVL230:
 2388 0198 F6E7     		b	.L162
 2389              	.LVL231:
 2390              	.L198:
 2391              	.LBB24:
 580:BSP/display.c ****                 "\xe7\xad\xbe\xe5\x88\xb0", 64, 8);
 2392              		.loc 1 580 13 view .LVU632
 2393 019a 0822     		movs	r2, #8
 2394 019c 4021     		movs	r1, #64
 2395 019e 5B48     		ldr	r0, .L211+64
 2396 01a0 FFF7FEFF 		bl	GUI_DispStringHCenterAt
 2397              	.LVL232:
 583:BSP/display.c ****                     pInfo->swipeHour, pInfo->swipeMinute, pInfo->swipeSecond);
 2398              		.loc 1 583 13 view .LVU633
 584:BSP/display.c ****             GUI_DispStringHCenterAt(buf, 64, 24);
 2399              		.loc 1 584 64 is_stmt 0 view .LVU634
 2400 01a4 237F     		ldrb	r3, [r4, #28]	@ zero_extendqisi2
 583:BSP/display.c ****                     pInfo->swipeHour, pInfo->swipeMinute, pInfo->swipeSecond);
 2401              		.loc 1 583 13 view .LVU635
 2402 01a6 06AD     		add	r5, sp, #24
 2403              	.LVL233:
 583:BSP/display.c ****                     pInfo->swipeHour, pInfo->swipeMinute, pInfo->swipeSecond);
 2404              		.loc 1 583 13 view .LVU636
 2405 01a8 0093     		str	r3, [sp]
 2406 01aa E37E     		ldrb	r3, [r4, #27]	@ zero_extendqisi2
 2407 01ac A27E     		ldrb	r2, [r4, #26]	@ zero_extendqisi2
 2408 01ae 5849     		ldr	r1, .L211+68
 2409 01b0 2846     		mov	r0, r5
 2410 01b2 FFF7FEFF 		bl	sprintf
 2411              	.LVL234:
 585:BSP/display.c ****             /* 行3: 日期 (16px) */
 2412              		.loc 1 585 13 is_stmt 1 view .LVU637
 2413 01b6 1822     		movs	r2, #24
 2414 01b8 4021     		movs	r1, #64
 2415 01ba 2846     		mov	r0, r5
 2416 01bc FFF7FEFF 		bl	GUI_DispStringHCenterAt
 2417              	.LVL235:
 2418              	.LBB18:
 588:BSP/display.c ****                 BSP_RTC_GetDateTime(&dt);
 2419              		.loc 1 588 17 view .LVU638
 589:BSP/display.c ****                 sprintf(buf, "%04d-%02d-%02d", dt.year, dt.month, dt.day);
 2420              		.loc 1 589 17 view .LVU639
 2421 01c0 02A8     		add	r0, sp, #8
 2422 01c2 FFF7FEFF 		bl	BSP_RTC_GetDateTime
 2423              	.LVL236:
 590:BSP/display.c ****             }
 2424              		.loc 1 590 17 view .LVU640
 590:BSP/display.c ****             }
 2425              		.loc 1 590 69 is_stmt 0 view .LVU641
ARM GAS  C:\Users\24120\AppData\Local\Temp\cciaFKJB.s 			page 65


 2426 01c6 9DF80B30 		ldrb	r3, [sp, #11]	@ zero_extendqisi2
 590:BSP/display.c ****             }
 2427              		.loc 1 590 17 view .LVU642
 2428 01ca 0093     		str	r3, [sp]
 2429 01cc 9DF80A30 		ldrb	r3, [sp, #10]	@ zero_extendqisi2
 2430 01d0 BDF80820 		ldrh	r2, [sp, #8]
 2431 01d4 4F49     		ldr	r1, .L211+72
 2432 01d6 2846     		mov	r0, r5
 2433 01d8 FFF7FEFF 		bl	sprintf
 2434              	.LVL237:
 2435              	.LBE18:
 592:BSP/display.c ****             GUI_Update();
 2436              		.loc 1 592 13 is_stmt 1 view .LVU643
 2437 01dc 2C22     		movs	r2, #44
 2438 01de 4021     		movs	r1, #64
 2439 01e0 2846     		mov	r0, r5
 2440 01e2 FFF7FEFF 		bl	GUI_DispStringHCenterAt
 2441              	.LVL238:
 593:BSP/display.c ****             return;
 2442              		.loc 1 593 13 view .LVU644
 2443 01e6 FFF7FEFF 		bl	GUI_Update
 2444              	.LVL239:
 594:BSP/display.c ****         }
 2445              		.loc 1 594 13 view .LVU645
 2446 01ea B0E7     		b	.L155
 2447              	.LVL240:
 2448              	.L199:
 600:BSP/display.c ****             GUI_DispStringHCenterAt(
 2449              		.loc 1 600 13 view .LVU646
 2450 01ec 3748     		ldr	r0, .L211
 2451 01ee FFF7FEFF 		bl	GUI_SetFont
 2452              	.LVL241:
 601:BSP/display.c ****                 "\xe7\xa6\xbb\xe5\xbc\x80", 64, 8);
 2453              		.loc 1 601 13 view .LVU647
 2454 01f2 0822     		movs	r2, #8
 2455 01f4 4021     		movs	r1, #64
 2456 01f6 4848     		ldr	r0, .L211+76
 2457 01f8 FFF7FEFF 		bl	GUI_DispStringHCenterAt
 2458              	.LVL242:
 604:BSP/display.c ****                 uint32_t d = pInfo->durationSec / 86400;
 2459              		.loc 1 604 13 view .LVU648
 604:BSP/display.c ****                 uint32_t d = pInfo->durationSec / 86400;
 2460              		.loc 1 604 22 is_stmt 0 view .LVU649
 2461 01fc 206A     		ldr	r0, [r4, #32]
 604:BSP/display.c ****                 uint32_t d = pInfo->durationSec / 86400;
 2462              		.loc 1 604 16 view .LVU650
 2463 01fe 0028     		cmp	r0, #0
 2464 0200 54D0     		beq	.L165
 2465              	.LBB19:
 605:BSP/display.c ****                 uint32_t h = (pInfo->durationSec % 86400) / 3600;
 2466              		.loc 1 605 17 is_stmt 1 view .LVU651
 605:BSP/display.c ****                 uint32_t h = (pInfo->durationSec % 86400) / 3600;
 2467              		.loc 1 605 26 is_stmt 0 view .LVU652
 2468 0202 354B     		ldr	r3, .L211+12
 2469 0204 A3FB0023 		umull	r2, r3, r3, r0
 2470 0208 1A0C     		lsrs	r2, r3, #16
 2471              	.LVL243:
ARM GAS  C:\Users\24120\AppData\Local\Temp\cciaFKJB.s 			page 66


 606:BSP/display.c ****                 uint32_t m = (pInfo->durationSec % 3600) / 60;
 2472              		.loc 1 606 17 is_stmt 1 view .LVU653
 606:BSP/display.c ****                 uint32_t m = (pInfo->durationSec % 3600) / 60;
 2473              		.loc 1 606 50 is_stmt 0 view .LVU654
 2474 020a 344D     		ldr	r5, .L211+16
 2475              	.LVL244:
 606:BSP/display.c ****                 uint32_t m = (pInfo->durationSec % 3600) / 60;
 2476              		.loc 1 606 50 view .LVU655
 2477 020c 05FB1205 		mls	r5, r5, r2, r0
 606:BSP/display.c ****                 uint32_t m = (pInfo->durationSec % 3600) / 60;
 2478              		.loc 1 606 26 view .LVU656
 2479 0210 3349     		ldr	r1, .L211+20
 2480 0212 A1FB0543 		umull	r4, r3, r1, r5
 2481              	.LVL245:
 606:BSP/display.c ****                 uint32_t m = (pInfo->durationSec % 3600) / 60;
 2482              		.loc 1 606 26 view .LVU657
 2483 0216 DB0A     		lsrs	r3, r3, #11
 2484              	.LVL246:
 607:BSP/display.c ****                 uint32_t s = pInfo->durationSec % 60;
 2485              		.loc 1 607 17 is_stmt 1 view .LVU658
 607:BSP/display.c ****                 uint32_t s = pInfo->durationSec % 60;
 2486              		.loc 1 607 50 is_stmt 0 view .LVU659
 2487 0218 A1FB0041 		umull	r4, r1, r1, r0
 2488 021c C90A     		lsrs	r1, r1, #11
 2489 021e 4FF46164 		mov	r4, #3600
 2490 0222 04FB1101 		mls	r1, r4, r1, r0
 607:BSP/display.c ****                 uint32_t s = pInfo->durationSec % 60;
 2491              		.loc 1 607 26 view .LVU660
 2492 0226 2F4C     		ldr	r4, .L211+24
 2493 0228 A4FB0176 		umull	r7, r6, r4, r1
 2494 022c 7609     		lsrs	r6, r6, #5
 2495              	.LVL247:
 608:BSP/display.c **** 
 2496              		.loc 1 608 17 is_stmt 1 view .LVU661
 608:BSP/display.c **** 
 2497              		.loc 1 608 26 is_stmt 0 view .LVU662
 2498 022e A4FB0074 		umull	r7, r4, r4, r0
 2499 0232 6409     		lsrs	r4, r4, #5
 2500 0234 C4EB0414 		rsb	r4, r4, r4, lsl #4
 2501 0238 A0EB8404 		sub	r4, r0, r4, lsl #2
 2502              	.LVL248:
 610:BSP/display.c ****                     /* > 1h: 行2=天+时, 行3=分+秒 */
 2503              		.loc 1 610 17 is_stmt 1 view .LVU663
 610:BSP/display.c ****                     /* > 1h: 行2=天+时, 行3=分+秒 */
 2504              		.loc 1 610 20 is_stmt 0 view .LVU664
 2505 023c 2A4F     		ldr	r7, .L211+28
 2506 023e B842     		cmp	r0, r7
 2507 0240 10D8     		bhi	.L166
 610:BSP/display.c ****                     /* > 1h: 行2=天+时, 行3=分+秒 */
 2508              		.loc 1 610 27 discriminator 1 view .LVU665
 2509 0242 B5F5616F 		cmp	r5, #3600
 2510 0246 25D2     		bcs	.L205
 622:BSP/display.c ****                         sprintf(buf, "%lu\xe5\x88\x86%lu\xe7\xa7\x92", m, s);
 2511              		.loc 1 622 21 is_stmt 1 view .LVU666
 622:BSP/display.c ****                         sprintf(buf, "%lu\xe5\x88\x86%lu\xe7\xa7\x92", m, s);
 2512              		.loc 1 622 24 is_stmt 0 view .LVU667
 2513 0248 3B29     		cmp	r1, #59
ARM GAS  C:\Users\24120\AppData\Local\Temp\cciaFKJB.s 			page 67


 2514 024a 29D9     		bls	.L171
 623:BSP/display.c ****                     else
 2515              		.loc 1 623 25 is_stmt 1 view .LVU668
 2516 024c 2346     		mov	r3, r4
 2517              	.LVL249:
 623:BSP/display.c ****                     else
 2518              		.loc 1 623 25 is_stmt 0 view .LVU669
 2519 024e 3246     		mov	r2, r6
 2520              	.LVL250:
 623:BSP/display.c ****                     else
 2521              		.loc 1 623 25 view .LVU670
 2522 0250 3249     		ldr	r1, .L211+80
 2523 0252 06A8     		add	r0, sp, #24
 2524              	.LVL251:
 623:BSP/display.c ****                     else
 2525              		.loc 1 623 25 view .LVU671
 2526 0254 FFF7FEFF 		bl	sprintf
 2527              	.LVL252:
 2528              	.L172:
 626:BSP/display.c ****                 }
 2529              		.loc 1 626 21 is_stmt 1 view .LVU672
 2530 0258 1C22     		movs	r2, #28
 2531 025a 4021     		movs	r1, #64
 2532 025c 06A8     		add	r0, sp, #24
 2533 025e FFF7FEFF 		bl	GUI_DispStringHCenterAt
 2534              	.LVL253:
 2535 0262 14E0     		b	.L170
 2536              	.LVL254:
 2537              	.L166:
 613:BSP/display.c ****                     else
 2538              		.loc 1 613 25 view .LVU673
 2539 0264 2E49     		ldr	r1, .L211+84
 2540 0266 06A8     		add	r0, sp, #24
 2541 0268 FFF7FEFF 		bl	sprintf
 2542              	.LVL255:
 2543              	.L169:
 616:BSP/display.c **** 
 2544              		.loc 1 616 21 view .LVU674
 2545 026c 06AD     		add	r5, sp, #24
 2546              	.LVL256:
 616:BSP/display.c **** 
 2547              		.loc 1 616 21 is_stmt 0 view .LVU675
 2548 026e 1822     		movs	r2, #24
 2549 0270 4021     		movs	r1, #64
 2550 0272 2846     		mov	r0, r5
 2551 0274 FFF7FEFF 		bl	GUI_DispStringHCenterAt
 2552              	.LVL257:
 618:BSP/display.c ****                     GUI_DispStringHCenterAt(buf, 64, 40);
 2553              		.loc 1 618 21 is_stmt 1 view .LVU676
 2554 0278 2346     		mov	r3, r4
 2555 027a 3246     		mov	r2, r6
 2556 027c 2749     		ldr	r1, .L211+80
 2557 027e 2846     		mov	r0, r5
 2558 0280 FFF7FEFF 		bl	sprintf
 2559              	.LVL258:
 619:BSP/display.c ****                 } else {
 2560              		.loc 1 619 21 view .LVU677
ARM GAS  C:\Users\24120\AppData\Local\Temp\cciaFKJB.s 			page 68


 2561 0284 2822     		movs	r2, #40
 2562 0286 4021     		movs	r1, #64
 2563 0288 2846     		mov	r0, r5
 2564 028a FFF7FEFF 		bl	GUI_DispStringHCenterAt
 2565              	.LVL259:
 2566              	.L170:
 619:BSP/display.c ****                 } else {
 2567              		.loc 1 619 21 is_stmt 0 view .LVU678
 2568              	.LBE19:
 634:BSP/display.c ****             return;
 2569              		.loc 1 634 13 is_stmt 1 view .LVU679
 2570 028e FFF7FEFF 		bl	GUI_Update
 2571              	.LVL260:
 635:BSP/display.c ****         }
 2572              		.loc 1 635 13 view .LVU680
 2573 0292 5CE7     		b	.L155
 2574              	.LVL261:
 2575              	.L205:
 2576              	.LBB20:
 612:BSP/display.c ****                         sprintf(buf, "%lu\xe5\xa4\xa9%lu\xe6\x97\xb6", d, h);
 2577              		.loc 1 612 21 view .LVU681
 615:BSP/display.c ****                     GUI_DispStringHCenterAt(buf, 64, 24);
 2578              		.loc 1 615 25 view .LVU682
 2579 0294 1A46     		mov	r2, r3
 2580              	.LVL262:
 615:BSP/display.c ****                     GUI_DispStringHCenterAt(buf, 64, 24);
 2581              		.loc 1 615 25 is_stmt 0 view .LVU683
 2582 0296 2349     		ldr	r1, .L211+88
 2583 0298 06A8     		add	r0, sp, #24
 2584              	.LVL263:
 615:BSP/display.c ****                     GUI_DispStringHCenterAt(buf, 64, 24);
 2585              		.loc 1 615 25 view .LVU684
 2586 029a FFF7FEFF 		bl	sprintf
 2587              	.LVL264:
 615:BSP/display.c ****                     GUI_DispStringHCenterAt(buf, 64, 24);
 2588              		.loc 1 615 25 view .LVU685
 2589 029e E5E7     		b	.L169
 2590              	.LVL265:
 2591              	.L171:
 625:BSP/display.c ****                     GUI_DispStringHCenterAt(buf, 64, 28);
 2592              		.loc 1 625 25 is_stmt 1 view .LVU686
 2593 02a0 2246     		mov	r2, r4
 2594              	.LVL266:
 625:BSP/display.c ****                     GUI_DispStringHCenterAt(buf, 64, 28);
 2595              		.loc 1 625 25 is_stmt 0 view .LVU687
 2596 02a2 2149     		ldr	r1, .L211+92
 2597 02a4 06A8     		add	r0, sp, #24
 2598              	.LVL267:
 625:BSP/display.c ****                     GUI_DispStringHCenterAt(buf, 64, 28);
 2599              		.loc 1 625 25 view .LVU688
 2600 02a6 FFF7FEFF 		bl	sprintf
 2601              	.LVL268:
 625:BSP/display.c ****                     GUI_DispStringHCenterAt(buf, 64, 28);
 2602              		.loc 1 625 25 view .LVU689
 2603 02aa D5E7     		b	.L172
 2604              	.LVL269:
 2605              	.L165:
ARM GAS  C:\Users\24120\AppData\Local\Temp\cciaFKJB.s 			page 69


 625:BSP/display.c ****                     GUI_DispStringHCenterAt(buf, 64, 28);
 2606              		.loc 1 625 25 view .LVU690
 2607              	.LBE20:
 630:BSP/display.c ****                         pInfo->swipeHour, pInfo->swipeMinute, pInfo->swipeSecond);
 2608              		.loc 1 630 17 is_stmt 1 view .LVU691
 631:BSP/display.c ****                 GUI_DispStringHCenterAt(buf, 64, 28);
 2609              		.loc 1 631 68 is_stmt 0 view .LVU692
 2610 02ac 237F     		ldrb	r3, [r4, #28]	@ zero_extendqisi2
 630:BSP/display.c ****                         pInfo->swipeHour, pInfo->swipeMinute, pInfo->swipeSecond);
 2611              		.loc 1 630 17 view .LVU693
 2612 02ae 06AD     		add	r5, sp, #24
 2613              	.LVL270:
 630:BSP/display.c ****                         pInfo->swipeHour, pInfo->swipeMinute, pInfo->swipeSecond);
 2614              		.loc 1 630 17 view .LVU694
 2615 02b0 0093     		str	r3, [sp]
 2616 02b2 E37E     		ldrb	r3, [r4, #27]	@ zero_extendqisi2
 2617 02b4 A27E     		ldrb	r2, [r4, #26]	@ zero_extendqisi2
 2618 02b6 1649     		ldr	r1, .L211+68
 2619 02b8 2846     		mov	r0, r5
 2620 02ba FFF7FEFF 		bl	sprintf
 2621              	.LVL271:
 632:BSP/display.c ****             }
 2622              		.loc 1 632 17 is_stmt 1 view .LVU695
 2623 02be 1C22     		movs	r2, #28
 2624 02c0 4021     		movs	r1, #64
 2625 02c2 2846     		mov	r0, r5
 2626 02c4 FFF7FEFF 		bl	GUI_DispStringHCenterAt
 2627              	.LVL272:
 2628 02c8 E1E7     		b	.L170
 2629              	.L212:
 2630 02ca 00BF     		.align	2
 2631              	.L211:
 2632 02cc 00000000 		.word	GUI_FontHZ_SimSun_16
 2633 02d0 81010000 		.word	s_cardBitmap+385
 2634 02d4 60010000 		.word	.LC30
 2635 02d8 07452EC2 		.word	-1037155065
 2636 02dc 80510100 		.word	86400
 2637 02e0 C5B3A291 		.word	-1851608123
 2638 02e4 89888888 		.word	-2004318071
 2639 02e8 7F510100 		.word	86399
 2640 02ec 20010000 		.word	.LC27
 2641 02f0 00000000 		.word	.LC10
 2642 02f4 14000000 		.word	.LC11
 2643 02f8 24000000 		.word	.LC12
 2644 02fc 38000000 		.word	.LC13
 2645 0300 48000000 		.word	.LC14
 2646 0304 64000000 		.word	.LC16
 2647 0308 58000000 		.word	.LC15
 2648 030c 74000000 		.word	.LC17
 2649 0310 30000000 		.word	.LC7
 2650 0314 7C000000 		.word	.LC18
 2651 0318 8C000000 		.word	.LC19
 2652 031c AC000000 		.word	.LC22
 2653 0320 94000000 		.word	.LC20
 2654 0324 A4000000 		.word	.LC21
 2655 0328 BC000000 		.word	.LC23
 2656              	.LVL273:
ARM GAS  C:\Users\24120\AppData\Local\Temp\cciaFKJB.s 			page 70


 2657              	.L200:
 632:BSP/display.c ****             }
 2658              		.loc 1 632 17 is_stmt 0 view .LVU696
 2659              	.LBE24:
 2660              	.LBB25:
 641:BSP/display.c **** 
 2661              		.loc 1 641 9 is_stmt 1 view .LVU697
 641:BSP/display.c **** 
 2662              		.loc 1 641 32 is_stmt 0 view .LVU698
 2663 032c 774B     		ldr	r3, .L213
 2664 032e 1B78     		ldrb	r3, [r3]	@ zero_extendqisi2
 641:BSP/display.c **** 
 2665              		.loc 1 641 48 view .LVU699
 2666 0330 002B     		cmp	r3, #0
 2667 0332 64D0     		beq	.L190
 641:BSP/display.c **** 
 2668              		.loc 1 641 48 discriminator 1 view .LVU700
 2669 0334 3026     		movs	r6, #48
 2670              	.L174:
 2671              	.LVL274:
 644:BSP/display.c ****             GUI_BITMAP bmAv;
 2672              		.loc 1 644 9 is_stmt 1 view .LVU701
 644:BSP/display.c ****             GUI_BITMAP bmAv;
 2673              		.loc 1 644 12 is_stmt 0 view .LVU702
 2674 0336 002B     		cmp	r3, #0
 2675 0338 63D1     		bne	.L206
 2676              	.LVL275:
 2677              	.L175:
 2678              	.LBB26:
 657:BSP/display.c ****             bm.XSize = DISP_NAME_W; bm.YSize = DISP_NAME_H;
 2679              		.loc 1 657 13 is_stmt 1 view .LVU703
 658:BSP/display.c ****             bm.BytesPerLine = DISP_NAME_W / 8; bm.BitsPerPixel = 1;
 2680              		.loc 1 658 13 view .LVU704
 658:BSP/display.c ****             bm.BytesPerLine = DISP_NAME_W / 8; bm.BitsPerPixel = 1;
 2681              		.loc 1 658 22 is_stmt 0 view .LVU705
 2682 033a 4FF0500B 		mov	fp, #80
 2683 033e ADF808B0 		strh	fp, [sp, #8]	@ movhi
 658:BSP/display.c ****             bm.BytesPerLine = DISP_NAME_W / 8; bm.BitsPerPixel = 1;
 2684              		.loc 1 658 37 is_stmt 1 view .LVU706
 658:BSP/display.c ****             bm.BytesPerLine = DISP_NAME_W / 8; bm.BitsPerPixel = 1;
 2685              		.loc 1 658 46 is_stmt 0 view .LVU707
 2686 0342 1027     		movs	r7, #16
 2687 0344 ADF80A70 		strh	r7, [sp, #10]	@ movhi
 659:BSP/display.c ****             bm.pData = s_cardBitmap.name; bm.pPal = NULL;
 2688              		.loc 1 659 13 is_stmt 1 view .LVU708
 659:BSP/display.c ****             bm.pData = s_cardBitmap.name; bm.pPal = NULL;
 2689              		.loc 1 659 29 is_stmt 0 view .LVU709
 2690 0348 4FF00A0A 		mov	r10, #10
 2691 034c ADF80CA0 		strh	r10, [sp, #12]	@ movhi
 659:BSP/display.c ****             bm.pData = s_cardBitmap.name; bm.pPal = NULL;
 2692              		.loc 1 659 48 is_stmt 1 view .LVU710
 659:BSP/display.c ****             bm.pData = s_cardBitmap.name; bm.pPal = NULL;
 2693              		.loc 1 659 64 is_stmt 0 view .LVU711
 2694 0350 4FF00103 		mov	r3, #1	@ movhi
 2695 0354 ADF80E30 		strh	r3, [sp, #14]	@ movhi
 660:BSP/display.c ****             GUI_DrawBitmap(&bm, xOff, 0);
 2696              		.loc 1 660 13 is_stmt 1 view .LVU712
ARM GAS  C:\Users\24120\AppData\Local\Temp\cciaFKJB.s 			page 71


 660:BSP/display.c ****             GUI_DrawBitmap(&bm, xOff, 0);
 2697              		.loc 1 660 22 is_stmt 0 view .LVU713
 2698 0358 6D4D     		ldr	r5, .L213+4
 2699              	.LVL276:
 660:BSP/display.c ****             GUI_DrawBitmap(&bm, xOff, 0);
 2700              		.loc 1 660 22 view .LVU714
 2701 035a 0495     		str	r5, [sp, #16]
 660:BSP/display.c ****             GUI_DrawBitmap(&bm, xOff, 0);
 2702              		.loc 1 660 43 is_stmt 1 view .LVU715
 660:BSP/display.c ****             GUI_DrawBitmap(&bm, xOff, 0);
 2703              		.loc 1 660 51 is_stmt 0 view .LVU716
 2704 035c 4FF00008 		mov	r8, #0
 2705 0360 CDF81480 		str	r8, [sp, #20]
 661:BSP/display.c ****         }
 2706              		.loc 1 661 13 is_stmt 1 view .LVU717
 2707 0364 0DF10809 		add	r9, sp, #8
 2708 0368 4246     		mov	r2, r8
 2709 036a 3146     		mov	r1, r6
 2710 036c 4846     		mov	r0, r9
 2711 036e FFF7FEFF 		bl	GUI_DrawBitmap
 2712              	.LVL277:
 2713              	.LBE26:
 2714              	.LBB27:
 665:BSP/display.c ****             bm.XSize = DISP_DEPT_W; bm.YSize = DISP_DEPT_H;
 2715              		.loc 1 665 13 view .LVU718
 666:BSP/display.c ****             bm.BytesPerLine = DISP_DEPT_W / 8; bm.BitsPerPixel = 1;
 2716              		.loc 1 666 13 view .LVU719
 666:BSP/display.c ****             bm.BytesPerLine = DISP_DEPT_W / 8; bm.BitsPerPixel = 1;
 2717              		.loc 1 666 22 is_stmt 0 view .LVU720
 2718 0372 ADF808B0 		strh	fp, [sp, #8]	@ movhi
 666:BSP/display.c ****             bm.BytesPerLine = DISP_DEPT_W / 8; bm.BitsPerPixel = 1;
 2719              		.loc 1 666 37 is_stmt 1 view .LVU721
 666:BSP/display.c ****             bm.BytesPerLine = DISP_DEPT_W / 8; bm.BitsPerPixel = 1;
 2720              		.loc 1 666 46 is_stmt 0 view .LVU722
 2721 0376 ADF80A70 		strh	r7, [sp, #10]	@ movhi
 667:BSP/display.c ****             bm.pData = s_cardBitmap.dept; bm.pPal = NULL;
 2722              		.loc 1 667 13 is_stmt 1 view .LVU723
 667:BSP/display.c ****             bm.pData = s_cardBitmap.dept; bm.pPal = NULL;
 2723              		.loc 1 667 29 is_stmt 0 view .LVU724
 2724 037a ADF80CA0 		strh	r10, [sp, #12]	@ movhi
 667:BSP/display.c ****             bm.pData = s_cardBitmap.dept; bm.pPal = NULL;
 2725              		.loc 1 667 48 is_stmt 1 view .LVU725
 667:BSP/display.c ****             bm.pData = s_cardBitmap.dept; bm.pPal = NULL;
 2726              		.loc 1 667 64 is_stmt 0 view .LVU726
 2727 037e 4FF00103 		mov	r3, #1	@ movhi
 2728 0382 ADF80E30 		strh	r3, [sp, #14]	@ movhi
 668:BSP/display.c ****             GUI_DrawBitmap(&bm, xOff, 16);
 2729              		.loc 1 668 13 is_stmt 1 view .LVU727
 668:BSP/display.c ****             GUI_DrawBitmap(&bm, xOff, 16);
 2730              		.loc 1 668 22 is_stmt 0 view .LVU728
 2731 0386 A035     		adds	r5, r5, #160
 2732 0388 0495     		str	r5, [sp, #16]
 668:BSP/display.c ****             GUI_DrawBitmap(&bm, xOff, 16);
 2733              		.loc 1 668 43 is_stmt 1 view .LVU729
 668:BSP/display.c ****             GUI_DrawBitmap(&bm, xOff, 16);
 2734              		.loc 1 668 51 is_stmt 0 view .LVU730
 2735 038a CDF81480 		str	r8, [sp, #20]
ARM GAS  C:\Users\24120\AppData\Local\Temp\cciaFKJB.s 			page 72


 669:BSP/display.c ****         }
 2736              		.loc 1 669 13 is_stmt 1 view .LVU731
 2737 038e 3A46     		mov	r2, r7
 2738 0390 3146     		mov	r1, r6
 2739 0392 4846     		mov	r0, r9
 2740 0394 FFF7FEFF 		bl	GUI_DrawBitmap
 2741              	.LVL278:
 2742              	.LBE27:
 672:BSP/display.c ****             sprintf(buf, "\xe7\xad\xbe\xe5\x88\xb0 %02d:%02d:%02d",
 2743              		.loc 1 672 9 view .LVU732
 672:BSP/display.c ****             sprintf(buf, "\xe7\xad\xbe\xe5\x88\xb0 %02d:%02d:%02d",
 2744              		.loc 1 672 18 is_stmt 0 view .LVU733
 2745 0398 637F     		ldrb	r3, [r4, #29]	@ zero_extendqisi2
 672:BSP/display.c ****             sprintf(buf, "\xe7\xad\xbe\xe5\x88\xb0 %02d:%02d:%02d",
 2746              		.loc 1 672 12 view .LVU734
 2747 039a 002B     		cmp	r3, #0
 2748 039c 46D0     		beq	.L207
 675:BSP/display.c ****             uint32_t d = pInfo->durationSec / 86400;
 2749              		.loc 1 675 16 is_stmt 1 view .LVU735
 675:BSP/display.c ****             uint32_t d = pInfo->durationSec / 86400;
 2750              		.loc 1 675 25 is_stmt 0 view .LVU736
 2751 039e 216A     		ldr	r1, [r4, #32]
 675:BSP/display.c ****             uint32_t d = pInfo->durationSec / 86400;
 2752              		.loc 1 675 19 view .LVU737
 2753 03a0 0029     		cmp	r1, #0
 2754 03a2 6DD0     		beq	.L178
 2755              	.LBB28:
 676:BSP/display.c ****             uint32_t h = (pInfo->durationSec % 86400) / 3600;
 2756              		.loc 1 676 13 is_stmt 1 view .LVU738
 676:BSP/display.c ****             uint32_t h = (pInfo->durationSec % 86400) / 3600;
 2757              		.loc 1 676 22 is_stmt 0 view .LVU739
 2758 03a4 5B4B     		ldr	r3, .L213+8
 2759 03a6 A3FB0123 		umull	r2, r3, r3, r1
 2760 03aa 1D0C     		lsrs	r5, r3, #16
 2761              	.LVL279:
 677:BSP/display.c ****             uint32_t m = (pInfo->durationSec % 3600) / 60;
 2762              		.loc 1 677 13 is_stmt 1 view .LVU740
 677:BSP/display.c ****             uint32_t m = (pInfo->durationSec % 3600) / 60;
 2763              		.loc 1 677 46 is_stmt 0 view .LVU741
 2764 03ac 5A4F     		ldr	r7, .L213+12
 2765 03ae 07FB1517 		mls	r7, r7, r5, r1
 677:BSP/display.c ****             uint32_t m = (pInfo->durationSec % 3600) / 60;
 2766              		.loc 1 677 22 view .LVU742
 2767 03b2 5A48     		ldr	r0, .L213+16
 2768 03b4 A0FB0732 		umull	r3, r2, r0, r7
 2769 03b8 D20A     		lsrs	r2, r2, #11
 2770              	.LVL280:
 678:BSP/display.c ****             uint32_t s = pInfo->durationSec % 60;
 2771              		.loc 1 678 13 is_stmt 1 view .LVU743
 678:BSP/display.c ****             uint32_t s = pInfo->durationSec % 60;
 2772              		.loc 1 678 46 is_stmt 0 view .LVU744
 2773 03ba A0FB0130 		umull	r3, r0, r0, r1
 2774 03be C00A     		lsrs	r0, r0, #11
 2775 03c0 4FF46163 		mov	r3, #3600
 2776 03c4 03FB1010 		mls	r0, r3, r0, r1
 678:BSP/display.c ****             uint32_t s = pInfo->durationSec % 60;
 2777              		.loc 1 678 22 view .LVU745
ARM GAS  C:\Users\24120\AppData\Local\Temp\cciaFKJB.s 			page 73


 2778 03c8 554B     		ldr	r3, .L213+20
 2779 03ca A3FB00EC 		umull	lr, ip, r3, r0
 2780 03ce 4FEA5C1E 		lsr	lr, ip, #5
 2781              	.LVL281:
 679:BSP/display.c ****             if (d > 0)
 2782              		.loc 1 679 13 is_stmt 1 view .LVU746
 679:BSP/display.c ****             if (d > 0)
 2783              		.loc 1 679 22 is_stmt 0 view .LVU747
 2784 03d2 A3FB01C3 		umull	ip, r3, r3, r1
 2785 03d6 5B09     		lsrs	r3, r3, #5
 2786 03d8 C3EB0313 		rsb	r3, r3, r3, lsl #4
 2787 03dc A1EB8303 		sub	r3, r1, r3, lsl #2
 2788              	.LVL282:
 680:BSP/display.c ****                 sprintf(buf, "\xe7\xa6\xbb\xe5\xbc\x80 %lud\xe5\xa4\xa9%luh\xe6\x97\xb6%lum\xe5\x88
 2789              		.loc 1 680 13 is_stmt 1 view .LVU748
 680:BSP/display.c ****                 sprintf(buf, "\xe7\xa6\xbb\xe5\xbc\x80 %lud\xe5\xa4\xa9%luh\xe6\x97\xb6%lum\xe5\x88
 2790              		.loc 1 680 16 is_stmt 0 view .LVU749
 2791 03e0 DFF860C1 		ldr	ip, .L213+56
 2792 03e4 6145     		cmp	r1, ip
 2793 03e6 34D8     		bhi	.L208
 682:BSP/display.c ****                 sprintf(buf, "\xe7\xa6\xbb\xe5\xbc\x80 %luh\xe6\x97\xb6%lum\xe5\x88\x86%lus\xe7\xa7
 2794              		.loc 1 682 18 is_stmt 1 view .LVU750
 682:BSP/display.c ****                 sprintf(buf, "\xe7\xa6\xbb\xe5\xbc\x80 %luh\xe6\x97\xb6%lum\xe5\x88\x86%lus\xe7\xa7
 2795              		.loc 1 682 21 is_stmt 0 view .LVU751
 2796 03e8 B7F5616F 		cmp	r7, #3600
 2797 03ec 3BD2     		bcs	.L209
 684:BSP/display.c ****                 sprintf(buf, "\xe7\xa6\xbb\xe5\xbc\x80 %lum\xe5\x88\x86%lus\xe7\xa7\x92", m, s);
 2798              		.loc 1 684 18 is_stmt 1 view .LVU752
 684:BSP/display.c ****                 sprintf(buf, "\xe7\xa6\xbb\xe5\xbc\x80 %lum\xe5\x88\x86%lus\xe7\xa7\x92", m, s);
 2799              		.loc 1 684 21 is_stmt 0 view .LVU753
 2800 03ee 3B28     		cmp	r0, #59
 2801 03f0 40D9     		bls	.L181
 685:BSP/display.c ****             else
 2802              		.loc 1 685 17 is_stmt 1 view .LVU754
 2803 03f2 7246     		mov	r2, lr
 2804              	.LVL283:
 685:BSP/display.c ****             else
 2805              		.loc 1 685 17 is_stmt 0 view .LVU755
 2806 03f4 4B49     		ldr	r1, .L213+24
 2807 03f6 06A8     		add	r0, sp, #24
 2808 03f8 FFF7FEFF 		bl	sprintf
 2809              	.LVL284:
 685:BSP/display.c ****             else
 2810              		.loc 1 685 17 view .LVU756
 2811 03fc 1EE0     		b	.L177
 2812              	.LVL285:
 2813              	.L190:
 685:BSP/display.c ****             else
 2814              		.loc 1 685 17 view .LVU757
 2815              	.LBE28:
 641:BSP/display.c **** 
 2816              		.loc 1 641 48 discriminator 2 view .LVU758
 2817 03fe 0026     		movs	r6, #0
 2818 0400 99E7     		b	.L174
 2819              	.LVL286:
 2820              	.L206:
 2821              	.LBB29:
ARM GAS  C:\Users\24120\AppData\Local\Temp\cciaFKJB.s 			page 74


 645:BSP/display.c ****             bmAv.XSize = DISP_AVATAR_W;
 2822              		.loc 1 645 13 is_stmt 1 view .LVU759
 646:BSP/display.c ****             bmAv.YSize = DISP_AVATAR_H;
 2823              		.loc 1 646 13 view .LVU760
 646:BSP/display.c ****             bmAv.YSize = DISP_AVATAR_H;
 2824              		.loc 1 646 24 is_stmt 0 view .LVU761
 2825 0402 3023     		movs	r3, #48
 2826 0404 ADF80830 		strh	r3, [sp, #8]	@ movhi
 2827              	.LVL287:
 647:BSP/display.c ****             bmAv.BytesPerLine = DISP_AVATAR_W / 8;
 2828              		.loc 1 647 13 is_stmt 1 view .LVU762
 647:BSP/display.c ****             bmAv.BytesPerLine = DISP_AVATAR_W / 8;
 2829              		.loc 1 647 24 is_stmt 0 view .LVU763
 2830 0408 4023     		movs	r3, #64
 2831 040a ADF80A30 		strh	r3, [sp, #10]	@ movhi
 648:BSP/display.c ****             bmAv.BitsPerPixel = 1;
 2832              		.loc 1 648 13 is_stmt 1 view .LVU764
 648:BSP/display.c ****             bmAv.BitsPerPixel = 1;
 2833              		.loc 1 648 31 is_stmt 0 view .LVU765
 2834 040e 0623     		movs	r3, #6
 2835 0410 ADF80C30 		strh	r3, [sp, #12]	@ movhi
 649:BSP/display.c ****             bmAv.pData = s_cardBitmap.avatar;
 2836              		.loc 1 649 13 is_stmt 1 view .LVU766
 649:BSP/display.c ****             bmAv.pData = s_cardBitmap.avatar;
 2837              		.loc 1 649 31 is_stmt 0 view .LVU767
 2838 0414 0123     		movs	r3, #1
 2839 0416 ADF80E30 		strh	r3, [sp, #14]	@ movhi
 650:BSP/display.c ****             bmAv.pPal = NULL;
 2840              		.loc 1 650 13 is_stmt 1 view .LVU768
 650:BSP/display.c ****             bmAv.pPal = NULL;
 2841              		.loc 1 650 24 is_stmt 0 view .LVU769
 2842 041a 434B     		ldr	r3, .L213+28
 2843 041c 0493     		str	r3, [sp, #16]
 651:BSP/display.c ****             GUI_DrawBitmap(&bmAv, 0, 0);
 2844              		.loc 1 651 13 is_stmt 1 view .LVU770
 651:BSP/display.c ****             GUI_DrawBitmap(&bmAv, 0, 0);
 2845              		.loc 1 651 23 is_stmt 0 view .LVU771
 2846 041e 0021     		movs	r1, #0
 2847 0420 0591     		str	r1, [sp, #20]
 652:BSP/display.c ****         }
 2848              		.loc 1 652 13 is_stmt 1 view .LVU772
 2849 0422 0A46     		mov	r2, r1
 2850 0424 02A8     		add	r0, sp, #8
 2851 0426 FFF7FEFF 		bl	GUI_DrawBitmap
 2852              	.LVL288:
 2853 042a 86E7     		b	.L175
 2854              	.LVL289:
 2855              	.L207:
 652:BSP/display.c ****         }
 2856              		.loc 1 652 13 is_stmt 0 view .LVU773
 2857              	.LBE29:
 673:BSP/display.c ****                     pInfo->swipeHour, pInfo->swipeMinute, pInfo->swipeSecond);
 2858              		.loc 1 673 13 is_stmt 1 view .LVU774
 674:BSP/display.c ****         } else if (pInfo->durationSec > 0) {
 2859              		.loc 1 674 64 is_stmt 0 view .LVU775
 2860 042c 237F     		ldrb	r3, [r4, #28]	@ zero_extendqisi2
 673:BSP/display.c ****                     pInfo->swipeHour, pInfo->swipeMinute, pInfo->swipeSecond);
ARM GAS  C:\Users\24120\AppData\Local\Temp\cciaFKJB.s 			page 75


 2861              		.loc 1 673 13 view .LVU776
 2862 042e 0093     		str	r3, [sp]
 2863 0430 E37E     		ldrb	r3, [r4, #27]	@ zero_extendqisi2
 2864 0432 A27E     		ldrb	r2, [r4, #26]	@ zero_extendqisi2
 2865 0434 3D49     		ldr	r1, .L213+32
 2866 0436 06A8     		add	r0, sp, #24
 2867 0438 FFF7FEFF 		bl	sprintf
 2868              	.LVL290:
 2869              	.L177:
 692:BSP/display.c **** 
 2870              		.loc 1 692 9 is_stmt 1 view .LVU777
 2871 043c 3022     		movs	r2, #48
 2872 043e 3146     		mov	r1, r6
 2873 0440 06A8     		add	r0, sp, #24
 2874 0442 FFF7FEFF 		bl	GUI_DispStringAt
 2875              	.LVL291:
 695:BSP/display.c ****             sprintf(buf, "\xe5\xb7\xa5\xe5\x8f\xb7:%lu", (unsigned long)pInfo->sid);
 2876              		.loc 1 695 9 view .LVU778
 695:BSP/display.c ****             sprintf(buf, "\xe5\xb7\xa5\xe5\x8f\xb7:%lu", (unsigned long)pInfo->sid);
 2877              		.loc 1 695 26 is_stmt 0 view .LVU779
 2878 0446 314B     		ldr	r3, .L213
 2879 0448 1B78     		ldrb	r3, [r3]	@ zero_extendqisi2
 695:BSP/display.c ****             sprintf(buf, "\xe5\xb7\xa5\xe5\x8f\xb7:%lu", (unsigned long)pInfo->sid);
 2880              		.loc 1 695 12 view .LVU780
 2881 044a 13B3     		cbz	r3, .L210
 2882              	.L182:
 700:BSP/display.c ****         return;
 2883              		.loc 1 700 9 is_stmt 1 view .LVU781
 2884 044c FFF7FEFF 		bl	GUI_Update
 2885              	.LVL292:
 701:BSP/display.c ****     }
 2886              		.loc 1 701 9 view .LVU782
 2887 0450 7DE6     		b	.L155
 2888              	.LVL293:
 2889              	.L208:
 2890              	.LBB30:
 681:BSP/display.c ****             else if (h > 0)
 2891              		.loc 1 681 17 view .LVU783
 2892 0452 0193     		str	r3, [sp, #4]
 2893 0454 CDF800E0 		str	lr, [sp]
 2894 0458 1346     		mov	r3, r2
 2895              	.LVL294:
 681:BSP/display.c ****             else if (h > 0)
 2896              		.loc 1 681 17 is_stmt 0 view .LVU784
 2897 045a 2A46     		mov	r2, r5
 2898              	.LVL295:
 681:BSP/display.c ****             else if (h > 0)
 2899              		.loc 1 681 17 view .LVU785
 2900 045c 3449     		ldr	r1, .L213+36
 2901 045e 06A8     		add	r0, sp, #24
 2902 0460 FFF7FEFF 		bl	sprintf
 2903              	.LVL296:
 681:BSP/display.c ****             else if (h > 0)
 2904              		.loc 1 681 17 view .LVU786
 2905 0464 EAE7     		b	.L177
 2906              	.LVL297:
 2907              	.L209:
ARM GAS  C:\Users\24120\AppData\Local\Temp\cciaFKJB.s 			page 76


 683:BSP/display.c ****             else if (m > 0)
 2908              		.loc 1 683 17 is_stmt 1 view .LVU787
 2909 0466 0093     		str	r3, [sp]
 2910 0468 7346     		mov	r3, lr
 2911              	.LVL298:
 683:BSP/display.c ****             else if (m > 0)
 2912              		.loc 1 683 17 is_stmt 0 view .LVU788
 2913 046a 3249     		ldr	r1, .L213+40
 2914 046c 06A8     		add	r0, sp, #24
 2915 046e FFF7FEFF 		bl	sprintf
 2916              	.LVL299:
 683:BSP/display.c ****             else if (m > 0)
 2917              		.loc 1 683 17 view .LVU789
 2918 0472 E3E7     		b	.L177
 2919              	.LVL300:
 2920              	.L181:
 687:BSP/display.c ****         } else {
 2921              		.loc 1 687 17 is_stmt 1 view .LVU790
 2922 0474 1A46     		mov	r2, r3
 2923              	.LVL301:
 687:BSP/display.c ****         } else {
 2924              		.loc 1 687 17 is_stmt 0 view .LVU791
 2925 0476 3049     		ldr	r1, .L213+44
 2926 0478 06A8     		add	r0, sp, #24
 2927 047a FFF7FEFF 		bl	sprintf
 2928              	.LVL302:
 687:BSP/display.c ****         } else {
 2929              		.loc 1 687 17 view .LVU792
 2930 047e DDE7     		b	.L177
 2931              	.LVL303:
 2932              	.L178:
 687:BSP/display.c ****         } else {
 2933              		.loc 1 687 17 view .LVU793
 2934              	.LBE30:
 689:BSP/display.c ****                     pInfo->swipeHour, pInfo->swipeMinute, pInfo->swipeSecond);
 2935              		.loc 1 689 13 is_stmt 1 view .LVU794
 690:BSP/display.c ****         }
 2936              		.loc 1 690 64 is_stmt 0 view .LVU795
 2937 0480 237F     		ldrb	r3, [r4, #28]	@ zero_extendqisi2
 689:BSP/display.c ****                     pInfo->swipeHour, pInfo->swipeMinute, pInfo->swipeSecond);
 2938              		.loc 1 689 13 view .LVU796
 2939 0482 0093     		str	r3, [sp]
 2940 0484 E37E     		ldrb	r3, [r4, #27]	@ zero_extendqisi2
 2941 0486 A27E     		ldrb	r2, [r4, #26]	@ zero_extendqisi2
 2942 0488 2C49     		ldr	r1, .L213+48
 2943 048a 06A8     		add	r0, sp, #24
 2944 048c FFF7FEFF 		bl	sprintf
 2945              	.LVL304:
 2946 0490 D4E7     		b	.L177
 2947              	.L210:
 696:BSP/display.c ****             GUI_DispStringAt(buf, xOff, 32);
 2948              		.loc 1 696 13 is_stmt 1 view .LVU797
 2949 0492 06AD     		add	r5, sp, #24
 2950 0494 2269     		ldr	r2, [r4, #16]
 2951 0496 2A49     		ldr	r1, .L213+52
 2952 0498 2846     		mov	r0, r5
 2953 049a FFF7FEFF 		bl	sprintf
ARM GAS  C:\Users\24120\AppData\Local\Temp\cciaFKJB.s 			page 77


 2954              	.LVL305:
 697:BSP/display.c ****         }
 2955              		.loc 1 697 13 view .LVU798
 2956 049e 2022     		movs	r2, #32
 2957 04a0 3146     		mov	r1, r6
 2958 04a2 2846     		mov	r0, r5
 2959 04a4 FFF7FEFF 		bl	GUI_DispStringAt
 2960              	.LVL306:
 2961 04a8 D0E7     		b	.L182
 2962              	.LVL307:
 2963              	.L201:
 697:BSP/display.c ****         }
 2964              		.loc 1 697 13 is_stmt 0 view .LVU799
 2965              	.LBE25:
 730:BSP/display.c ****                 pInfo->swipeHour, pInfo->swipeMinute, pInfo->swipeSecond);
 2966              		.loc 1 730 9 is_stmt 1 view .LVU800
 731:BSP/display.c ****     } else if (pInfo->durationSec > 0) {
 2967              		.loc 1 731 60 is_stmt 0 view .LVU801
 2968 04aa 237F     		ldrb	r3, [r4, #28]	@ zero_extendqisi2
 730:BSP/display.c ****                 pInfo->swipeHour, pInfo->swipeMinute, pInfo->swipeSecond);
 2969              		.loc 1 730 9 view .LVU802
 2970 04ac 0093     		str	r3, [sp]
 2971 04ae E37E     		ldrb	r3, [r4, #27]	@ zero_extendqisi2
 2972 04b0 A27E     		ldrb	r2, [r4, #26]	@ zero_extendqisi2
 2973 04b2 1E49     		ldr	r1, .L213+32
 2974 04b4 2846     		mov	r0, r5
 2975 04b6 FFF7FEFF 		bl	sprintf
 2976              	.LVL308:
 2977              	.L184:
 749:BSP/display.c **** 
 2978              		.loc 1 749 5 is_stmt 1 view .LVU803
 2979 04ba 3022     		movs	r2, #48
 2980 04bc 4021     		movs	r1, #64
 2981 04be 06A8     		add	r0, sp, #24
 2982 04c0 FFF7FEFF 		bl	GUI_DispStringHCenterAt
 2983              	.LVL309:
 751:BSP/display.c **** }
 2984              		.loc 1 751 5 view .LVU804
 2985 04c4 FFF7FEFF 		bl	GUI_Update
 2986              	.LVL310:
 2987 04c8 41E6     		b	.L155
 2988              	.LVL311:
 2989              	.L202:
 2990              	.LBB31:
 738:BSP/display.c ****         else if (h > 0)
 2991              		.loc 1 738 13 view .LVU805
 2992 04ca 0193     		str	r3, [sp, #4]
 2993 04cc 0095     		str	r5, [sp]
 2994 04ce 1346     		mov	r3, r2
 2995              	.LVL312:
 738:BSP/display.c ****         else if (h > 0)
 2996              		.loc 1 738 13 is_stmt 0 view .LVU806
 2997 04d0 2246     		mov	r2, r4
 2998              	.LVL313:
 738:BSP/display.c ****         else if (h > 0)
 2999              		.loc 1 738 13 view .LVU807
 3000 04d2 1749     		ldr	r1, .L213+36
ARM GAS  C:\Users\24120\AppData\Local\Temp\cciaFKJB.s 			page 78


 3001 04d4 06A8     		add	r0, sp, #24
 3002 04d6 FFF7FEFF 		bl	sprintf
 3003              	.LVL314:
 738:BSP/display.c ****         else if (h > 0)
 3004              		.loc 1 738 13 view .LVU808
 3005 04da EEE7     		b	.L184
 3006              	.LVL315:
 3007              	.L203:
 740:BSP/display.c ****         else if (m > 0)
 3008              		.loc 1 740 13 is_stmt 1 view .LVU809
 3009 04dc 0093     		str	r3, [sp]
 3010 04de 2B46     		mov	r3, r5
 3011              	.LVL316:
 740:BSP/display.c ****         else if (m > 0)
 3012              		.loc 1 740 13 is_stmt 0 view .LVU810
 3013 04e0 1449     		ldr	r1, .L213+40
 3014 04e2 06A8     		add	r0, sp, #24
 3015 04e4 FFF7FEFF 		bl	sprintf
 3016              	.LVL317:
 740:BSP/display.c ****         else if (m > 0)
 3017              		.loc 1 740 13 view .LVU811
 3018 04e8 E7E7     		b	.L184
 3019              	.LVL318:
 3020              	.L188:
 744:BSP/display.c ****     } else {
 3021              		.loc 1 744 13 is_stmt 1 view .LVU812
 3022 04ea 1A46     		mov	r2, r3
 3023              	.LVL319:
 744:BSP/display.c ****     } else {
 3024              		.loc 1 744 13 is_stmt 0 view .LVU813
 3025 04ec 1249     		ldr	r1, .L213+44
 3026 04ee 06A8     		add	r0, sp, #24
 3027 04f0 FFF7FEFF 		bl	sprintf
 3028              	.LVL320:
 744:BSP/display.c ****     } else {
 3029              		.loc 1 744 13 view .LVU814
 3030 04f4 E1E7     		b	.L184
 3031              	.LVL321:
 3032              	.L185:
 744:BSP/display.c ****     } else {
 3033              		.loc 1 744 13 view .LVU815
 3034              	.LBE31:
 746:BSP/display.c ****                 pInfo->swipeHour, pInfo->swipeMinute, pInfo->swipeSecond);
 3035              		.loc 1 746 9 is_stmt 1 view .LVU816
 747:BSP/display.c ****     }
 3036              		.loc 1 747 60 is_stmt 0 view .LVU817
 3037 04f6 237F     		ldrb	r3, [r4, #28]	@ zero_extendqisi2
 746:BSP/display.c ****                 pInfo->swipeHour, pInfo->swipeMinute, pInfo->swipeSecond);
 3038              		.loc 1 746 9 view .LVU818
 3039 04f8 0093     		str	r3, [sp]
 3040 04fa E37E     		ldrb	r3, [r4, #27]	@ zero_extendqisi2
 3041 04fc A27E     		ldrb	r2, [r4, #26]	@ zero_extendqisi2
 3042 04fe 0F49     		ldr	r1, .L213+48
 3043 0500 06A8     		add	r0, sp, #24
 3044 0502 FFF7FEFF 		bl	sprintf
 3045              	.LVL322:
 3046 0506 D8E7     		b	.L184
ARM GAS  C:\Users\24120\AppData\Local\Temp\cciaFKJB.s 			page 79


 3047              	.LVL323:
 3048              	.L193:
 3049              	.LCFI26:
 3050              		.cfi_def_cfa_offset 0
 3051              		.cfi_restore 4
 3052              		.cfi_restore 5
 3053              		.cfi_restore 6
 3054              		.cfi_restore 7
 3055              		.cfi_restore 8
 3056              		.cfi_restore 9
 3057              		.cfi_restore 10
 3058              		.cfi_restore 11
 3059              		.cfi_restore 14
 746:BSP/display.c ****                 pInfo->swipeHour, pInfo->swipeMinute, pInfo->swipeSecond);
 3060              		.loc 1 746 9 view .LVU819
 3061 0508 7047     		bx	lr
 3062              	.L214:
 3063 050a 00BF     		.align	2
 3064              	.L213:
 3065 050c 00000000 		.word	s_cardBitmap
 3066 0510 81010000 		.word	s_cardBitmap+385
 3067 0514 07452EC2 		.word	-1037155065
 3068 0518 80510100 		.word	86400
 3069 051c C5B3A291 		.word	-1851608123
 3070 0520 89888888 		.word	-2004318071
 3071 0524 20010000 		.word	.LC27
 3072 0528 01000000 		.word	s_cardBitmap+1
 3073 052c C4000000 		.word	.LC24
 3074 0530 DC000000 		.word	.LC25
 3075 0534 00010000 		.word	.LC26
 3076 0538 38010000 		.word	.LC28
 3077 053c 48010000 		.word	.LC29
 3078 0540 60010000 		.word	.LC30
 3079 0544 7F510100 		.word	86399
 3080              		.cfi_endproc
 3081              	.LFE266:
 3083              		.section	.rodata.DISP_ShowTimeSet.str1.4,"aMS",%progbits,1
 3084              		.align	2
 3085              	.LC31:
 3086 0000 E697B6E9 		.ascii	"\346\227\266\351\227\264\350\256\276\347\275\256\000"
 3086      97B4E8AE 
 3086      BEE7BDAE 
 3086      00
 3087 000d 000000   		.align	2
 3088              	.LC32:
 3089 0010 25303464 		.ascii	"%04d\000"
 3089      00
 3090 0015 000000   		.align	2
 3091              	.LC33:
 3092 0018 25303264 		.ascii	"%02d\000"
 3092      00
 3093 001d 000000   		.align	2
 3094              	.LC34:
 3095 0020 312B342D 		.ascii	"1+4- <> 5\350\277\2246\345\255\230\000"
 3095      203C3E20 
 3095      35E8BF94 
 3095      36E5AD98 
ARM GAS  C:\Users\24120\AppData\Local\Temp\cciaFKJB.s 			page 80


 3095      00
 3096              		.section	.text.DISP_ShowTimeSet,"ax",%progbits
 3097              		.align	1
 3098              		.global	DISP_ShowTimeSet
 3099              		.syntax unified
 3100              		.thumb
 3101              		.thumb_func
 3103              	DISP_ShowTimeSet:
 3104              	.LFB267:
 753:BSP/display.c **** 
 754:BSP/display.c **** /* ====== 公开 API: TIME_SET 状态 ====== */
 755:BSP/display.c **** 
 756:BSP/display.c **** /** 光标闪烁周期 (ms) */
 757:BSP/display.c **** #define CURSOR_BLINK_MS   400
 758:BSP/display.c **** 
 759:BSP/display.c **** void DISP_ShowTimeSet(void)
 760:BSP/display.c **** {
 3105              		.loc 1 760 1 is_stmt 1 view -0
 3106              		.cfi_startproc
 3107              		@ args = 0, pretend = 0, frame = 56
 3108              		@ frame_needed = 0, uses_anonymous_args = 0
 3109 0000 70B5     		push	{r4, r5, r6, lr}
 3110              	.LCFI27:
 3111              		.cfi_def_cfa_offset 16
 3112              		.cfi_offset 4, -16
 3113              		.cfi_offset 5, -12
 3114              		.cfi_offset 6, -8
 3115              		.cfi_offset 14, -4
 3116 0002 90B0     		sub	sp, sp, #64
 3117              	.LCFI28:
 3118              		.cfi_def_cfa_offset 80
 761:BSP/display.c ****     BSP_RTC_DateTime_t *dt = &s_timeSet.dt;
 3119              		.loc 1 761 5 view .LVU821
 3120              	.LVL324:
 762:BSP/display.c ****     char buf[32];
 3121              		.loc 1 762 5 view .LVU822
 763:BSP/display.c ****     int blinkOn;
 3122              		.loc 1 763 5 view .LVU823
 764:BSP/display.c ****     int xPos[6] = {24, 64, 88, 32, 56, 80};  /* 居中后的字段 X 坐标 */
 3123              		.loc 1 764 5 view .LVU824
 3124              		.loc 1 764 9 is_stmt 0 view .LVU825
 3125 0004 0DF1080C 		add	ip, sp, #8
 3126 0008 4D4C     		ldr	r4, .L231
 3127 000a 0FCC     		ldmia	r4!, {r0, r1, r2, r3}
 3128 000c ACE80F00 		stmia	ip!, {r0, r1, r2, r3}
 3129 0010 94E80300 		ldm	r4, {r0, r1}
 3130 0014 8CE80300 		stm	ip, {r0, r1}
 765:BSP/display.c ****     int yLine1 = 16, yLine2 = 32;
 3131              		.loc 1 765 5 is_stmt 1 view .LVU826
 3132              	.LVL325:
 766:BSP/display.c **** 
 767:BSP/display.c ****     /* 光标闪烁 */
 768:BSP/display.c ****     uint32_t elapsed = osKernelGetTickCount() - s_timeSet.enterTick;
 3133              		.loc 1 768 5 view .LVU827
 3134              		.loc 1 768 24 is_stmt 0 view .LVU828
 3135 0018 FFF7FEFF 		bl	osKernelGetTickCount
 3136              	.LVL326:
ARM GAS  C:\Users\24120\AppData\Local\Temp\cciaFKJB.s 			page 81


 3137              		.loc 1 768 58 discriminator 1 view .LVU829
 3138 001c 494D     		ldr	r5, .L231+4
 3139 001e EB68     		ldr	r3, [r5, #12]
 3140              		.loc 1 768 14 discriminator 1 view .LVU830
 3141 0020 C41A     		subs	r4, r0, r3
 3142              	.LVL327:
 769:BSP/display.c ****     blinkOn = ((elapsed / CURSOR_BLINK_MS) % 2) == 0;
 3143              		.loc 1 769 5 is_stmt 1 view .LVU831
 3144              		.loc 1 769 25 is_stmt 0 view .LVU832
 3145 0022 494B     		ldr	r3, .L231+8
 3146 0024 A3FB0434 		umull	r3, r4, r3, r4
 3147              	.LVL328:
 3148              		.loc 1 769 44 view .LVU833
 3149 0028 C4F3C014 		ubfx	r4, r4, #7, #1
 3150              	.LVL329:
 770:BSP/display.c **** 
 771:BSP/display.c ****     GUI_Clear();
 3151              		.loc 1 771 5 is_stmt 1 view .LVU834
 3152 002c FFF7FEFF 		bl	GUI_Clear
 3153              	.LVL330:
 772:BSP/display.c ****     GUI_SetColor(GUI_COLOR_WHITE);
 3154              		.loc 1 772 5 view .LVU835
 3155 0030 0120     		movs	r0, #1
 3156 0032 FFF7FEFF 		bl	GUI_SetColor
 3157              	.LVL331:
 773:BSP/display.c ****     GUI_SetFont((GUI_FONT *)&GUI_FontHZ_SimSun_16);
 3158              		.loc 1 773 5 view .LVU836
 3159 0036 4548     		ldr	r0, .L231+12
 3160 0038 FFF7FEFF 		bl	GUI_SetFont
 3161              	.LVL332:
 774:BSP/display.c **** 
 775:BSP/display.c ****     /* 标题 */
 776:BSP/display.c ****     GUI_DispStringHCenterAt(
 3162              		.loc 1 776 5 view .LVU837
 3163 003c 0022     		movs	r2, #0
 3164 003e 4021     		movs	r1, #64
 3165 0040 4348     		ldr	r0, .L231+16
 3166 0042 FFF7FEFF 		bl	GUI_DispStringHCenterAt
 3167              	.LVL333:
 777:BSP/display.c ****         "\xe6\x97\xb6\xe9\x97\xb4\xe8\xae\xbe\xe7\xbd\xae", 64, 0);  /* 时间设置 */
 778:BSP/display.c **** 
 779:BSP/display.c ****     /* 第一行: 年-月-日 (居中) */
 780:BSP/display.c ****     sprintf(buf, "%04d-%02d-%02d", dt->year, dt->month, dt->day);
 3168              		.loc 1 780 5 view .LVU838
 3169              		.loc 1 780 59 is_stmt 0 view .LVU839
 3170 0046 EB78     		ldrb	r3, [r5, #3]	@ zero_extendqisi2
 3171              		.loc 1 780 5 view .LVU840
 3172 0048 08AE     		add	r6, sp, #32
 3173 004a 0093     		str	r3, [sp]
 3174 004c AB78     		ldrb	r3, [r5, #2]	@ zero_extendqisi2
 3175 004e 2A88     		ldrh	r2, [r5]
 3176 0050 4049     		ldr	r1, .L231+20
 3177 0052 3046     		mov	r0, r6
 3178 0054 FFF7FEFF 		bl	sprintf
 3179              	.LVL334:
 781:BSP/display.c ****     GUI_DispStringHCenterAt(buf, 64, yLine1);
 3180              		.loc 1 781 5 is_stmt 1 view .LVU841
ARM GAS  C:\Users\24120\AppData\Local\Temp\cciaFKJB.s 			page 82


 3181 0058 1022     		movs	r2, #16
 3182 005a 4021     		movs	r1, #64
 3183 005c 3046     		mov	r0, r6
 3184 005e FFF7FEFF 		bl	GUI_DispStringHCenterAt
 3185              	.LVL335:
 782:BSP/display.c **** 
 783:BSP/display.c ****     /* 第二行: 时:分:秒 (居中) */
 784:BSP/display.c ****     sprintf(buf, "%02d:%02d:%02d", dt->hour, dt->minute, dt->second);
 3186              		.loc 1 784 5 view .LVU842
 3187              		.loc 1 784 60 is_stmt 0 view .LVU843
 3188 0062 EB79     		ldrb	r3, [r5, #7]	@ zero_extendqisi2
 3189              		.loc 1 784 5 view .LVU844
 3190 0064 0093     		str	r3, [sp]
 3191 0066 AB79     		ldrb	r3, [r5, #6]	@ zero_extendqisi2
 3192 0068 6A79     		ldrb	r2, [r5, #5]	@ zero_extendqisi2
 3193 006a 3B49     		ldr	r1, .L231+24
 3194 006c 3046     		mov	r0, r6
 3195 006e FFF7FEFF 		bl	sprintf
 3196              	.LVL336:
 785:BSP/display.c ****     GUI_DispStringHCenterAt(buf, 64, yLine2);
 3197              		.loc 1 785 5 is_stmt 1 view .LVU845
 3198 0072 2022     		movs	r2, #32
 3199 0074 4021     		movs	r1, #64
 3200 0076 3046     		mov	r0, r6
 3201 0078 FFF7FEFF 		bl	GUI_DispStringHCenterAt
 3202              	.LVL337:
 786:BSP/display.c **** 
 787:BSP/display.c ****     /* 光标: 反色绘制当前选中字段 */
 788:BSP/display.c ****     if (blinkOn) {
 3203              		.loc 1 788 5 view .LVU846
 3204              		.loc 1 788 8 is_stmt 0 view .LVU847
 3205 007c 002C     		cmp	r4, #0
 3206 007e 33D1     		bne	.L216
 3207              	.LBB32:
 789:BSP/display.c ****         int cx = xPos[s_timeSet.cursor];
 3208              		.loc 1 789 9 is_stmt 1 view .LVU848
 3209              		.loc 1 789 32 is_stmt 0 view .LVU849
 3210 0080 2B7A     		ldrb	r3, [r5, #8]	@ zero_extendqisi2
 3211              		.loc 1 789 13 view .LVU850
 3212 0082 10AA     		add	r2, sp, #64
 3213 0084 02EB8302 		add	r2, r2, r3, lsl #2
 3214 0088 52F8384C 		ldr	r4, [r2, #-56]
 3215              	.LVL338:
 790:BSP/display.c ****         int cy = (s_timeSet.cursor < 3) ? yLine1 : yLine2;
 3216              		.loc 1 790 9 is_stmt 1 view .LVU851
 3217              		.loc 1 790 50 is_stmt 0 view .LVU852
 3218 008c 022B     		cmp	r3, #2
 3219 008e 19D8     		bhi	.L227
 3220              		.loc 1 790 50 discriminator 1 view .LVU853
 3221 0090 1025     		movs	r5, #16
 3222              	.L217:
 3223              	.LVL339:
 791:BSP/display.c ****         int cw = (s_timeSet.cursor == 0) ? 32 : 16;  /* 年宽4位, 其他宽2位 */
 3224              		.loc 1 791 9 is_stmt 1 view .LVU854
 3225              		.loc 1 791 47 is_stmt 0 view .LVU855
 3226 0092 CBB9     		cbnz	r3, .L228
 3227              		.loc 1 791 47 discriminator 1 view .LVU856
ARM GAS  C:\Users\24120\AppData\Local\Temp\cciaFKJB.s 			page 83


 3228 0094 2026     		movs	r6, #32
 3229              	.L218:
 3230              	.LVL340:
 792:BSP/display.c ****         GUI_SetColor(GUI_COLOR_WHITE);
 3231              		.loc 1 792 9 is_stmt 1 view .LVU857
 3232 0096 0120     		movs	r0, #1
 3233 0098 FFF7FEFF 		bl	GUI_SetColor
 3234              	.LVL341:
 793:BSP/display.c ****         GUI_FillRect(cx, cy - 1, cx + cw - 1, cy + 15);
 3235              		.loc 1 793 9 view .LVU858
 3236              		.loc 1 793 37 is_stmt 0 view .LVU859
 3237 009c 3219     		adds	r2, r6, r4
 3238              		.loc 1 793 9 view .LVU860
 3239 009e 05F10F03 		add	r3, r5, #15
 3240 00a2 013A     		subs	r2, r2, #1
 3241 00a4 691E     		subs	r1, r5, #1
 3242 00a6 2046     		mov	r0, r4
 3243 00a8 FFF7FEFF 		bl	GUI_FillRect
 3244              	.LVL342:
 794:BSP/display.c ****         GUI_SetColor(GUI_COLOR_BLACK);
 3245              		.loc 1 794 9 is_stmt 1 view .LVU861
 3246 00ac 0020     		movs	r0, #0
 3247 00ae FFF7FEFF 		bl	GUI_SetColor
 3248              	.LVL343:
 795:BSP/display.c **** 
 796:BSP/display.c ****         switch (s_timeSet.cursor) {
 3249              		.loc 1 796 9 view .LVU862
 3250              		.loc 1 796 26 is_stmt 0 view .LVU863
 3251 00b2 244B     		ldr	r3, .L231+4
 3252 00b4 1B7A     		ldrb	r3, [r3, #8]	@ zero_extendqisi2
 3253              		.loc 1 796 9 view .LVU864
 3254 00b6 052B     		cmp	r3, #5
 3255 00b8 0ED8     		bhi	.L219
 3256 00ba DFE803F0 		tbb	[pc, r3]
 3257              	.L221:
 3258 00be 07       		.byte	(.L226-.L221)/2
 3259 00bf 1E       		.byte	(.L225-.L221)/2
 3260 00c0 25       		.byte	(.L224-.L221)/2
 3261 00c1 2C       		.byte	(.L223-.L221)/2
 3262 00c2 33       		.byte	(.L222-.L221)/2
 3263 00c3 3A       		.byte	(.L220-.L221)/2
 3264              	.LVL344:
 3265              		.p2align 1
 3266              	.L227:
 790:BSP/display.c ****         int cw = (s_timeSet.cursor == 0) ? 32 : 16;  /* 年宽4位, 其他宽2位 */
 3267              		.loc 1 790 50 discriminator 2 view .LVU865
 3268 00c4 2025     		movs	r5, #32
 3269 00c6 E4E7     		b	.L217
 3270              	.LVL345:
 3271              	.L228:
 791:BSP/display.c ****         GUI_SetColor(GUI_COLOR_WHITE);
 3272              		.loc 1 791 47 discriminator 2 view .LVU866
 3273 00c8 1026     		movs	r6, #16
 3274 00ca E4E7     		b	.L218
 3275              	.LVL346:
 3276              	.L226:
 797:BSP/display.c ****         case 0: sprintf(buf, "%04d", dt->year);   break;
ARM GAS  C:\Users\24120\AppData\Local\Temp\cciaFKJB.s 			page 84


 3277              		.loc 1 797 17 is_stmt 1 view .LVU867
 3278 00cc 1D4B     		ldr	r3, .L231+4
 3279 00ce 1A88     		ldrh	r2, [r3]
 3280 00d0 2249     		ldr	r1, .L231+28
 3281 00d2 08A8     		add	r0, sp, #32
 3282 00d4 FFF7FEFF 		bl	sprintf
 3283              	.LVL347:
 3284              		.loc 1 797 51 discriminator 1 view .LVU868
 3285              	.L219:
 798:BSP/display.c ****         case 1: sprintf(buf, "%02d", dt->month);  break;
 799:BSP/display.c ****         case 2: sprintf(buf, "%02d", dt->day);    break;
 800:BSP/display.c ****         case 3: sprintf(buf, "%02d", dt->hour);   break;
 801:BSP/display.c ****         case 4: sprintf(buf, "%02d", dt->minute); break;
 802:BSP/display.c ****         case 5: sprintf(buf, "%02d", dt->second); break;
 803:BSP/display.c ****         }
 804:BSP/display.c ****         GUI_DispStringAt(buf, cx, cy);
 3286              		.loc 1 804 9 view .LVU869
 3287 00d8 2A46     		mov	r2, r5
 3288 00da 2146     		mov	r1, r4
 3289 00dc 08A8     		add	r0, sp, #32
 3290 00de FFF7FEFF 		bl	GUI_DispStringAt
 3291              	.LVL348:
 805:BSP/display.c **** 
 806:BSP/display.c ****         GUI_SetColor(GUI_COLOR_WHITE);
 3292              		.loc 1 806 9 view .LVU870
 3293 00e2 0120     		movs	r0, #1
 3294 00e4 FFF7FEFF 		bl	GUI_SetColor
 3295              	.LVL349:
 3296              	.L216:
 3297              		.loc 1 806 9 is_stmt 0 view .LVU871
 3298              	.LBE32:
 807:BSP/display.c ****     }
 808:BSP/display.c **** 
 809:BSP/display.c ****     /* 底部按键提示 (居中) */
 810:BSP/display.c ****     GUI_DispStringHCenterAt(
 3299              		.loc 1 810 5 is_stmt 1 view .LVU872
 3300 00e8 3022     		movs	r2, #48
 3301 00ea 4021     		movs	r1, #64
 3302 00ec 1C48     		ldr	r0, .L231+32
 3303 00ee FFF7FEFF 		bl	GUI_DispStringHCenterAt
 3304              	.LVL350:
 811:BSP/display.c ****         "1+4- <> 5\xe8\xbf\x94" "6\xe5\xad\x98", 64, 48);  /* 1+4- <> 5返6存 */
 812:BSP/display.c **** 
 813:BSP/display.c ****     GUI_Update();
 3305              		.loc 1 813 5 view .LVU873
 3306 00f2 FFF7FEFF 		bl	GUI_Update
 3307              	.LVL351:
 814:BSP/display.c **** }
 3308              		.loc 1 814 1 is_stmt 0 view .LVU874
 3309 00f6 10B0     		add	sp, sp, #64
 3310              	.LCFI29:
 3311              		.cfi_remember_state
 3312              		.cfi_def_cfa_offset 16
 3313              		@ sp needed
 3314 00f8 70BD     		pop	{r4, r5, r6, pc}
 3315              	.LVL352:
 3316              	.L225:
ARM GAS  C:\Users\24120\AppData\Local\Temp\cciaFKJB.s 			page 85


 3317              	.LCFI30:
 3318              		.cfi_restore_state
 3319              	.LBB33:
 798:BSP/display.c ****         case 2: sprintf(buf, "%02d", dt->day);    break;
 3320              		.loc 1 798 17 is_stmt 1 view .LVU875
 3321 00fa 124B     		ldr	r3, .L231+4
 3322 00fc 9A78     		ldrb	r2, [r3, #2]	@ zero_extendqisi2
 3323 00fe 1949     		ldr	r1, .L231+36
 3324 0100 08A8     		add	r0, sp, #32
 3325 0102 FFF7FEFF 		bl	sprintf
 3326              	.LVL353:
 798:BSP/display.c ****         case 2: sprintf(buf, "%02d", dt->day);    break;
 3327              		.loc 1 798 51 discriminator 1 view .LVU876
 798:BSP/display.c ****         case 2: sprintf(buf, "%02d", dt->day);    break;
 3328              		.loc 1 798 51 is_stmt 0 view .LVU877
 3329 0106 E7E7     		b	.L219
 3330              	.L224:
 799:BSP/display.c ****         case 3: sprintf(buf, "%02d", dt->hour);   break;
 3331              		.loc 1 799 17 is_stmt 1 view .LVU878
 3332 0108 0E4B     		ldr	r3, .L231+4
 3333 010a DA78     		ldrb	r2, [r3, #3]	@ zero_extendqisi2
 3334 010c 1549     		ldr	r1, .L231+36
 3335 010e 08A8     		add	r0, sp, #32
 3336 0110 FFF7FEFF 		bl	sprintf
 3337              	.LVL354:
 799:BSP/display.c ****         case 3: sprintf(buf, "%02d", dt->hour);   break;
 3338              		.loc 1 799 51 discriminator 1 view .LVU879
 799:BSP/display.c ****         case 3: sprintf(buf, "%02d", dt->hour);   break;
 3339              		.loc 1 799 51 is_stmt 0 view .LVU880
 3340 0114 E0E7     		b	.L219
 3341              	.L223:
 800:BSP/display.c ****         case 4: sprintf(buf, "%02d", dt->minute); break;
 3342              		.loc 1 800 17 is_stmt 1 view .LVU881
 3343 0116 0B4B     		ldr	r3, .L231+4
 3344 0118 5A79     		ldrb	r2, [r3, #5]	@ zero_extendqisi2
 3345 011a 1249     		ldr	r1, .L231+36
 3346 011c 08A8     		add	r0, sp, #32
 3347 011e FFF7FEFF 		bl	sprintf
 3348              	.LVL355:
 800:BSP/display.c ****         case 4: sprintf(buf, "%02d", dt->minute); break;
 3349              		.loc 1 800 51 discriminator 1 view .LVU882
 800:BSP/display.c ****         case 4: sprintf(buf, "%02d", dt->minute); break;
 3350              		.loc 1 800 51 is_stmt 0 view .LVU883
 3351 0122 D9E7     		b	.L219
 3352              	.L222:
 801:BSP/display.c ****         case 5: sprintf(buf, "%02d", dt->second); break;
 3353              		.loc 1 801 17 is_stmt 1 view .LVU884
 3354 0124 074B     		ldr	r3, .L231+4
 3355 0126 9A79     		ldrb	r2, [r3, #6]	@ zero_extendqisi2
 3356 0128 0E49     		ldr	r1, .L231+36
 3357 012a 08A8     		add	r0, sp, #32
 3358 012c FFF7FEFF 		bl	sprintf
 3359              	.LVL356:
 801:BSP/display.c ****         case 5: sprintf(buf, "%02d", dt->second); break;
 3360              		.loc 1 801 51 discriminator 1 view .LVU885
 801:BSP/display.c ****         case 5: sprintf(buf, "%02d", dt->second); break;
 3361              		.loc 1 801 51 is_stmt 0 view .LVU886
ARM GAS  C:\Users\24120\AppData\Local\Temp\cciaFKJB.s 			page 86


 3362 0130 D2E7     		b	.L219
 3363              	.L220:
 802:BSP/display.c ****         }
 3364              		.loc 1 802 17 is_stmt 1 view .LVU887
 3365 0132 044B     		ldr	r3, .L231+4
 3366 0134 DA79     		ldrb	r2, [r3, #7]	@ zero_extendqisi2
 3367 0136 0B49     		ldr	r1, .L231+36
 3368 0138 08A8     		add	r0, sp, #32
 3369 013a FFF7FEFF 		bl	sprintf
 3370              	.LVL357:
 802:BSP/display.c ****         }
 3371              		.loc 1 802 51 discriminator 1 view .LVU888
 802:BSP/display.c ****         }
 3372              		.loc 1 802 51 is_stmt 0 view .LVU889
 3373 013e CBE7     		b	.L219
 3374              	.L232:
 3375              		.align	2
 3376              	.L231:
 3377 0140 00000000 		.word	.LANCHOR0
 3378 0144 00000000 		.word	s_timeSet
 3379 0148 1F85EB51 		.word	1374389535
 3380 014c 00000000 		.word	GUI_FontHZ_SimSun_16
 3381 0150 00000000 		.word	.LC31
 3382 0154 7C000000 		.word	.LC18
 3383 0158 30000000 		.word	.LC7
 3384 015c 10000000 		.word	.LC32
 3385 0160 20000000 		.word	.LC34
 3386 0164 18000000 		.word	.LC33
 3387              	.LBE33:
 3388              		.cfi_endproc
 3389              	.LFE267:
 3391              		.section	.text.DISP_TimeSetKey,"ax",%progbits
 3392              		.align	1
 3393              		.global	DISP_TimeSetKey
 3394              		.syntax unified
 3395              		.thumb
 3396              		.thumb_func
 3398              	DISP_TimeSetKey:
 3399              	.LVL358:
 3400              	.LFB268:
 815:BSP/display.c **** 
 816:BSP/display.c **** void DISP_TimeSetKey(uint8_t keyIdx, uint8_t isShort, uint8_t isLong)
 817:BSP/display.c **** {
 3401              		.loc 1 817 1 is_stmt 1 view -0
 3402              		.cfi_startproc
 3403              		@ args = 0, pretend = 0, frame = 0
 3404              		@ frame_needed = 0, uses_anonymous_args = 0
 3405              		.loc 1 817 1 is_stmt 0 view .LVU891
 3406 0000 38B5     		push	{r3, r4, r5, lr}
 3407              	.LCFI31:
 3408              		.cfi_def_cfa_offset 16
 3409              		.cfi_offset 3, -16
 3410              		.cfi_offset 4, -12
 3411              		.cfi_offset 5, -8
 3412              		.cfi_offset 14, -4
 3413 0002 0446     		mov	r4, r0
 818:BSP/display.c ****     BSP_RTC_DateTime_t *dt = &s_timeSet.dt;
ARM GAS  C:\Users\24120\AppData\Local\Temp\cciaFKJB.s 			page 87


 3414              		.loc 1 818 5 is_stmt 1 view .LVU892
 3415              	.LVL359:
 819:BSP/display.c **** 
 820:BSP/display.c ****     if (!isShort && !isLong) return;
 3416              		.loc 1 820 5 view .LVU893
 3417              		.loc 1 820 8 is_stmt 0 view .LVU894
 3418 0004 0B46     		mov	r3, r1
 3419 0006 09B9     		cbnz	r1, .L234
 3420              		.loc 1 820 18 discriminator 1 view .LVU895
 3421 0008 002A     		cmp	r2, #0
 3422 000a 78D0     		beq	.L233
 3423              	.L234:
 821:BSP/display.c **** 
 822:BSP/display.c ****     /* ===== K2 光标左移 (上一个字段) ===== */
 823:BSP/display.c ****     if (keyIdx == 1 && isShort) {
 3424              		.loc 1 823 5 is_stmt 1 view .LVU896
 3425              		.loc 1 823 8 is_stmt 0 view .LVU897
 3426 000c 012C     		cmp	r4, #1
 3427 000e 17D0     		beq	.L260
 3428              	.L236:
 824:BSP/display.c ****         if (s_timeSet.cursor > 0) s_timeSet.cursor--;
 825:BSP/display.c ****         osThreadFlagsSet(guiTaskHandle, DISP_EVT_KEY_PRESSED);
 826:BSP/display.c ****         return;
 827:BSP/display.c ****     }
 828:BSP/display.c **** 
 829:BSP/display.c ****     /* ===== K3 光标右移 (下一个字段) ===== */
 830:BSP/display.c ****     if (keyIdx == 2 && isShort) {
 3429              		.loc 1 830 5 is_stmt 1 view .LVU898
 3430              		.loc 1 830 8 is_stmt 0 view .LVU899
 3431 0010 022C     		cmp	r4, #2
 3432 0012 24D0     		beq	.L261
 3433              	.L238:
 831:BSP/display.c ****         if (s_timeSet.cursor < 5) s_timeSet.cursor++;
 832:BSP/display.c ****         osThreadFlagsSet(guiTaskHandle, DISP_EVT_KEY_PRESSED);
 833:BSP/display.c ****         return;
 834:BSP/display.c ****     }
 835:BSP/display.c **** 
 836:BSP/display.c ****     /* ===== K6 保存并退出 ===== */
 837:BSP/display.c ****     if (keyIdx == 5 && isShort) {
 3434              		.loc 1 837 5 is_stmt 1 view .LVU900
 3435              		.loc 1 837 8 is_stmt 0 view .LVU901
 3436 0014 052C     		cmp	r4, #5
 3437 0016 32D0     		beq	.L262
 3438              	.L240:
 838:BSP/display.c ****         BSP_RTC_SetDateTime(dt);
 839:BSP/display.c ****         s_state = DISP_STATE_CLOCK;
 840:BSP/display.c ****         osThreadFlagsSet(guiTaskHandle, DISP_EVT_KEY_PRESSED);
 841:BSP/display.c ****         return;
 842:BSP/display.c ****     }
 843:BSP/display.c **** 
 844:BSP/display.c ****     /* ===== K1 加 / K4 减 ===== */
 845:BSP/display.c ****     if (keyIdx != 0 && keyIdx != 3) return;
 3439              		.loc 1 845 5 is_stmt 1 view .LVU902
 3440              		.loc 1 845 8 is_stmt 0 view .LVU903
 3441 0018 0CB1     		cbz	r4, .L241
 3442              		.loc 1 845 21 discriminator 1 view .LVU904
 3443 001a 032C     		cmp	r4, #3
ARM GAS  C:\Users\24120\AppData\Local\Temp\cciaFKJB.s 			page 88


 3444 001c 6FD1     		bne	.L233
 3445              	.L241:
 846:BSP/display.c **** 
 847:BSP/display.c ****     /* year 是 uint16_t, 其余字段是 uint8_t */
 848:BSP/display.c ****     if (s_timeSet.cursor == 0) {
 3446              		.loc 1 848 5 is_stmt 1 view .LVU905
 3447              		.loc 1 848 18 is_stmt 0 view .LVU906
 3448 001e 484B     		ldr	r3, .L263
 3449 0020 1B7A     		ldrb	r3, [r3, #8]	@ zero_extendqisi2
 3450              		.loc 1 848 8 view .LVU907
 3451 0022 002B     		cmp	r3, #0
 3452 0024 4DD1     		bne	.L242
 3453              	.LBB34:
 849:BSP/display.c ****         /* 年份: uint16_t, 范围 2020~2099 */
 850:BSP/display.c ****         uint16_t *pYear = &dt->year;
 3454              		.loc 1 850 9 is_stmt 1 view .LVU908
 3455              	.LVL360:
 851:BSP/display.c ****         if (keyIdx == 0) {  /* K1 加 */
 3456              		.loc 1 851 9 view .LVU909
 3457              		.loc 1 851 12 is_stmt 0 view .LVU910
 3458 0026 002C     		cmp	r4, #0
 3459 0028 3CD1     		bne	.L243
 852:BSP/display.c ****             if (*pYear >= 2099U) *pYear = 2020U;
 3460              		.loc 1 852 13 is_stmt 1 view .LVU911
 3461              		.loc 1 852 17 is_stmt 0 view .LVU912
 3462 002a 454B     		ldr	r3, .L263
 3463 002c 1B88     		ldrh	r3, [r3]
 3464              		.loc 1 852 16 view .LVU913
 3465 002e 40F63202 		movw	r2, #2098
 3466              	.LVL361:
 3467              		.loc 1 852 16 view .LVU914
 3468 0032 9342     		cmp	r3, r2
 3469 0034 32D9     		bls	.L244
 3470              		.loc 1 852 34 is_stmt 1 discriminator 1 view .LVU915
 3471              		.loc 1 852 41 is_stmt 0 discriminator 1 view .LVU916
 3472 0036 424B     		ldr	r3, .L263
 3473 0038 40F2E472 		movw	r2, #2020
 3474 003c 1A80     		strh	r2, [r3]	@ movhi
 3475 003e 4FE0     		b	.L245
 3476              	.LVL362:
 3477              	.L260:
 3478              		.loc 1 852 41 discriminator 1 view .LVU917
 3479              	.LBE34:
 823:BSP/display.c ****         if (s_timeSet.cursor > 0) s_timeSet.cursor--;
 3480              		.loc 1 823 21 discriminator 1 view .LVU918
 3481 0040 002B     		cmp	r3, #0
 3482 0042 E5D0     		beq	.L236
 824:BSP/display.c ****         osThreadFlagsSet(guiTaskHandle, DISP_EVT_KEY_PRESSED);
 3483              		.loc 1 824 9 is_stmt 1 view .LVU919
 824:BSP/display.c ****         osThreadFlagsSet(guiTaskHandle, DISP_EVT_KEY_PRESSED);
 3484              		.loc 1 824 22 is_stmt 0 view .LVU920
 3485 0044 3E4B     		ldr	r3, .L263
 3486 0046 1B7A     		ldrb	r3, [r3, #8]	@ zero_extendqisi2
 824:BSP/display.c ****         osThreadFlagsSet(guiTaskHandle, DISP_EVT_KEY_PRESSED);
 3487              		.loc 1 824 12 view .LVU921
 3488 0048 13B1     		cbz	r3, .L237
 824:BSP/display.c ****         osThreadFlagsSet(guiTaskHandle, DISP_EVT_KEY_PRESSED);
ARM GAS  C:\Users\24120\AppData\Local\Temp\cciaFKJB.s 			page 89


 3489              		.loc 1 824 35 is_stmt 1 discriminator 1 view .LVU922
 824:BSP/display.c ****         osThreadFlagsSet(guiTaskHandle, DISP_EVT_KEY_PRESSED);
 3490              		.loc 1 824 51 is_stmt 0 discriminator 1 view .LVU923
 3491 004a 013B     		subs	r3, r3, #1
 3492 004c 3C4A     		ldr	r2, .L263
 3493              	.LVL363:
 824:BSP/display.c ****         osThreadFlagsSet(guiTaskHandle, DISP_EVT_KEY_PRESSED);
 3494              		.loc 1 824 51 discriminator 1 view .LVU924
 3495 004e 1372     		strb	r3, [r2, #8]
 3496              	.L237:
 825:BSP/display.c ****         return;
 3497              		.loc 1 825 9 is_stmt 1 view .LVU925
 3498 0050 4FF48031 		mov	r1, #65536
 3499              	.LVL364:
 825:BSP/display.c ****         return;
 3500              		.loc 1 825 9 is_stmt 0 view .LVU926
 3501 0054 3B4B     		ldr	r3, .L263+4
 3502 0056 1868     		ldr	r0, [r3]
 3503              	.LVL365:
 825:BSP/display.c ****         return;
 3504              		.loc 1 825 9 view .LVU927
 3505 0058 FFF7FEFF 		bl	osThreadFlagsSet
 3506              	.LVL366:
 826:BSP/display.c ****     }
 3507              		.loc 1 826 9 is_stmt 1 view .LVU928
 3508 005c 4FE0     		b	.L233
 3509              	.LVL367:
 3510              	.L261:
 830:BSP/display.c ****         if (s_timeSet.cursor < 5) s_timeSet.cursor++;
 3511              		.loc 1 830 21 is_stmt 0 discriminator 1 view .LVU929
 3512 005e 002B     		cmp	r3, #0
 3513 0060 D8D0     		beq	.L238
 831:BSP/display.c ****         osThreadFlagsSet(guiTaskHandle, DISP_EVT_KEY_PRESSED);
 3514              		.loc 1 831 9 is_stmt 1 view .LVU930
 831:BSP/display.c ****         osThreadFlagsSet(guiTaskHandle, DISP_EVT_KEY_PRESSED);
 3515              		.loc 1 831 22 is_stmt 0 view .LVU931
 3516 0062 374B     		ldr	r3, .L263
 3517 0064 1B7A     		ldrb	r3, [r3, #8]	@ zero_extendqisi2
 831:BSP/display.c ****         osThreadFlagsSet(guiTaskHandle, DISP_EVT_KEY_PRESSED);
 3518              		.loc 1 831 12 view .LVU932
 3519 0066 042B     		cmp	r3, #4
 3520 0068 02D8     		bhi	.L239
 831:BSP/display.c ****         osThreadFlagsSet(guiTaskHandle, DISP_EVT_KEY_PRESSED);
 3521              		.loc 1 831 35 is_stmt 1 discriminator 1 view .LVU933
 831:BSP/display.c ****         osThreadFlagsSet(guiTaskHandle, DISP_EVT_KEY_PRESSED);
 3522              		.loc 1 831 51 is_stmt 0 discriminator 1 view .LVU934
 3523 006a 0133     		adds	r3, r3, #1
 3524 006c 344A     		ldr	r2, .L263
 3525              	.LVL368:
 831:BSP/display.c ****         osThreadFlagsSet(guiTaskHandle, DISP_EVT_KEY_PRESSED);
 3526              		.loc 1 831 51 discriminator 1 view .LVU935
 3527 006e 1372     		strb	r3, [r2, #8]
 3528              	.L239:
 832:BSP/display.c ****         return;
 3529              		.loc 1 832 9 is_stmt 1 view .LVU936
 3530 0070 4FF48031 		mov	r1, #65536
 3531              	.LVL369:
ARM GAS  C:\Users\24120\AppData\Local\Temp\cciaFKJB.s 			page 90


 832:BSP/display.c ****         return;
 3532              		.loc 1 832 9 is_stmt 0 view .LVU937
 3533 0074 334B     		ldr	r3, .L263+4
 3534 0076 1868     		ldr	r0, [r3]
 3535              	.LVL370:
 832:BSP/display.c ****         return;
 3536              		.loc 1 832 9 view .LVU938
 3537 0078 FFF7FEFF 		bl	osThreadFlagsSet
 3538              	.LVL371:
 833:BSP/display.c ****     }
 3539              		.loc 1 833 9 is_stmt 1 view .LVU939
 3540 007c 3FE0     		b	.L233
 3541              	.LVL372:
 3542              	.L262:
 837:BSP/display.c ****         BSP_RTC_SetDateTime(dt);
 3543              		.loc 1 837 21 is_stmt 0 discriminator 1 view .LVU940
 3544 007e 002B     		cmp	r3, #0
 3545 0080 CAD0     		beq	.L240
 838:BSP/display.c ****         s_state = DISP_STATE_CLOCK;
 3546              		.loc 1 838 9 is_stmt 1 view .LVU941
 3547 0082 2F48     		ldr	r0, .L263
 3548              	.LVL373:
 838:BSP/display.c ****         s_state = DISP_STATE_CLOCK;
 3549              		.loc 1 838 9 is_stmt 0 view .LVU942
 3550 0084 FFF7FEFF 		bl	BSP_RTC_SetDateTime
 3551              	.LVL374:
 839:BSP/display.c ****         osThreadFlagsSet(guiTaskHandle, DISP_EVT_KEY_PRESSED);
 3552              		.loc 1 839 9 is_stmt 1 view .LVU943
 839:BSP/display.c ****         osThreadFlagsSet(guiTaskHandle, DISP_EVT_KEY_PRESSED);
 3553              		.loc 1 839 17 is_stmt 0 view .LVU944
 3554 0088 2F4B     		ldr	r3, .L263+8
 3555 008a 0022     		movs	r2, #0
 3556 008c 1A70     		strb	r2, [r3]
 840:BSP/display.c ****         return;
 3557              		.loc 1 840 9 is_stmt 1 view .LVU945
 3558 008e 4FF48031 		mov	r1, #65536
 3559 0092 2C4B     		ldr	r3, .L263+4
 3560 0094 1868     		ldr	r0, [r3]
 3561 0096 FFF7FEFF 		bl	osThreadFlagsSet
 3562              	.LVL375:
 841:BSP/display.c ****     }
 3563              		.loc 1 841 9 view .LVU946
 3564 009a 30E0     		b	.L233
 3565              	.LVL376:
 3566              	.L244:
 3567              	.LBB35:
 853:BSP/display.c ****             else (*pYear)++;
 3568              		.loc 1 853 18 view .LVU947
 3569              		.loc 1 853 26 is_stmt 0 view .LVU948
 3570 009c 0133     		adds	r3, r3, #1
 3571 009e 284A     		ldr	r2, .L263
 3572 00a0 1380     		strh	r3, [r2]	@ movhi
 3573 00a2 1DE0     		b	.L245
 3574              	.LVL377:
 3575              	.L243:
 854:BSP/display.c ****         } else {            /* K4 减 */
 855:BSP/display.c ****             if (*pYear <= 2020U) *pYear = 2099U;
ARM GAS  C:\Users\24120\AppData\Local\Temp\cciaFKJB.s 			page 91


 3576              		.loc 1 855 13 is_stmt 1 view .LVU949
 3577              		.loc 1 855 17 is_stmt 0 view .LVU950
 3578 00a4 264B     		ldr	r3, .L263
 3579 00a6 1B88     		ldrh	r3, [r3]
 3580              		.loc 1 855 16 view .LVU951
 3581 00a8 40F2E472 		movw	r2, #2020
 3582              	.LVL378:
 3583              		.loc 1 855 16 view .LVU952
 3584 00ac 9342     		cmp	r3, r2
 3585 00ae 04D8     		bhi	.L246
 3586              		.loc 1 855 34 is_stmt 1 discriminator 1 view .LVU953
 3587              		.loc 1 855 41 is_stmt 0 discriminator 1 view .LVU954
 3588 00b0 234B     		ldr	r3, .L263
 3589 00b2 40F63302 		movw	r2, #2099
 3590 00b6 1A80     		strh	r2, [r3]	@ movhi
 3591 00b8 12E0     		b	.L245
 3592              	.L246:
 856:BSP/display.c ****             else (*pYear)--;
 3593              		.loc 1 856 18 is_stmt 1 view .LVU955
 3594              		.loc 1 856 26 is_stmt 0 view .LVU956
 3595 00ba 013B     		subs	r3, r3, #1
 3596 00bc 204A     		ldr	r2, .L263
 3597 00be 1380     		strh	r3, [r2]	@ movhi
 3598 00c0 0EE0     		b	.L245
 3599              	.LVL379:
 3600              	.L242:
 3601              		.loc 1 856 26 view .LVU957
 3602              	.LBE35:
 3603              	.LBB36:
 857:BSP/display.c ****         }
 858:BSP/display.c ****     } else {
 859:BSP/display.c ****         /* 月/日/时/分/秒: uint8_t, min/max 各不同 */
 860:BSP/display.c ****         uint8_t *pU8 = NULL;
 3604              		.loc 1 860 9 is_stmt 1 view .LVU958
 861:BSP/display.c ****         uint8_t  minVal = 0;
 3605              		.loc 1 861 9 view .LVU959
 862:BSP/display.c ****         uint8_t  maxVal = 0;
 3606              		.loc 1 862 9 view .LVU960
 863:BSP/display.c **** 
 864:BSP/display.c ****         switch (s_timeSet.cursor) {
 3607              		.loc 1 864 9 view .LVU961
 3608 00c2 5A1E     		subs	r2, r3, #1
 3609              	.LVL380:
 3610              		.loc 1 864 9 is_stmt 0 view .LVU962
 3611 00c4 042A     		cmp	r2, #4
 3612 00c6 1AD8     		bhi	.L233
 3613 00c8 DFE802F0 		tbb	[pc, r2]
 3614              	.LVL381:
 3615              	.L248:
 3616 00cc 03       		.byte	(.L252-.L248)/2
 3617 00cd 1A       		.byte	(.L251-.L248)/2
 3618 00ce 2B       		.byte	(.L257-.L248)/2
 3619 00cf 23       		.byte	(.L249-.L248)/2
 3620 00d0 27       		.byte	(.L247-.L248)/2
 3621 00d1 00       		.p2align 1
 3622              	.L252:
 3623              		.loc 1 864 9 view .LVU963
ARM GAS  C:\Users\24120\AppData\Local\Temp\cciaFKJB.s 			page 92


 3624 00d2 0C20     		movs	r0, #12
 3625              	.LVL382:
 3626              		.loc 1 864 9 view .LVU964
 3627 00d4 1D4D     		ldr	r5, .L263+12
 3628              	.LVL383:
 3629              	.L250:
 865:BSP/display.c ****         case 1: /* 月: 1~12 */
 866:BSP/display.c ****             pU8 = &dt->month; minVal = 1;  maxVal = 12;
 867:BSP/display.c ****             break;
 868:BSP/display.c ****         case 2: /* 日: 1~当月最大天数 */
 869:BSP/display.c ****             pU8 = &dt->day;   minVal = 1;
 870:BSP/display.c ****             maxVal = BSP_RTC_DaysInMonth(dt->year, dt->month);
 871:BSP/display.c ****             break;
 872:BSP/display.c ****         case 3: /* 时: 0~23 */
 873:BSP/display.c ****             pU8 = &dt->hour;  minVal = 0;  maxVal = 23;
 874:BSP/display.c ****             break;
 875:BSP/display.c ****         case 4: /* 分: 0~59 */
 876:BSP/display.c ****             pU8 = &dt->minute; minVal = 0; maxVal = 59;
 877:BSP/display.c ****             break;
 878:BSP/display.c ****         case 5: /* 秒: 0~59 */
 879:BSP/display.c ****             pU8 = &dt->second; minVal = 0; maxVal = 59;
 880:BSP/display.c ****             break;
 881:BSP/display.c ****         default: return;
 882:BSP/display.c ****         }
 883:BSP/display.c **** 
 884:BSP/display.c ****         if (keyIdx == 0) {  /* K1 加 */
 3630              		.loc 1 884 9 is_stmt 1 view .LVU965
 3631              		.loc 1 884 12 is_stmt 0 view .LVU966
 3632 00d6 5CBB     		cbnz	r4, .L253
 885:BSP/display.c ****             if (*pU8 >= maxVal) *pU8 = minVal;
 3633              		.loc 1 885 13 is_stmt 1 view .LVU967
 3634              		.loc 1 885 17 is_stmt 0 view .LVU968
 3635 00d8 2A78     		ldrb	r2, [r5]	@ zero_extendqisi2
 3636              		.loc 1 885 16 view .LVU969
 3637 00da 8242     		cmp	r2, r0
 3638 00dc 25D3     		bcc	.L254
 3639              		.loc 1 885 33 is_stmt 1 discriminator 1 view .LVU970
 3640              		.loc 1 885 38 is_stmt 0 discriminator 1 view .LVU971
 3641 00de 2B70     		strb	r3, [r5]
 3642              	.LVL384:
 3643              	.L245:
 3644              		.loc 1 885 38 discriminator 1 view .LVU972
 3645              	.LBE36:
 3646              	.LBB37:
 886:BSP/display.c ****             else (*pU8)++;
 887:BSP/display.c ****         } else {            /* K4 减 */
 888:BSP/display.c ****             if (*pU8 <= minVal) *pU8 = maxVal;
 889:BSP/display.c ****             else (*pU8)--;
 890:BSP/display.c ****         }
 891:BSP/display.c ****     }
 892:BSP/display.c **** 
 893:BSP/display.c ****     /* 月份/年份变动后, 钳位 day 到新月份的有效范围 */
 894:BSP/display.c ****     {
 895:BSP/display.c ****         uint8_t daysMax = BSP_RTC_DaysInMonth(dt->year, dt->month);
 3647              		.loc 1 895 9 is_stmt 1 view .LVU973
 3648              		.loc 1 895 27 is_stmt 0 view .LVU974
 3649 00e0 174C     		ldr	r4, .L263
ARM GAS  C:\Users\24120\AppData\Local\Temp\cciaFKJB.s 			page 93


 3650              	.LVL385:
 3651              		.loc 1 895 27 view .LVU975
 3652 00e2 A178     		ldrb	r1, [r4, #2]	@ zero_extendqisi2
 3653 00e4 2088     		ldrh	r0, [r4]
 3654 00e6 FFF7FEFF 		bl	BSP_RTC_DaysInMonth
 3655              	.LVL386:
 896:BSP/display.c ****         if (dt->day > daysMax) dt->day = daysMax;
 3656              		.loc 1 896 9 is_stmt 1 view .LVU976
 3657              		.loc 1 896 15 is_stmt 0 view .LVU977
 3658 00ea E378     		ldrb	r3, [r4, #3]	@ zero_extendqisi2
 3659              		.loc 1 896 12 view .LVU978
 3660 00ec 8342     		cmp	r3, r0
 3661 00ee 00D9     		bls	.L256
 3662              		.loc 1 896 32 is_stmt 1 discriminator 1 view .LVU979
 3663              		.loc 1 896 40 is_stmt 0 discriminator 1 view .LVU980
 3664 00f0 E070     		strb	r0, [r4, #3]
 3665              	.L256:
 3666              		.loc 1 896 40 discriminator 1 view .LVU981
 3667              	.LBE37:
 897:BSP/display.c ****     }
 898:BSP/display.c **** 
 899:BSP/display.c ****     osThreadFlagsSet(guiTaskHandle, DISP_EVT_KEY_PRESSED);
 3668              		.loc 1 899 5 is_stmt 1 view .LVU982
 3669 00f2 4FF48031 		mov	r1, #65536
 3670 00f6 134B     		ldr	r3, .L263+4
 3671 00f8 1868     		ldr	r0, [r3]
 3672              	.LVL387:
 3673              		.loc 1 899 5 is_stmt 0 view .LVU983
 3674 00fa FFF7FEFF 		bl	osThreadFlagsSet
 3675              	.LVL388:
 3676              	.L233:
 900:BSP/display.c **** }
 3677              		.loc 1 900 1 view .LVU984
 3678 00fe 38BD     		pop	{r3, r4, r5, pc}
 3679              	.LVL389:
 3680              	.L251:
 3681              	.LBB38:
 869:BSP/display.c ****             maxVal = BSP_RTC_DaysInMonth(dt->year, dt->month);
 3682              		.loc 1 869 13 is_stmt 1 view .LVU985
 869:BSP/display.c ****             maxVal = BSP_RTC_DaysInMonth(dt->year, dt->month);
 3683              		.loc 1 869 31 view .LVU986
 870:BSP/display.c ****             break;
 3684              		.loc 1 870 13 view .LVU987
 870:BSP/display.c ****             break;
 3685              		.loc 1 870 22 is_stmt 0 view .LVU988
 3686 0100 0F4B     		ldr	r3, .L263
 3687 0102 1D46     		mov	r5, r3
 3688 0104 9978     		ldrb	r1, [r3, #2]	@ zero_extendqisi2
 3689 0106 35F8030B 		ldrh	r0, [r5], #3
 3690              	.LVL390:
 870:BSP/display.c ****             break;
 3691              		.loc 1 870 22 view .LVU989
 3692 010a FFF7FEFF 		bl	BSP_RTC_DaysInMonth
 3693              	.LVL391:
 871:BSP/display.c ****         case 3: /* 时: 0~23 */
 3694              		.loc 1 871 13 is_stmt 1 view .LVU990
 869:BSP/display.c ****             maxVal = BSP_RTC_DaysInMonth(dt->year, dt->month);
ARM GAS  C:\Users\24120\AppData\Local\Temp\cciaFKJB.s 			page 94


 3695              		.loc 1 869 38 is_stmt 0 view .LVU991
 3696 010e 0123     		movs	r3, #1
 871:BSP/display.c ****         case 3: /* 时: 0~23 */
 3697              		.loc 1 871 13 view .LVU992
 3698 0110 E1E7     		b	.L250
 3699              	.LVL392:
 3700              	.L249:
 876:BSP/display.c ****             break;
 3701              		.loc 1 876 13 is_stmt 1 view .LVU993
 876:BSP/display.c ****             break;
 3702              		.loc 1 876 32 view .LVU994
 876:BSP/display.c ****             break;
 3703              		.loc 1 876 44 view .LVU995
 877:BSP/display.c ****         case 5: /* 秒: 0~59 */
 3704              		.loc 1 877 13 view .LVU996
 876:BSP/display.c ****             break;
 3705              		.loc 1 876 51 is_stmt 0 view .LVU997
 3706 0112 3B20     		movs	r0, #59
 3707              	.LVL393:
 876:BSP/display.c ****             break;
 3708              		.loc 1 876 39 view .LVU998
 3709 0114 0023     		movs	r3, #0
 876:BSP/display.c ****             break;
 3710              		.loc 1 876 17 view .LVU999
 3711 0116 0E4D     		ldr	r5, .L263+16
 3712              	.LVL394:
 877:BSP/display.c ****         case 5: /* 秒: 0~59 */
 3713              		.loc 1 877 13 view .LVU1000
 3714 0118 DDE7     		b	.L250
 3715              	.LVL395:
 3716              	.L247:
 879:BSP/display.c ****             break;
 3717              		.loc 1 879 13 is_stmt 1 view .LVU1001
 879:BSP/display.c ****             break;
 3718              		.loc 1 879 32 view .LVU1002
 879:BSP/display.c ****             break;
 3719              		.loc 1 879 44 view .LVU1003
 880:BSP/display.c ****         default: return;
 3720              		.loc 1 880 13 view .LVU1004
 879:BSP/display.c ****             break;
 3721              		.loc 1 879 51 is_stmt 0 view .LVU1005
 3722 011a 3B20     		movs	r0, #59
 3723              	.LVL396:
 879:BSP/display.c ****             break;
 3724              		.loc 1 879 39 view .LVU1006
 3725 011c 0023     		movs	r3, #0
 879:BSP/display.c ****             break;
 3726              		.loc 1 879 17 view .LVU1007
 3727 011e 0D4D     		ldr	r5, .L263+20
 3728              	.LVL397:
 880:BSP/display.c ****         default: return;
 3729              		.loc 1 880 13 view .LVU1008
 3730 0120 D9E7     		b	.L250
 3731              	.LVL398:
 3732              	.L257:
 873:BSP/display.c ****             break;
 3733              		.loc 1 873 51 view .LVU1009
ARM GAS  C:\Users\24120\AppData\Local\Temp\cciaFKJB.s 			page 95


 3734 0122 1720     		movs	r0, #23
 3735              	.LVL399:
 873:BSP/display.c ****             break;
 3736              		.loc 1 873 38 view .LVU1010
 3737 0124 0023     		movs	r3, #0
 873:BSP/display.c ****             break;
 3738              		.loc 1 873 17 view .LVU1011
 3739 0126 0C4D     		ldr	r5, .L263+24
 3740 0128 D5E7     		b	.L250
