ARM GAS  C:\Users\24120\AppData\Local\Temp\ccTES7Gy.s 			page 1


   1              		.cpu cortex-m4
   2              		.arch armv7e-m
   3              		.fpu fpv4-sp-d16
   4              		.eabi_attribute 27, 1
   5              		.eabi_attribute 28, 1
   6              		.eabi_attribute 20, 1
   7              		.eabi_attribute 21, 1
   8              		.eabi_attribute 23, 3
   9              		.eabi_attribute 24, 1
  10              		.eabi_attribute 25, 1
  11              		.eabi_attribute 26, 1
  12              		.eabi_attribute 30, 1
  13              		.eabi_attribute 34, 1
  14              		.eabi_attribute 18, 4
  15              		.file	"midi.c"
  16              		.text
  17              	.Ltext0:
  18              		.cfi_sections	.debug_frame
  19              		.file 1 "BSP/midi.c"
  20              		.section	.text.MIDI_Init,"ax",%progbits
  21              		.align	1
  22              		.global	MIDI_Init
  23              		.syntax unified
  24              		.thumb
  25              		.thumb_func
  27              	MIDI_Init:
  28              	.LVL0:
  29              	.LFB239:
   1:BSP/midi.c    **** /**
   2:BSP/midi.c    ****   ******************************************************************************
   3:BSP/midi.c    ****   * @file    midi.c
   4:BSP/midi.c    ****   * @brief   蜂鸣器播放音乐驱动源文件
   5:BSP/midi.c    ****   ******************************************************************************
   6:BSP/midi.c    ****   */
   7:BSP/midi.c    **** 
   8:BSP/midi.c    **** #include "midi.h"
   9:BSP/midi.c    **** 
  10:BSP/midi.c    **** /**
  11:BSP/midi.c    ****   * @brief  MIDI句柄结构体
  12:BSP/midi.c    ****   *         保存MIDI驱动的所有状态和配置信息
  13:BSP/midi.c    ****   */
  14:BSP/midi.c    **** typedef struct {
  15:BSP/midi.c    ****     TIM_HandleTypeDef *htim;
  16:BSP/midi.c    ****     uint32_t channel;
  17:BSP/midi.c    **** 
  18:BSP/midi.c    ****     uint8_t tune;
  19:BSP/midi.c    ****     uint8_t key;
  20:BSP/midi.c    ****     uint8_t vol;
  21:BSP/midi.c    ****     int8_t shift;
  22:BSP/midi.c    ****     uint32_t cnt;
  23:BSP/midi.c    **** 
  24:BSP/midi.c    ****     MIDI_StateTypeDef state;
  25:BSP/midi.c    ****     uint8_t loop;
  26:BSP/midi.c    ****     uint16_t midi_idx;
  27:BSP/midi.c    ****     uint32_t play_time;
  28:BSP/midi.c    ****     uint32_t tune_tick;
  29:BSP/midi.c    ****     uint32_t end_tick;
ARM GAS  C:\Users\24120\AppData\Local\Temp\ccTES7Gy.s 			page 2


  30:BSP/midi.c    **** 
  31:BSP/midi.c    ****     uint16_t bpm;
  32:BSP/midi.c    ****     uint16_t base_bpm;
  33:BSP/midi.c    **** 
  34:BSP/midi.c    ****     uint32_t *midi_data;
  35:BSP/midi.c    ****     uint16_t midi_len;
  36:BSP/midi.c    **** } MIDI_HandleTypeDef;
  37:BSP/midi.c    **** 
  38:BSP/midi.c    **** static MIDI_HandleTypeDef hmidi;
  39:BSP/midi.c    **** 
  40:BSP/midi.c    **** /**
  41:BSP/midi.c    ****   * @brief  音符频率表（C大调，一个八度）
  42:BSP/midi.c    ****   *         索引0为休止符，1-7对应C-B音符
  43:BSP/midi.c    ****   */
  44:BSP/midi.c    **** static const float midi_freq_tab[8] = {0, 261.6, 293.6, 329.6, 349.2, 392.0, 440.0, 493.9};
  45:BSP/midi.c    **** 
  46:BSP/midi.c    **** /**
  47:BSP/midi.c    ****   * @brief  初始化MIDI驱动
  48:BSP/midi.c    ****   * @param  htim: PWM定时器句柄指针
  49:BSP/midi.c    ****   * @param  channel: PWM通道
  50:BSP/midi.c    ****   * @retval None
  51:BSP/midi.c    ****   */
  52:BSP/midi.c    **** void MIDI_Init(TIM_HandleTypeDef *htim, uint32_t channel)
  53:BSP/midi.c    **** {
  30              		.loc 1 53 1 view -0
  31              		.cfi_startproc
  32              		@ args = 0, pretend = 0, frame = 0
  33              		@ frame_needed = 0, uses_anonymous_args = 0
  34              		@ link register save eliminated.
  54:BSP/midi.c    ****     hmidi.htim = htim;
  35              		.loc 1 54 5 view .LVU1
  36              		.loc 1 54 16 is_stmt 0 view .LVU2
  37 0000 0D4B     		ldr	r3, .L2
  38 0002 1860     		str	r0, [r3]
  55:BSP/midi.c    ****     hmidi.channel = channel;
  39              		.loc 1 55 5 is_stmt 1 view .LVU3
  40              		.loc 1 55 19 is_stmt 0 view .LVU4
  41 0004 5960     		str	r1, [r3, #4]
  56:BSP/midi.c    **** 
  57:BSP/midi.c    ****     hmidi.tune = 0;
  42              		.loc 1 57 5 is_stmt 1 view .LVU5
  43              		.loc 1 57 16 is_stmt 0 view .LVU6
  44 0006 0022     		movs	r2, #0
  45 0008 1A72     		strb	r2, [r3, #8]
  58:BSP/midi.c    ****     hmidi.key = 1;
  46              		.loc 1 58 5 is_stmt 1 view .LVU7
  47              		.loc 1 58 15 is_stmt 0 view .LVU8
  48 000a 0121     		movs	r1, #1
  49              	.LVL1:
  50              		.loc 1 58 15 view .LVU9
  51 000c 5972     		strb	r1, [r3, #9]
  59:BSP/midi.c    ****     hmidi.vol = 10;
  52              		.loc 1 59 5 is_stmt 1 view .LVU10
  53              		.loc 1 59 15 is_stmt 0 view .LVU11
  54 000e 0A21     		movs	r1, #10
  55 0010 9972     		strb	r1, [r3, #10]
  60:BSP/midi.c    ****     hmidi.shift = 0;
ARM GAS  C:\Users\24120\AppData\Local\Temp\ccTES7Gy.s 			page 3


  56              		.loc 1 60 5 is_stmt 1 view .LVU12
  57              		.loc 1 60 17 is_stmt 0 view .LVU13
  58 0012 DA72     		strb	r2, [r3, #11]
  61:BSP/midi.c    ****     hmidi.cnt = 0;
  59              		.loc 1 61 5 is_stmt 1 view .LVU14
  60              		.loc 1 61 15 is_stmt 0 view .LVU15
  61 0014 DA60     		str	r2, [r3, #12]
  62:BSP/midi.c    **** 
  63:BSP/midi.c    ****     hmidi.state = MIDI_STATE_STOPPED;
  62              		.loc 1 63 5 is_stmt 1 view .LVU16
  63              		.loc 1 63 17 is_stmt 0 view .LVU17
  64 0016 1A74     		strb	r2, [r3, #16]
  64:BSP/midi.c    ****     hmidi.loop = 0;
  65              		.loc 1 64 5 is_stmt 1 view .LVU18
  66              		.loc 1 64 16 is_stmt 0 view .LVU19
  67 0018 5A74     		strb	r2, [r3, #17]
  65:BSP/midi.c    ****     hmidi.midi_idx = 0;
  68              		.loc 1 65 5 is_stmt 1 view .LVU20
  69              		.loc 1 65 20 is_stmt 0 view .LVU21
  70 001a 5A82     		strh	r2, [r3, #18]	@ movhi
  66:BSP/midi.c    ****     hmidi.play_time = 10;
  71              		.loc 1 66 5 is_stmt 1 view .LVU22
  72              		.loc 1 66 21 is_stmt 0 view .LVU23
  73 001c 5961     		str	r1, [r3, #20]
  67:BSP/midi.c    ****     hmidi.tune_tick = 0;
  74              		.loc 1 67 5 is_stmt 1 view .LVU24
  75              		.loc 1 67 21 is_stmt 0 view .LVU25
  76 001e 9A61     		str	r2, [r3, #24]
  68:BSP/midi.c    ****     hmidi.end_tick = 0;
  77              		.loc 1 68 5 is_stmt 1 view .LVU26
  78              		.loc 1 68 20 is_stmt 0 view .LVU27
  79 0020 DA61     		str	r2, [r3, #28]
  69:BSP/midi.c    **** 
  70:BSP/midi.c    ****     hmidi.bpm = MIDI_DEFAULT_BPM;
  80              		.loc 1 70 5 is_stmt 1 view .LVU28
  81              		.loc 1 70 15 is_stmt 0 view .LVU29
  82 0022 5A21     		movs	r1, #90
  83 0024 1984     		strh	r1, [r3, #32]	@ movhi
  71:BSP/midi.c    ****     hmidi.base_bpm = MIDI_DEFAULT_BPM;
  84              		.loc 1 71 5 is_stmt 1 view .LVU30
  85              		.loc 1 71 20 is_stmt 0 view .LVU31
  86 0026 5984     		strh	r1, [r3, #34]	@ movhi
  72:BSP/midi.c    **** 
  73:BSP/midi.c    ****     hmidi.midi_data = NULL;
  87              		.loc 1 73 5 is_stmt 1 view .LVU32
  88              		.loc 1 73 21 is_stmt 0 view .LVU33
  89 0028 5A62     		str	r2, [r3, #36]
  74:BSP/midi.c    ****     hmidi.midi_len = 0;
  90              		.loc 1 74 5 is_stmt 1 view .LVU34
  91              		.loc 1 74 20 is_stmt 0 view .LVU35
  92 002a 1A85     		strh	r2, [r3, #40]	@ movhi
  75:BSP/midi.c    **** 		
  76:BSP/midi.c    **** 		__HAL_TIM_ENABLE_IT(htim, TIM_IT_UPDATE);
  93              		.loc 1 76 3 is_stmt 1 view .LVU36
  94 002c 0268     		ldr	r2, [r0]
  95 002e D368     		ldr	r3, [r2, #12]
  96              		.loc 1 76 3 is_stmt 0 view .LVU37
ARM GAS  C:\Users\24120\AppData\Local\Temp\ccTES7Gy.s 			page 4


  97 0030 43F00103 		orr	r3, r3, #1
  98 0034 D360     		str	r3, [r2, #12]
  77:BSP/midi.c    **** }
  99              		.loc 1 77 1 view .LVU38
 100 0036 7047     		bx	lr
 101              	.L3:
 102              		.align	2
 103              	.L2:
 104 0038 00000000 		.word	hmidi
 105              		.cfi_endproc
 106              	.LFE239:
 108              		.section	.text.MIDI_SetMusic,"ax",%progbits
 109              		.align	1
 110              		.global	MIDI_SetMusic
 111              		.syntax unified
 112              		.thumb
 113              		.thumb_func
 115              	MIDI_SetMusic:
 116              	.LVL2:
 117              	.LFB240:
  78:BSP/midi.c    **** 
  79:BSP/midi.c    **** /**
  80:BSP/midi.c    ****   * @brief  设置要播放的音乐数据
  81:BSP/midi.c    ****   * @param  data: 音乐数据数组指针
  82:BSP/midi.c    ****   * @param  len: 音乐数据长度
  83:BSP/midi.c    ****   * @param  base_bpm: 音乐的基准BPM
  84:BSP/midi.c    ****   * @retval None
  85:BSP/midi.c    ****   */
  86:BSP/midi.c    **** void MIDI_SetMusic(uint32_t *data, uint16_t len, uint16_t base_bpm)
  87:BSP/midi.c    **** {
 118              		.loc 1 87 1 is_stmt 1 view -0
 119              		.cfi_startproc
 120              		@ args = 0, pretend = 0, frame = 0
 121              		@ frame_needed = 0, uses_anonymous_args = 0
 122              		@ link register save eliminated.
  88:BSP/midi.c    ****     hmidi.midi_data = data;
 123              		.loc 1 88 5 view .LVU40
 124              		.loc 1 88 21 is_stmt 0 view .LVU41
 125 0000 024B     		ldr	r3, .L5
 126 0002 5862     		str	r0, [r3, #36]
  89:BSP/midi.c    ****     hmidi.midi_len = len;
 127              		.loc 1 89 5 is_stmt 1 view .LVU42
 128              		.loc 1 89 20 is_stmt 0 view .LVU43
 129 0004 1985     		strh	r1, [r3, #40]	@ movhi
  90:BSP/midi.c    ****     hmidi.base_bpm = base_bpm;
 130              		.loc 1 90 5 is_stmt 1 view .LVU44
 131              		.loc 1 90 20 is_stmt 0 view .LVU45
 132 0006 5A84     		strh	r2, [r3, #34]	@ movhi
  91:BSP/midi.c    ****     hmidi.bpm = base_bpm;
 133              		.loc 1 91 5 is_stmt 1 view .LVU46
 134              		.loc 1 91 15 is_stmt 0 view .LVU47
 135 0008 1A84     		strh	r2, [r3, #32]	@ movhi
  92:BSP/midi.c    **** }
 136              		.loc 1 92 1 view .LVU48
 137 000a 7047     		bx	lr
 138              	.L6:
 139              		.align	2
ARM GAS  C:\Users\24120\AppData\Local\Temp\ccTES7Gy.s 			page 5


 140              	.L5:
 141 000c 00000000 		.word	hmidi
 142              		.cfi_endproc
 143              	.LFE240:
 145              		.section	.text.MIDI_Play,"ax",%progbits
 146              		.align	1
 147              		.global	MIDI_Play
 148              		.syntax unified
 149              		.thumb
 150              		.thumb_func
 152              	MIDI_Play:
 153              	.LFB241:
  93:BSP/midi.c    **** 
  94:BSP/midi.c    **** /**
  95:BSP/midi.c    ****   * @brief  开始/继续播放音乐
  96:BSP/midi.c    ****   * @retval None
  97:BSP/midi.c    ****   */
  98:BSP/midi.c    **** void MIDI_Play(void)
  99:BSP/midi.c    **** {
 154              		.loc 1 99 1 is_stmt 1 view -0
 155              		.cfi_startproc
 156              		@ args = 0, pretend = 0, frame = 0
 157              		@ frame_needed = 0, uses_anonymous_args = 0
 158              		@ link register save eliminated.
 100:BSP/midi.c    ****     if (hmidi.state == MIDI_STATE_PAUSED)
 159              		.loc 1 100 5 view .LVU50
 160              		.loc 1 100 14 is_stmt 0 view .LVU51
 161 0000 0B4B     		ldr	r3, .L11
 162 0002 1B7C     		ldrb	r3, [r3, #16]	@ zero_extendqisi2
 163              		.loc 1 100 8 view .LVU52
 164 0004 022B     		cmp	r3, #2
 165 0006 0ED0     		beq	.L10
 101:BSP/midi.c    ****     {
 102:BSP/midi.c    ****         hmidi.state = MIDI_STATE_PLAYING;
 103:BSP/midi.c    ****     }
 104:BSP/midi.c    ****     else if (hmidi.state == MIDI_STATE_STOPPED)
 166              		.loc 1 104 10 is_stmt 1 view .LVU53
 167              		.loc 1 104 13 is_stmt 0 view .LVU54
 168 0008 63B9     		cbnz	r3, .L7
 105:BSP/midi.c    ****     {
 106:BSP/midi.c    ****         if (hmidi.play_time > 0 && hmidi.midi_data != NULL)
 169              		.loc 1 106 9 is_stmt 1 view .LVU55
 170              		.loc 1 106 18 is_stmt 0 view .LVU56
 171 000a 094B     		ldr	r3, .L11
 172 000c 5B69     		ldr	r3, [r3, #20]
 173              		.loc 1 106 12 view .LVU57
 174 000e 4BB1     		cbz	r3, .L7
 175              		.loc 1 106 41 discriminator 1 view .LVU58
 176 0010 074B     		ldr	r3, .L11
 177 0012 5B6A     		ldr	r3, [r3, #36]
 178              		.loc 1 106 33 discriminator 1 view .LVU59
 179 0014 33B1     		cbz	r3, .L7
 107:BSP/midi.c    ****         {
 108:BSP/midi.c    ****             hmidi.midi_idx = 0;
 180              		.loc 1 108 13 is_stmt 1 view .LVU60
 181              		.loc 1 108 28 is_stmt 0 view .LVU61
 182 0016 064B     		ldr	r3, .L11
ARM GAS  C:\Users\24120\AppData\Local\Temp\ccTES7Gy.s 			page 6


 183 0018 0022     		movs	r2, #0
 184 001a 5A82     		strh	r2, [r3, #18]	@ movhi
 109:BSP/midi.c    ****             hmidi.tune_tick = 0;
 185              		.loc 1 109 13 is_stmt 1 view .LVU62
 186              		.loc 1 109 29 is_stmt 0 view .LVU63
 187 001c 9A61     		str	r2, [r3, #24]
 110:BSP/midi.c    ****             hmidi.end_tick = 0;
 188              		.loc 1 110 13 is_stmt 1 view .LVU64
 189              		.loc 1 110 28 is_stmt 0 view .LVU65
 190 001e DA61     		str	r2, [r3, #28]
 111:BSP/midi.c    ****             hmidi.state = MIDI_STATE_PLAYING;
 191              		.loc 1 111 13 is_stmt 1 view .LVU66
 192              		.loc 1 111 25 is_stmt 0 view .LVU67
 193 0020 0122     		movs	r2, #1
 194 0022 1A74     		strb	r2, [r3, #16]
 195              	.L7:
 112:BSP/midi.c    ****         }
 113:BSP/midi.c    ****     }
 114:BSP/midi.c    **** }
 196              		.loc 1 114 1 view .LVU68
 197 0024 7047     		bx	lr
 198              	.L10:
 102:BSP/midi.c    ****     }
 199              		.loc 1 102 9 is_stmt 1 view .LVU69
 102:BSP/midi.c    ****     }
 200              		.loc 1 102 21 is_stmt 0 view .LVU70
 201 0026 024B     		ldr	r3, .L11
 202 0028 0122     		movs	r2, #1
 203 002a 1A74     		strb	r2, [r3, #16]
 204 002c 7047     		bx	lr
 205              	.L12:
 206 002e 00BF     		.align	2
 207              	.L11:
 208 0030 00000000 		.word	hmidi
 209              		.cfi_endproc
 210              	.LFE241:
 212              		.section	.text.MIDI_Pause,"ax",%progbits
 213              		.align	1
 214              		.global	MIDI_Pause
 215              		.syntax unified
 216              		.thumb
 217              		.thumb_func
 219              	MIDI_Pause:
 220              	.LFB242:
 115:BSP/midi.c    **** 
 116:BSP/midi.c    **** /**
 117:BSP/midi.c    ****   * @brief  暂停播放音乐
 118:BSP/midi.c    ****   * @retval None
 119:BSP/midi.c    ****   */
 120:BSP/midi.c    **** void MIDI_Pause(void)
 121:BSP/midi.c    **** {
 221              		.loc 1 121 1 is_stmt 1 view -0
 222              		.cfi_startproc
 223              		@ args = 0, pretend = 0, frame = 0
 224              		@ frame_needed = 0, uses_anonymous_args = 0
 122:BSP/midi.c    ****     if (hmidi.state == MIDI_STATE_PLAYING)
 225              		.loc 1 122 5 view .LVU72
ARM GAS  C:\Users\24120\AppData\Local\Temp\ccTES7Gy.s 			page 7


 226              		.loc 1 122 14 is_stmt 0 view .LVU73
 227 0000 064B     		ldr	r3, .L20
 228 0002 1B7C     		ldrb	r3, [r3, #16]	@ zero_extendqisi2
 229              		.loc 1 122 8 view .LVU74
 230 0004 012B     		cmp	r3, #1
 231 0006 00D0     		beq	.L19
 232 0008 7047     		bx	lr
 233              	.L19:
 121:BSP/midi.c    ****     if (hmidi.state == MIDI_STATE_PLAYING)
 234              		.loc 1 121 1 view .LVU75
 235 000a 10B5     		push	{r4, lr}
 236              	.LCFI0:
 237              		.cfi_def_cfa_offset 8
 238              		.cfi_offset 4, -8
 239              		.cfi_offset 14, -4
 123:BSP/midi.c    ****     {
 124:BSP/midi.c    ****         HAL_TIM_PWM_Stop_IT(hmidi.htim, hmidi.channel);
 240              		.loc 1 124 9 is_stmt 1 view .LVU76
 241 000c 034C     		ldr	r4, .L20
 242 000e 6168     		ldr	r1, [r4, #4]
 243 0010 2068     		ldr	r0, [r4]
 244 0012 FFF7FEFF 		bl	HAL_TIM_PWM_Stop_IT
 245              	.LVL3:
 125:BSP/midi.c    ****         hmidi.state = MIDI_STATE_PAUSED;
 246              		.loc 1 125 9 view .LVU77
 247              		.loc 1 125 21 is_stmt 0 view .LVU78
 248 0016 0223     		movs	r3, #2
 249 0018 2374     		strb	r3, [r4, #16]
 126:BSP/midi.c    ****     }
 127:BSP/midi.c    **** }
 250              		.loc 1 127 1 view .LVU79
 251 001a 10BD     		pop	{r4, pc}
 252              	.L21:
 253              		.align	2
 254              	.L20:
 255 001c 00000000 		.word	hmidi
 256              		.cfi_endproc
 257              	.LFE242:
 259              		.section	.text.MIDI_Restart,"ax",%progbits
 260              		.align	1
 261              		.global	MIDI_Restart
 262              		.syntax unified
 263              		.thumb
 264              		.thumb_func
 266              	MIDI_Restart:
 267              	.LFB243:
 128:BSP/midi.c    **** 
 129:BSP/midi.c    **** /**
 130:BSP/midi.c    ****   * @brief  重新开始播放音乐
 131:BSP/midi.c    ****   * @retval None
 132:BSP/midi.c    ****   */
 133:BSP/midi.c    **** void MIDI_Restart(void)
 134:BSP/midi.c    **** {
 268              		.loc 1 134 1 is_stmt 1 view -0
 269              		.cfi_startproc
 270              		@ args = 0, pretend = 0, frame = 0
 271              		@ frame_needed = 0, uses_anonymous_args = 0
ARM GAS  C:\Users\24120\AppData\Local\Temp\ccTES7Gy.s 			page 8


 135:BSP/midi.c    ****     if (hmidi.midi_data != NULL)
 272              		.loc 1 135 5 view .LVU81
 273              		.loc 1 135 14 is_stmt 0 view .LVU82
 274 0000 084B     		ldr	r3, .L28
 275 0002 5B6A     		ldr	r3, [r3, #36]
 276              		.loc 1 135 8 view .LVU83
 277 0004 63B1     		cbz	r3, .L25
 134:BSP/midi.c    ****     if (hmidi.midi_data != NULL)
 278              		.loc 1 134 1 view .LVU84
 279 0006 10B5     		push	{r4, lr}
 280              	.LCFI1:
 281              		.cfi_def_cfa_offset 8
 282              		.cfi_offset 4, -8
 283              		.cfi_offset 14, -4
 136:BSP/midi.c    ****     {
 137:BSP/midi.c    ****         HAL_TIM_PWM_Stop_IT(hmidi.htim, hmidi.channel);
 284              		.loc 1 137 9 is_stmt 1 view .LVU85
 285 0008 064C     		ldr	r4, .L28
 286 000a 6168     		ldr	r1, [r4, #4]
 287 000c 2068     		ldr	r0, [r4]
 288 000e FFF7FEFF 		bl	HAL_TIM_PWM_Stop_IT
 289              	.LVL4:
 138:BSP/midi.c    ****         hmidi.midi_idx = 0;
 290              		.loc 1 138 9 view .LVU86
 291              		.loc 1 138 24 is_stmt 0 view .LVU87
 292 0012 0023     		movs	r3, #0
 293 0014 6382     		strh	r3, [r4, #18]	@ movhi
 139:BSP/midi.c    ****         hmidi.tune_tick = 0;
 294              		.loc 1 139 9 is_stmt 1 view .LVU88
 295              		.loc 1 139 25 is_stmt 0 view .LVU89
 296 0016 A361     		str	r3, [r4, #24]
 140:BSP/midi.c    ****         hmidi.end_tick = 0;
 297              		.loc 1 140 9 is_stmt 1 view .LVU90
 298              		.loc 1 140 24 is_stmt 0 view .LVU91
 299 0018 E361     		str	r3, [r4, #28]
 141:BSP/midi.c    ****         hmidi.state = MIDI_STATE_PLAYING;
 300              		.loc 1 141 9 is_stmt 1 view .LVU92
 301              		.loc 1 141 21 is_stmt 0 view .LVU93
 302 001a 0123     		movs	r3, #1
 303 001c 2374     		strb	r3, [r4, #16]
 142:BSP/midi.c    ****     }
 143:BSP/midi.c    **** }
 304              		.loc 1 143 1 view .LVU94
 305 001e 10BD     		pop	{r4, pc}
 306              	.L25:
 307              	.LCFI2:
 308              		.cfi_def_cfa_offset 0
 309              		.cfi_restore 4
 310              		.cfi_restore 14
 311 0020 7047     		bx	lr
 312              	.L29:
 313 0022 00BF     		.align	2
 314              	.L28:
 315 0024 00000000 		.word	hmidi
 316              		.cfi_endproc
 317              	.LFE243:
 319              		.section	.text.MIDI_Stop,"ax",%progbits
ARM GAS  C:\Users\24120\AppData\Local\Temp\ccTES7Gy.s 			page 9


 320              		.align	1
 321              		.global	MIDI_Stop
 322              		.syntax unified
 323              		.thumb
 324              		.thumb_func
 326              	MIDI_Stop:
 327              	.LFB244:
 144:BSP/midi.c    **** 
 145:BSP/midi.c    **** /**
 146:BSP/midi.c    ****   * @brief  停止播放音乐
 147:BSP/midi.c    ****   * @retval None
 148:BSP/midi.c    ****   */
 149:BSP/midi.c    **** void MIDI_Stop(void)
 150:BSP/midi.c    **** {
 328              		.loc 1 150 1 is_stmt 1 view -0
 329              		.cfi_startproc
 330              		@ args = 0, pretend = 0, frame = 0
 331              		@ frame_needed = 0, uses_anonymous_args = 0
 332 0000 10B5     		push	{r4, lr}
 333              	.LCFI3:
 334              		.cfi_def_cfa_offset 8
 335              		.cfi_offset 4, -8
 336              		.cfi_offset 14, -4
 151:BSP/midi.c    ****     HAL_TIM_PWM_Stop_IT(hmidi.htim, hmidi.channel);
 337              		.loc 1 151 5 view .LVU96
 338 0002 064C     		ldr	r4, .L32
 339 0004 6168     		ldr	r1, [r4, #4]
 340 0006 2068     		ldr	r0, [r4]
 341 0008 FFF7FEFF 		bl	HAL_TIM_PWM_Stop_IT
 342              	.LVL5:
 152:BSP/midi.c    ****     hmidi.tune = 0;
 343              		.loc 1 152 5 view .LVU97
 344              		.loc 1 152 16 is_stmt 0 view .LVU98
 345 000c 0023     		movs	r3, #0
 346 000e 2372     		strb	r3, [r4, #8]
 153:BSP/midi.c    ****     hmidi.cnt = 0;
 347              		.loc 1 153 5 is_stmt 1 view .LVU99
 348              		.loc 1 153 15 is_stmt 0 view .LVU100
 349 0010 E360     		str	r3, [r4, #12]
 154:BSP/midi.c    ****     hmidi.midi_idx = 0;
 350              		.loc 1 154 5 is_stmt 1 view .LVU101
 351              		.loc 1 154 20 is_stmt 0 view .LVU102
 352 0012 6382     		strh	r3, [r4, #18]	@ movhi
 155:BSP/midi.c    ****     hmidi.tune_tick = 0;
 353              		.loc 1 155 5 is_stmt 1 view .LVU103
 354              		.loc 1 155 21 is_stmt 0 view .LVU104
 355 0014 A361     		str	r3, [r4, #24]
 156:BSP/midi.c    ****     hmidi.end_tick = 0;
 356              		.loc 1 156 5 is_stmt 1 view .LVU105
 357              		.loc 1 156 20 is_stmt 0 view .LVU106
 358 0016 E361     		str	r3, [r4, #28]
 157:BSP/midi.c    ****     hmidi.state = MIDI_STATE_STOPPED;
 359              		.loc 1 157 5 is_stmt 1 view .LVU107
 360              		.loc 1 157 17 is_stmt 0 view .LVU108
 361 0018 2374     		strb	r3, [r4, #16]
 158:BSP/midi.c    **** }
 362              		.loc 1 158 1 view .LVU109
ARM GAS  C:\Users\24120\AppData\Local\Temp\ccTES7Gy.s 			page 10


 363 001a 10BD     		pop	{r4, pc}
 364              	.L33:
 365              		.align	2
 366              	.L32:
 367 001c 00000000 		.word	hmidi
 368              		.cfi_endproc
 369              	.LFE244:
 371              		.section	.text.MIDI_SetDuration,"ax",%progbits
 372              		.align	1
 373              		.global	MIDI_SetDuration
 374              		.syntax unified
 375              		.thumb
 376              		.thumb_func
 378              	MIDI_SetDuration:
 379              	.LVL6:
 380              	.LFB245:
 159:BSP/midi.c    **** 
 160:BSP/midi.c    **** /**
 161:BSP/midi.c    ****   * @brief  设置播放时长（单位：秒）
 162:BSP/midi.c    ****   * @param  seconds: 播放时长，0表示无限播放
 163:BSP/midi.c    ****   * @retval None
 164:BSP/midi.c    ****   */
 165:BSP/midi.c    **** void MIDI_SetDuration(uint32_t seconds)
 166:BSP/midi.c    **** {
 381              		.loc 1 166 1 is_stmt 1 view -0
 382              		.cfi_startproc
 383              		@ args = 0, pretend = 0, frame = 0
 384              		@ frame_needed = 0, uses_anonymous_args = 0
 385              		@ link register save eliminated.
 167:BSP/midi.c    ****     hmidi.play_time = seconds;
 386              		.loc 1 167 5 view .LVU111
 387              		.loc 1 167 21 is_stmt 0 view .LVU112
 388 0000 014B     		ldr	r3, .L35
 389 0002 5861     		str	r0, [r3, #20]
 168:BSP/midi.c    **** }
 390              		.loc 1 168 1 view .LVU113
 391 0004 7047     		bx	lr
 392              	.L36:
 393 0006 00BF     		.align	2
 394              	.L35:
 395 0008 00000000 		.word	hmidi
 396              		.cfi_endproc
 397              	.LFE245:
 399              		.section	.text.MIDI_SetLoop,"ax",%progbits
 400              		.align	1
 401              		.global	MIDI_SetLoop
 402              		.syntax unified
 403              		.thumb
 404              		.thumb_func
 406              	MIDI_SetLoop:
 407              	.LVL7:
 408              	.LFB246:
 169:BSP/midi.c    **** 
 170:BSP/midi.c    **** /**
 171:BSP/midi.c    ****   * @brief  设置是否循环播放
 172:BSP/midi.c    ****   * @param  enable: 1=循环播放，0=不循环
 173:BSP/midi.c    ****   * @retval None
ARM GAS  C:\Users\24120\AppData\Local\Temp\ccTES7Gy.s 			page 11


 174:BSP/midi.c    ****   */
 175:BSP/midi.c    **** void MIDI_SetLoop(uint8_t enable)
 176:BSP/midi.c    **** {
 409              		.loc 1 176 1 is_stmt 1 view -0
 410              		.cfi_startproc
 411              		@ args = 0, pretend = 0, frame = 0
 412              		@ frame_needed = 0, uses_anonymous_args = 0
 413              		@ link register save eliminated.
 177:BSP/midi.c    ****     hmidi.loop = enable;
 414              		.loc 1 177 5 view .LVU115
 415              		.loc 1 177 16 is_stmt 0 view .LVU116
 416 0000 014B     		ldr	r3, .L38
 417 0002 5874     		strb	r0, [r3, #17]
 178:BSP/midi.c    **** }
 418              		.loc 1 178 1 view .LVU117
 419 0004 7047     		bx	lr
 420              	.L39:
 421 0006 00BF     		.align	2
 422              	.L38:
 423 0008 00000000 		.word	hmidi
 424              		.cfi_endproc
 425              	.LFE246:
 427              		.section	.text.MIDI_SetVolume,"ax",%progbits
 428              		.align	1
 429              		.global	MIDI_SetVolume
 430              		.syntax unified
 431              		.thumb
 432              		.thumb_func
 434              	MIDI_SetVolume:
 435              	.LVL8:
 436              	.LFB247:
 179:BSP/midi.c    **** 
 180:BSP/midi.c    **** /**
 181:BSP/midi.c    ****   * @brief  设置音量
 182:BSP/midi.c    ****   * @param  vol: 音量值，范围0-100
 183:BSP/midi.c    ****   * @retval None
 184:BSP/midi.c    ****   */
 185:BSP/midi.c    **** void MIDI_SetVolume(uint8_t vol)
 186:BSP/midi.c    **** {
 437              		.loc 1 186 1 is_stmt 1 view -0
 438              		.cfi_startproc
 439              		@ args = 0, pretend = 0, frame = 0
 440              		@ frame_needed = 0, uses_anonymous_args = 0
 441              		@ link register save eliminated.
 187:BSP/midi.c    ****     if (vol > 100)
 442              		.loc 1 187 5 view .LVU119
 443              		.loc 1 187 8 is_stmt 0 view .LVU120
 444 0000 6428     		cmp	r0, #100
 445 0002 00D9     		bls	.L41
 188:BSP/midi.c    ****         vol = 100;
 446              		.loc 1 188 13 view .LVU121
 447 0004 6420     		movs	r0, #100
 448              	.LVL9:
 449              	.L41:
 189:BSP/midi.c    ****     hmidi.vol = vol;
 450              		.loc 1 189 5 is_stmt 1 view .LVU122
 451              		.loc 1 189 15 is_stmt 0 view .LVU123
ARM GAS  C:\Users\24120\AppData\Local\Temp\ccTES7Gy.s 			page 12


 452 0006 014B     		ldr	r3, .L43
 453 0008 9872     		strb	r0, [r3, #10]
 190:BSP/midi.c    **** }
 454              		.loc 1 190 1 view .LVU124
 455 000a 7047     		bx	lr
 456              	.L44:
 457              		.align	2
 458              	.L43:
 459 000c 00000000 		.word	hmidi
 460              		.cfi_endproc
 461              	.LFE247:
 463              		.section	.text.MIDI_GetVolume,"ax",%progbits
 464              		.align	1
 465              		.global	MIDI_GetVolume
 466              		.syntax unified
 467              		.thumb
 468              		.thumb_func
 470              	MIDI_GetVolume:
 471              	.LFB248:
 191:BSP/midi.c    **** 
 192:BSP/midi.c    **** /**
 193:BSP/midi.c    ****   * @brief  获取当前音量
 194:BSP/midi.c    ****   * @retval 当前音量值
 195:BSP/midi.c    ****   */
 196:BSP/midi.c    **** uint8_t MIDI_GetVolume(void)
 197:BSP/midi.c    **** {
 472              		.loc 1 197 1 is_stmt 1 view -0
 473              		.cfi_startproc
 474              		@ args = 0, pretend = 0, frame = 0
 475              		@ frame_needed = 0, uses_anonymous_args = 0
 476              		@ link register save eliminated.
 198:BSP/midi.c    ****     return hmidi.vol;
 477              		.loc 1 198 5 view .LVU126
 199:BSP/midi.c    **** }
 478              		.loc 1 199 1 is_stmt 0 view .LVU127
 479 0000 014B     		ldr	r3, .L46
 480 0002 987A     		ldrb	r0, [r3, #10]	@ zero_extendqisi2
 481 0004 7047     		bx	lr
 482              	.L47:
 483 0006 00BF     		.align	2
 484              	.L46:
 485 0008 00000000 		.word	hmidi
 486              		.cfi_endproc
 487              	.LFE248:
 489              		.section	.text.MIDI_SetBPM,"ax",%progbits
 490              		.align	1
 491              		.global	MIDI_SetBPM
 492              		.syntax unified
 493              		.thumb
 494              		.thumb_func
 496              	MIDI_SetBPM:
 497              	.LVL10:
 498              	.LFB249:
 200:BSP/midi.c    **** 
 201:BSP/midi.c    **** /**
 202:BSP/midi.c    ****   * @brief  设置播放速度（BPM）
 203:BSP/midi.c    ****   * @param  bpm: 每分钟节拍数
ARM GAS  C:\Users\24120\AppData\Local\Temp\ccTES7Gy.s 			page 13


 204:BSP/midi.c    ****   * @retval None
 205:BSP/midi.c    ****   */
 206:BSP/midi.c    **** void MIDI_SetBPM(uint16_t bpm)
 207:BSP/midi.c    **** {
 499              		.loc 1 207 1 is_stmt 1 view -0
 500              		.cfi_startproc
 501              		@ args = 0, pretend = 0, frame = 0
 502              		@ frame_needed = 0, uses_anonymous_args = 0
 503              		@ link register save eliminated.
 208:BSP/midi.c    ****     if (bpm > 0)
 504              		.loc 1 208 5 view .LVU129
 505              		.loc 1 208 8 is_stmt 0 view .LVU130
 506 0000 08B1     		cbz	r0, .L48
 209:BSP/midi.c    ****         hmidi.bpm = bpm;
 507              		.loc 1 209 9 is_stmt 1 view .LVU131
 508              		.loc 1 209 19 is_stmt 0 view .LVU132
 509 0002 014A     		ldr	r2, .L50
 510 0004 1084     		strh	r0, [r2, #32]	@ movhi
 511              	.L48:
 210:BSP/midi.c    **** }
 512              		.loc 1 210 1 view .LVU133
 513 0006 7047     		bx	lr
 514              	.L51:
 515              		.align	2
 516              	.L50:
 517 0008 00000000 		.word	hmidi
 518              		.cfi_endproc
 519              	.LFE249:
 521              		.section	.text.MIDI_GetBPM,"ax",%progbits
 522              		.align	1
 523              		.global	MIDI_GetBPM
 524              		.syntax unified
 525              		.thumb
 526              		.thumb_func
 528              	MIDI_GetBPM:
 529              	.LFB250:
 211:BSP/midi.c    **** 
 212:BSP/midi.c    **** /**
 213:BSP/midi.c    ****   * @brief  获取当前播放速度
 214:BSP/midi.c    ****   * @retval 当前BPM值
 215:BSP/midi.c    ****   */
 216:BSP/midi.c    **** uint16_t MIDI_GetBPM(void)
 217:BSP/midi.c    **** {
 530              		.loc 1 217 1 is_stmt 1 view -0
 531              		.cfi_startproc
 532              		@ args = 0, pretend = 0, frame = 0
 533              		@ frame_needed = 0, uses_anonymous_args = 0
 534              		@ link register save eliminated.
 218:BSP/midi.c    ****     return hmidi.bpm;
 535              		.loc 1 218 5 view .LVU135
 219:BSP/midi.c    **** }
 536              		.loc 1 219 1 is_stmt 0 view .LVU136
 537 0000 014B     		ldr	r3, .L53
 538 0002 188C     		ldrh	r0, [r3, #32]
 539 0004 7047     		bx	lr
 540              	.L54:
 541 0006 00BF     		.align	2
ARM GAS  C:\Users\24120\AppData\Local\Temp\ccTES7Gy.s 			page 14


 542              	.L53:
 543 0008 00000000 		.word	hmidi
 544              		.cfi_endproc
 545              	.LFE250:
 547              		.section	.text.MIDI_SetShift,"ax",%progbits
 548              		.align	1
 549              		.global	MIDI_SetShift
 550              		.syntax unified
 551              		.thumb
 552              		.thumb_func
 554              	MIDI_SetShift:
 555              	.LVL11:
 556              	.LFB251:
 220:BSP/midi.c    **** 
 221:BSP/midi.c    **** /**
 222:BSP/midi.c    ****   * @brief  设置音调偏移（移调）
 223:BSP/midi.c    ****   * @param  shift: 移调半音数，正数升调，负数降调
 224:BSP/midi.c    ****   * @retval None
 225:BSP/midi.c    ****   */
 226:BSP/midi.c    **** void MIDI_SetShift(int8_t shift)
 227:BSP/midi.c    **** {
 557              		.loc 1 227 1 is_stmt 1 view -0
 558              		.cfi_startproc
 559              		@ args = 0, pretend = 0, frame = 0
 560              		@ frame_needed = 0, uses_anonymous_args = 0
 561              		@ link register save eliminated.
 228:BSP/midi.c    ****     hmidi.shift = shift;
 562              		.loc 1 228 5 view .LVU138
 563              		.loc 1 228 17 is_stmt 0 view .LVU139
 564 0000 014B     		ldr	r3, .L56
 565 0002 D872     		strb	r0, [r3, #11]
 229:BSP/midi.c    **** }
 566              		.loc 1 229 1 view .LVU140
 567 0004 7047     		bx	lr
 568              	.L57:
 569 0006 00BF     		.align	2
 570              	.L56:
 571 0008 00000000 		.word	hmidi
 572              		.cfi_endproc
 573              	.LFE251:
 575              		.section	.text.MIDI_GetShift,"ax",%progbits
 576              		.align	1
 577              		.global	MIDI_GetShift
 578              		.syntax unified
 579              		.thumb
 580              		.thumb_func
 582              	MIDI_GetShift:
 583              	.LFB252:
 230:BSP/midi.c    **** 
 231:BSP/midi.c    **** /**
 232:BSP/midi.c    ****   * @brief  获取当前音调偏移
 233:BSP/midi.c    ****   * @retval 当前移调值
 234:BSP/midi.c    ****   */
 235:BSP/midi.c    **** int8_t MIDI_GetShift(void)
 236:BSP/midi.c    **** {
 584              		.loc 1 236 1 is_stmt 1 view -0
 585              		.cfi_startproc
ARM GAS  C:\Users\24120\AppData\Local\Temp\ccTES7Gy.s 			page 15


 586              		@ args = 0, pretend = 0, frame = 0
 587              		@ frame_needed = 0, uses_anonymous_args = 0
 588              		@ link register save eliminated.
 237:BSP/midi.c    ****     return hmidi.shift;
 589              		.loc 1 237 5 view .LVU142
 238:BSP/midi.c    **** }
 590              		.loc 1 238 1 is_stmt 0 view .LVU143
 591 0000 014B     		ldr	r3, .L59
 592 0002 93F90B00 		ldrsb	r0, [r3, #11]
 593 0006 7047     		bx	lr
 594              	.L60:
 595              		.align	2
 596              	.L59:
 597 0008 00000000 		.word	hmidi
 598              		.cfi_endproc
 599              	.LFE252:
 601              		.section	.text.MIDI_GetState,"ax",%progbits
 602              		.align	1
 603              		.global	MIDI_GetState
 604              		.syntax unified
 605              		.thumb
 606              		.thumb_func
 608              	MIDI_GetState:
 609              	.LFB253:
 239:BSP/midi.c    **** 
 240:BSP/midi.c    **** /**
 241:BSP/midi.c    ****   * @brief  获取当前播放状态
 242:BSP/midi.c    ****   * @retval 当前状态
 243:BSP/midi.c    ****   */
 244:BSP/midi.c    **** MIDI_StateTypeDef MIDI_GetState(void)
 245:BSP/midi.c    **** {
 610              		.loc 1 245 1 is_stmt 1 view -0
 611              		.cfi_startproc
 612              		@ args = 0, pretend = 0, frame = 0
 613              		@ frame_needed = 0, uses_anonymous_args = 0
 614              		@ link register save eliminated.
 246:BSP/midi.c    ****     return hmidi.state;
 615              		.loc 1 246 5 view .LVU145
 247:BSP/midi.c    **** }
 616              		.loc 1 247 1 is_stmt 0 view .LVU146
 617 0000 014B     		ldr	r3, .L62
 618 0002 187C     		ldrb	r0, [r3, #16]	@ zero_extendqisi2
 619 0004 7047     		bx	lr
 620              	.L63:
 621 0006 00BF     		.align	2
 622              	.L62:
 623 0008 00000000 		.word	hmidi
 624              		.cfi_endproc
 625              	.LFE253:
 627              		.section	.text.MIDI_Beep,"ax",%progbits
 628              		.align	1
 629              		.global	MIDI_Beep
 630              		.syntax unified
 631              		.thumb
 632              		.thumb_func
 634              	MIDI_Beep:
 635              	.LVL12:
ARM GAS  C:\Users\24120\AppData\Local\Temp\ccTES7Gy.s 			page 16


 636              	.LFB254:
 248:BSP/midi.c    **** 
 249:BSP/midi.c    **** /**
 250:BSP/midi.c    ****   * @brief  播放单音
 251:BSP/midi.c    ****   * @param  tune: 音符编号（0-24，0=休止符）
 252:BSP/midi.c    ****   * @param  time: 音符时长（毫秒）
 253:BSP/midi.c    ****   * @retval None
 254:BSP/midi.c    ****   */
 255:BSP/midi.c    **** void MIDI_Beep(uint8_t tune, uint16_t time)
 256:BSP/midi.c    **** {
 637              		.loc 1 256 1 is_stmt 1 view -0
 638              		.cfi_startproc
 639              		@ args = 0, pretend = 0, frame = 8
 640              		@ frame_needed = 0, uses_anonymous_args = 0
 641              		.loc 1 256 1 is_stmt 0 view .LVU148
 642 0000 10B5     		push	{r4, lr}
 643              	.LCFI4:
 644              		.cfi_def_cfa_offset 8
 645              		.cfi_offset 4, -8
 646              		.cfi_offset 14, -4
 647 0002 2DED028B 		vpush.64	{d8}
 648              	.LCFI5:
 649              		.cfi_def_cfa_offset 16
 650              		.cfi_offset 80, -16
 651              		.cfi_offset 81, -12
 652 0006 82B0     		sub	sp, sp, #8
 653              	.LCFI6:
 654              		.cfi_def_cfa_offset 24
 655 0008 0191     		str	r1, [sp, #4]
 257:BSP/midi.c    ****     float key = (tune / 8) * 2;
 656              		.loc 1 257 5 is_stmt 1 view .LVU149
 657              		.loc 1 257 23 is_stmt 0 view .LVU150
 658 000a C308     		lsrs	r3, r0, #3
 659              		.loc 1 257 28 view .LVU151
 660 000c 5B00     		lsls	r3, r3, #1
 661              		.loc 1 257 11 view .LVU152
 662 000e 07EE903A 		vmov	s15, r3	@ int
 663 0012 B8EEE78A 		vcvt.f32.s32	s16, s15
 664              	.LVL13:
 258:BSP/midi.c    ****     if (key < 1)
 665              		.loc 1 258 5 is_stmt 1 view .LVU153
 666              		.loc 1 258 8 is_stmt 0 view .LVU154
 667 0016 F7EE007A 		vmov.f32	s15, #1.0e+0
 668 001a B4EEE78A 		vcmpe.f32	s16, s15
 669 001e F1EE10FA 		vmrs	APSR_nzcv, FPSCR
 670 0022 65D4     		bmi	.L75
 671              	.LVL14:
 672              	.L65:
 259:BSP/midi.c    ****         key = 1;
 260:BSP/midi.c    **** 
 261:BSP/midi.c    ****     tune %= 8;
 673              		.loc 1 261 5 is_stmt 1 view .LVU155
 674              		.loc 1 261 10 is_stmt 0 view .LVU156
 675 0024 00F00704 		and	r4, r0, #7
 676              	.LVL15:
 262:BSP/midi.c    ****     hmidi.tune = tune;
 677              		.loc 1 262 5 is_stmt 1 view .LVU157
ARM GAS  C:\Users\24120\AppData\Local\Temp\ccTES7Gy.s 			page 17


 678              		.loc 1 262 16 is_stmt 0 view .LVU158
 679 0028 654B     		ldr	r3, .L78
 680 002a 1C72     		strb	r4, [r3, #8]
 263:BSP/midi.c    **** 
 264:BSP/midi.c    ****     HAL_TIM_PWM_Stop_IT(hmidi.htim, hmidi.channel);
 681              		.loc 1 264 5 is_stmt 1 view .LVU159
 682 002c 5968     		ldr	r1, [r3, #4]
 683              	.LVL16:
 684              		.loc 1 264 5 is_stmt 0 view .LVU160
 685 002e 1868     		ldr	r0, [r3]
 686 0030 FFF7FEFF 		bl	HAL_TIM_PWM_Stop_IT
 687              	.LVL17:
 265:BSP/midi.c    **** 
 266:BSP/midi.c    ****     if (tune > 0)
 688              		.loc 1 266 5 is_stmt 1 view .LVU161
 689              		.loc 1 266 8 is_stmt 0 view .LVU162
 690 0034 002C     		cmp	r4, #0
 691 0036 57D0     		beq	.L64
 692              	.LBB2:
 267:BSP/midi.c    ****     {
 268:BSP/midi.c    ****         int8_t tt = tune;
 693              		.loc 1 268 9 is_stmt 1 view .LVU163
 694              	.LVL18:
 269:BSP/midi.c    ****         tt += hmidi.shift;
 695              		.loc 1 269 9 view .LVU164
 696              		.loc 1 269 20 is_stmt 0 view .LVU165
 697 0038 614B     		ldr	r3, .L78
 698 003a DB7A     		ldrb	r3, [r3, #11]	@ zero_extendqisi2
 699              		.loc 1 269 12 view .LVU166
 700 003c 2344     		add	r3, r3, r4
 701 003e DAB2     		uxtb	r2, r3
 702 0040 5BB2     		sxtb	r3, r3
 703              	.LVL19:
 270:BSP/midi.c    ****         if (tt >= 8)
 704              		.loc 1 270 9 is_stmt 1 view .LVU167
 705              		.loc 1 270 12 is_stmt 0 view .LVU168
 706 0042 072B     		cmp	r3, #7
 707 0044 57DD     		ble	.L67
 271:BSP/midi.c    ****         {
 272:BSP/midi.c    ****             tt -= 7;
 708              		.loc 1 272 13 is_stmt 1 view .LVU169
 709              		.loc 1 272 16 is_stmt 0 view .LVU170
 710 0046 073A     		subs	r2, r2, #7
 711 0048 53B2     		sxtb	r3, r2
 712              	.LVL20:
 273:BSP/midi.c    ****             key *= 2;
 713              		.loc 1 273 13 is_stmt 1 view .LVU171
 714              		.loc 1 273 17 is_stmt 0 view .LVU172
 715 004a 38EE088A 		vadd.f32	s16, s16, s16
 716              	.LVL21:
 717              	.L68:
 274:BSP/midi.c    ****         }
 275:BSP/midi.c    ****         else if (tt <= 0)
 276:BSP/midi.c    ****         {
 277:BSP/midi.c    ****             tt += 7;
 278:BSP/midi.c    ****             key *= 0.5;
 279:BSP/midi.c    ****         }
ARM GAS  C:\Users\24120\AppData\Local\Temp\ccTES7Gy.s 			page 18


 280:BSP/midi.c    **** 
 281:BSP/midi.c    ****         float arr = (1000000 / (midi_freq_tab[tt] * key)) - 1;
 718              		.loc 1 281 9 is_stmt 1 view .LVU173
 719              		.loc 1 281 46 is_stmt 0 view .LVU174
 720 004e 5D4A     		ldr	r2, .L78+4
 721 0050 02EB8303 		add	r3, r2, r3, lsl #2
 722              	.LVL22:
 723              		.loc 1 281 46 view .LVU175
 724 0054 93ED007A 		vldr.32	s14, [r3]
 725              		.loc 1 281 51 view .LVU176
 726 0058 27EE087A 		vmul.f32	s14, s14, s16
 727              		.loc 1 281 30 view .LVU177
 728 005c DFED5A7A 		vldr.32	s15, .L78+8
 729 0060 C7EE876A 		vdiv.f32	s13, s15, s14
 730              		.loc 1 281 15 view .LVU178
 731 0064 F7EE007A 		vmov.f32	s15, #1.0e+0
 732 0068 76EEE76A 		vsub.f32	s13, s13, s15
 733              	.LVL23:
 282:BSP/midi.c    ****         __HAL_TIM_SET_AUTORELOAD(hmidi.htim, (uint16_t)arr);
 734              		.loc 1 282 9 is_stmt 1 view .LVU179
 735              		.loc 1 282 9 view .LVU180
 736 006c 544A     		ldr	r2, .L78
 737 006e 1068     		ldr	r0, [r2]
 738 0070 0168     		ldr	r1, [r0]
 739 0072 FCEEE67A 		vcvt.u32.f32	s15, s13
 740 0076 17EE903A 		vmov	r3, s15	@ int
 741 007a 9BB2     		uxth	r3, r3
 742 007c CB62     		str	r3, [r1, #44]
 743              		.loc 1 282 9 view .LVU181
 744 007e C360     		str	r3, [r0, #12]
 745              		.loc 1 282 9 view .LVU182
 283:BSP/midi.c    ****         __HAL_TIM_SET_COMPARE(hmidi.htim, hmidi.channel, arr * (hmidi.vol % 101) / 100);
 746              		.loc 1 283 9 view .LVU183
 747 0080 5168     		ldr	r1, [r2, #4]
 748 0082 0029     		cmp	r1, #0
 749 0084 40D1     		bne	.L69
 750              		.loc 1 283 9 is_stmt 0 discriminator 1 view .LVU184
 751 0086 937A     		ldrb	r3, [r2, #10]	@ zero_extendqisi2
 752 0088 504A     		ldr	r2, .L78+12
 753 008a A2FB0342 		umull	r4, r2, r2, r3
 754              	.LVL24:
 755              		.loc 1 283 9 discriminator 1 view .LVU185
 756 008e 9C1A     		subs	r4, r3, r2
 757 0090 02EB5402 		add	r2, r2, r4, lsr #1
 758 0094 9209     		lsrs	r2, r2, #6
 759 0096 6524     		movs	r4, #101
 760 0098 04FB1233 		mls	r3, r4, r2, r3
 761 009c DBB2     		uxtb	r3, r3
 762 009e 07EE903A 		vmov	s15, r3	@ int
 763 00a2 F8EEE77A 		vcvt.f32.s32	s15, s15
 764 00a6 67EEA67A 		vmul.f32	s15, s15, s13
 765 00aa 9FED496A 		vldr.32	s12, .L78+16
 766 00ae C7EE866A 		vdiv.f32	s13, s15, s12
 767              	.LVL25:
 768              		.loc 1 283 9 discriminator 1 view .LVU186
 769 00b2 0368     		ldr	r3, [r0]
 770 00b4 FCEEE66A 		vcvt.u32.f32	s13, s13
ARM GAS  C:\Users\24120\AppData\Local\Temp\ccTES7Gy.s 			page 19


 771 00b8 C3ED0D6A 		vstr.32	s13, [r3, #52]	@ int
 772              	.L70:
 284:BSP/midi.c    ****         hmidi.key = (uint8_t)key;
 773              		.loc 1 284 9 is_stmt 1 view .LVU187
 774              		.loc 1 284 21 is_stmt 0 view .LVU188
 775 00bc FCEEC87A 		vcvt.u32.f32	s15, s16
 776 00c0 17EE903A 		vmov	r3, s15	@ int
 777              		.loc 1 284 19 view .LVU189
 778 00c4 3E4A     		ldr	r2, .L78
 779 00c6 5372     		strb	r3, [r2, #9]
 285:BSP/midi.c    ****         hmidi.cnt = midi_freq_tab[tt] * key * time / 1000;
 780              		.loc 1 285 9 is_stmt 1 view .LVU190
 781              		.loc 1 285 45 is_stmt 0 view .LVU191
 782 00c8 DDED017A 		vldr.32	s15, [sp, #4]	@ int
 783 00cc F8EEE77A 		vcvt.f32.s32	s15, s15
 784 00d0 67EE877A 		vmul.f32	s15, s15, s14
 785              		.loc 1 285 52 view .LVU192
 786 00d4 DFED3F6A 		vldr.32	s13, .L78+20
 787 00d8 87EEA67A 		vdiv.f32	s14, s15, s13
 788              	.LVL26:
 789              		.loc 1 285 19 view .LVU193
 790 00dc BCEEC77A 		vcvt.u32.f32	s14, s14
 791 00e0 82ED037A 		vstr.32	s14, [r2, #12]	@ int
 286:BSP/midi.c    ****         HAL_TIM_PWM_Start_IT(hmidi.htim, hmidi.channel);
 792              		.loc 1 286 9 is_stmt 1 view .LVU194
 793 00e4 FFF7FEFF 		bl	HAL_TIM_PWM_Start_IT
 794              	.LVL27:
 795              	.L64:
 796              		.loc 1 286 9 is_stmt 0 view .LVU195
 797              	.LBE2:
 287:BSP/midi.c    ****     }
 288:BSP/midi.c    **** }
 798              		.loc 1 288 1 view .LVU196
 799 00e8 02B0     		add	sp, sp, #8
 800              	.LCFI7:
 801              		.cfi_remember_state
 802              		.cfi_def_cfa_offset 16
 803              		@ sp needed
 804 00ea BDEC028B 		vldm	sp!, {d8}
 805              	.LCFI8:
 806              		.cfi_restore 80
 807              		.cfi_restore 81
 808              		.cfi_def_cfa_offset 8
 809              	.LVL28:
 810              		.loc 1 288 1 view .LVU197
 811 00ee 10BD     		pop	{r4, pc}
 812              	.LVL29:
 813              	.L75:
 814              	.LCFI9:
 815              		.cfi_restore_state
 259:BSP/midi.c    **** 
 816              		.loc 1 259 13 view .LVU198
 817 00f0 B0EE678A 		vmov.f32	s16, s15
 818              	.LVL30:
 259:BSP/midi.c    **** 
 819              		.loc 1 259 13 view .LVU199
 820 00f4 96E7     		b	.L65
ARM GAS  C:\Users\24120\AppData\Local\Temp\ccTES7Gy.s 			page 20


 821              	.LVL31:
 822              	.L67:
 823              	.LBB3:
 275:BSP/midi.c    ****         {
 824              		.loc 1 275 14 is_stmt 1 view .LVU200
 275:BSP/midi.c    ****         {
 825              		.loc 1 275 17 is_stmt 0 view .LVU201
 826 00f6 002B     		cmp	r3, #0
 827 00f8 A9DC     		bgt	.L68
 277:BSP/midi.c    ****             key *= 0.5;
 828              		.loc 1 277 13 is_stmt 1 view .LVU202
 277:BSP/midi.c    ****             key *= 0.5;
 829              		.loc 1 277 16 is_stmt 0 view .LVU203
 830 00fa 0732     		adds	r2, r2, #7
 831 00fc 53B2     		sxtb	r3, r2
 832              	.LVL32:
 278:BSP/midi.c    ****         }
 833              		.loc 1 278 13 is_stmt 1 view .LVU204
 278:BSP/midi.c    ****         }
 834              		.loc 1 278 17 is_stmt 0 view .LVU205
 835 00fe F6EE007A 		vmov.f32	s15, #5.0e-1
 836 0102 28EE278A 		vmul.f32	s16, s16, s15
 837              	.LVL33:
 278:BSP/midi.c    ****         }
 838              		.loc 1 278 17 view .LVU206
 839 0106 A2E7     		b	.L68
 840              	.LVL34:
 841              	.L69:
 283:BSP/midi.c    ****         hmidi.key = (uint8_t)key;
 842              		.loc 1 283 9 discriminator 2 view .LVU207
 843 0108 0429     		cmp	r1, #4
 844 010a 1ED0     		beq	.L76
 283:BSP/midi.c    ****         hmidi.key = (uint8_t)key;
 845              		.loc 1 283 9 discriminator 4 view .LVU208
 846 010c 0829     		cmp	r1, #8
 847 010e 39D0     		beq	.L77
 283:BSP/midi.c    ****         hmidi.key = (uint8_t)key;
 848              		.loc 1 283 9 discriminator 7 view .LVU209
 849 0110 2B4B     		ldr	r3, .L78
 850 0112 9B7A     		ldrb	r3, [r3, #10]	@ zero_extendqisi2
 851 0114 2D4A     		ldr	r2, .L78+12
 852 0116 A2FB0342 		umull	r4, r2, r2, r3
 853              	.LVL35:
 283:BSP/midi.c    ****         hmidi.key = (uint8_t)key;
 854              		.loc 1 283 9 discriminator 7 view .LVU210
 855 011a 9C1A     		subs	r4, r3, r2
 856 011c 02EB5402 		add	r2, r2, r4, lsr #1
 857 0120 9209     		lsrs	r2, r2, #6
 858 0122 6524     		movs	r4, #101
 859 0124 04FB1233 		mls	r3, r4, r2, r3
 860 0128 DBB2     		uxtb	r3, r3
 861 012a 07EE903A 		vmov	s15, r3	@ int
 862 012e F8EEE77A 		vcvt.f32.s32	s15, s15
 863 0132 67EEA67A 		vmul.f32	s15, s15, s13
 864 0136 9FED266A 		vldr.32	s12, .L78+16
 865 013a C7EE866A 		vdiv.f32	s13, s15, s12
 866              	.LVL36:
ARM GAS  C:\Users\24120\AppData\Local\Temp\ccTES7Gy.s 			page 21


 283:BSP/midi.c    ****         hmidi.key = (uint8_t)key;
 867              		.loc 1 283 9 discriminator 7 view .LVU211
 868 013e 0368     		ldr	r3, [r0]
 869 0140 FCEEE66A 		vcvt.u32.f32	s13, s13
 870 0144 C3ED106A 		vstr.32	s13, [r3, #64]	@ int
 871 0148 B8E7     		b	.L70
 872              	.LVL37:
 873              	.L76:
 283:BSP/midi.c    ****         hmidi.key = (uint8_t)key;
 874              		.loc 1 283 9 discriminator 3 view .LVU212
 875 014a 1D4B     		ldr	r3, .L78
 876 014c 9B7A     		ldrb	r3, [r3, #10]	@ zero_extendqisi2
 877 014e 1F4A     		ldr	r2, .L78+12
 878 0150 A2FB0342 		umull	r4, r2, r2, r3
 879              	.LVL38:
 283:BSP/midi.c    ****         hmidi.key = (uint8_t)key;
 880              		.loc 1 283 9 discriminator 3 view .LVU213
 881 0154 9C1A     		subs	r4, r3, r2
 882 0156 02EB5402 		add	r2, r2, r4, lsr #1
 883 015a 9209     		lsrs	r2, r2, #6
 884 015c 6524     		movs	r4, #101
 885 015e 04FB1233 		mls	r3, r4, r2, r3
 886 0162 DBB2     		uxtb	r3, r3
 887 0164 07EE903A 		vmov	s15, r3	@ int
 888 0168 F8EEE77A 		vcvt.f32.s32	s15, s15
 889 016c 67EEA67A 		vmul.f32	s15, s15, s13
 890 0170 9FED176A 		vldr.32	s12, .L78+16
 891 0174 C7EE866A 		vdiv.f32	s13, s15, s12
 892              	.LVL39:
 283:BSP/midi.c    ****         hmidi.key = (uint8_t)key;
 893              		.loc 1 283 9 discriminator 3 view .LVU214
 894 0178 0368     		ldr	r3, [r0]
 895 017a FCEEE66A 		vcvt.u32.f32	s13, s13
 896 017e C3ED0E6A 		vstr.32	s13, [r3, #56]	@ int
 897 0182 9BE7     		b	.L70
 898              	.LVL40:
 899              	.L77:
 283:BSP/midi.c    ****         hmidi.key = (uint8_t)key;
 900              		.loc 1 283 9 discriminator 6 view .LVU215
 901 0184 0E4B     		ldr	r3, .L78
 902 0186 9B7A     		ldrb	r3, [r3, #10]	@ zero_extendqisi2
 903 0188 104A     		ldr	r2, .L78+12
 904 018a A2FB0342 		umull	r4, r2, r2, r3
 905              	.LVL41:
 283:BSP/midi.c    ****         hmidi.key = (uint8_t)key;
 906              		.loc 1 283 9 discriminator 6 view .LVU216
 907 018e 9C1A     		subs	r4, r3, r2
 908 0190 02EB5402 		add	r2, r2, r4, lsr #1
 909 0194 9209     		lsrs	r2, r2, #6
 910 0196 6524     		movs	r4, #101
 911 0198 04FB1233 		mls	r3, r4, r2, r3
 912 019c DBB2     		uxtb	r3, r3
 913 019e 07EE903A 		vmov	s15, r3	@ int
 914 01a2 F8EEE77A 		vcvt.f32.s32	s15, s15
 915 01a6 67EEA67A 		vmul.f32	s15, s15, s13
 916 01aa 9FED096A 		vldr.32	s12, .L78+16
 917 01ae C7EE866A 		vdiv.f32	s13, s15, s12
ARM GAS  C:\Users\24120\AppData\Local\Temp\ccTES7Gy.s 			page 22


 918              	.LVL42:
 283:BSP/midi.c    ****         hmidi.key = (uint8_t)key;
 919              		.loc 1 283 9 discriminator 6 view .LVU217
 920 01b2 0368     		ldr	r3, [r0]
 921 01b4 FCEEE66A 		vcvt.u32.f32	s13, s13
 922 01b8 C3ED0F6A 		vstr.32	s13, [r3, #60]	@ int
 923 01bc 7EE7     		b	.L70
 924              	.L79:
 925 01be 00BF     		.align	2
 926              	.L78:
 927 01c0 00000000 		.word	hmidi
 928 01c4 00000000 		.word	midi_freq_tab
 929 01c8 00247449 		.word	1232348160
 930 01cc 57866F44 		.word	1148159575
 931 01d0 0000C842 		.word	1120403456
 932 01d4 00007A44 		.word	1148846080
 933              	.LBE3:
 934              		.cfi_endproc
 935              	.LFE254:
 937              		.section	.text.MIDI_Tick,"ax",%progbits
 938              		.align	1
 939              		.global	MIDI_Tick
 940              		.syntax unified
 941              		.thumb
 942              		.thumb_func
 944              	MIDI_Tick:
 945              	.LFB255:
 289:BSP/midi.c    **** 
 290:BSP/midi.c    **** /**
 291:BSP/midi.c    ****   * @brief  音乐播放节拍处理函数，需在主循环中周期调用
 292:BSP/midi.c    ****   * @retval None
 293:BSP/midi.c    ****   */
 294:BSP/midi.c    **** void MIDI_Tick(void)
 295:BSP/midi.c    **** {
 946              		.loc 1 295 1 is_stmt 1 view -0
 947              		.cfi_startproc
 948              		@ args = 0, pretend = 0, frame = 0
 949              		@ frame_needed = 0, uses_anonymous_args = 0
 296:BSP/midi.c    ****     if (hmidi.state != MIDI_STATE_PLAYING)
 950              		.loc 1 296 5 view .LVU219
 951              		.loc 1 296 14 is_stmt 0 view .LVU220
 952 0000 2B4B     		ldr	r3, .L92
 953 0002 1B7C     		ldrb	r3, [r3, #16]	@ zero_extendqisi2
 954              		.loc 1 296 8 view .LVU221
 955 0004 012B     		cmp	r3, #1
 956 0006 05D1     		bne	.L87
 297:BSP/midi.c    ****         return;
 298:BSP/midi.c    ****     if (hmidi.midi_data == NULL || hmidi.play_time == 0)
 957              		.loc 1 298 5 is_stmt 1 view .LVU222
 958              		.loc 1 298 14 is_stmt 0 view .LVU223
 959 0008 294B     		ldr	r3, .L92
 960 000a 5B6A     		ldr	r3, [r3, #36]
 961              		.loc 1 298 8 view .LVU224
 962 000c 13B1     		cbz	r3, .L87
 963              		.loc 1 298 41 discriminator 1 view .LVU225
 964 000e 284B     		ldr	r3, .L92
 965 0010 5B69     		ldr	r3, [r3, #20]
ARM GAS  C:\Users\24120\AppData\Local\Temp\ccTES7Gy.s 			page 23


 966              		.loc 1 298 33 discriminator 1 view .LVU226
 967 0012 03B9     		cbnz	r3, .L90
 968              	.L87:
 969 0014 7047     		bx	lr
 970              	.L90:
 295:BSP/midi.c    ****     if (hmidi.state != MIDI_STATE_PLAYING)
 971              		.loc 1 295 1 view .LVU227
 972 0016 70B5     		push	{r4, r5, r6, lr}
 973              	.LCFI10:
 974              		.cfi_def_cfa_offset 16
 975              		.cfi_offset 4, -16
 976              		.cfi_offset 5, -12
 977              		.cfi_offset 6, -8
 978              		.cfi_offset 14, -4
 299:BSP/midi.c    ****         return;
 300:BSP/midi.c    **** 
 301:BSP/midi.c    ****     uint32_t ct = HAL_GetTick();
 979              		.loc 1 301 5 is_stmt 1 view .LVU228
 980              		.loc 1 301 19 is_stmt 0 view .LVU229
 981 0018 FFF7FEFF 		bl	HAL_GetTick
 982              	.LVL43:
 983 001c 0546     		mov	r5, r0
 984              	.LVL44:
 302:BSP/midi.c    **** 
 303:BSP/midi.c    ****     if (hmidi.end_tick == 0)
 985              		.loc 1 303 5 is_stmt 1 view .LVU230
 986              		.loc 1 303 14 is_stmt 0 view .LVU231
 987 001e 244B     		ldr	r3, .L92
 988 0020 DB69     		ldr	r3, [r3, #28]
 989              		.loc 1 303 8 view .LVU232
 990 0022 43B9     		cbnz	r3, .L82
 304:BSP/midi.c    ****     {
 305:BSP/midi.c    ****         hmidi.end_tick = ct + hmidi.play_time * 1000;
 991              		.loc 1 305 9 is_stmt 1 view .LVU233
 992              		.loc 1 305 36 is_stmt 0 view .LVU234
 993 0024 224B     		ldr	r3, .L92
 994 0026 5A69     		ldr	r2, [r3, #20]
 995              		.loc 1 305 29 view .LVU235
 996 0028 4FF47A71 		mov	r1, #1000
 997 002c 01FB0202 		mla	r2, r1, r2, r0
 998              		.loc 1 305 24 view .LVU236
 999 0030 DA61     		str	r2, [r3, #28]
 306:BSP/midi.c    ****         hmidi.midi_idx = 0;
 1000              		.loc 1 306 9 is_stmt 1 view .LVU237
 1001              		.loc 1 306 24 is_stmt 0 view .LVU238
 1002 0032 0022     		movs	r2, #0
 1003 0034 5A82     		strh	r2, [r3, #18]	@ movhi
 1004              	.L82:
 307:BSP/midi.c    ****     }
 308:BSP/midi.c    **** 
 309:BSP/midi.c    ****     if (ct >= hmidi.end_tick)
 1005              		.loc 1 309 5 is_stmt 1 view .LVU239
 1006              		.loc 1 309 20 is_stmt 0 view .LVU240
 1007 0036 1E4B     		ldr	r3, .L92
 1008 0038 DB69     		ldr	r3, [r3, #28]
 1009              		.loc 1 309 8 view .LVU241
 1010 003a AB42     		cmp	r3, r5
ARM GAS  C:\Users\24120\AppData\Local\Temp\ccTES7Gy.s 			page 24


 1011 003c 32D9     		bls	.L91
 310:BSP/midi.c    ****     {
 311:BSP/midi.c    ****         MIDI_Stop();
 312:BSP/midi.c    ****         return;
 313:BSP/midi.c    ****     }
 314:BSP/midi.c    **** 
 315:BSP/midi.c    ****     if (ct < hmidi.tune_tick)
 1012              		.loc 1 315 5 is_stmt 1 view .LVU242
 1013              		.loc 1 315 19 is_stmt 0 view .LVU243
 1014 003e 1C4B     		ldr	r3, .L92
 1015 0040 9B69     		ldr	r3, [r3, #24]
 1016              		.loc 1 315 8 view .LVU244
 1017 0042 AB42     		cmp	r3, r5
 1018 0044 2DD8     		bhi	.L80
 316:BSP/midi.c    ****         return;
 317:BSP/midi.c    **** 
 318:BSP/midi.c    ****     if (hmidi.midi_idx >= hmidi.midi_len)
 1019              		.loc 1 318 5 is_stmt 1 view .LVU245
 1020              		.loc 1 318 14 is_stmt 0 view .LVU246
 1021 0046 1A4B     		ldr	r3, .L92
 1022 0048 5A8A     		ldrh	r2, [r3, #18]
 1023              		.loc 1 318 32 view .LVU247
 1024 004a 1B8D     		ldrh	r3, [r3, #40]
 1025              		.loc 1 318 8 view .LVU248
 1026 004c 9A42     		cmp	r2, r3
 1027 004e 05D3     		bcc	.L84
 319:BSP/midi.c    ****     {
 320:BSP/midi.c    ****         if (hmidi.loop)
 1028              		.loc 1 320 9 is_stmt 1 view .LVU249
 1029              		.loc 1 320 18 is_stmt 0 view .LVU250
 1030 0050 174B     		ldr	r3, .L92
 1031 0052 5B7C     		ldrb	r3, [r3, #17]	@ zero_extendqisi2
 1032              		.loc 1 320 12 view .LVU251
 1033 0054 4BB3     		cbz	r3, .L85
 321:BSP/midi.c    ****             hmidi.midi_idx = 0;
 1034              		.loc 1 321 13 is_stmt 1 view .LVU252
 1035              		.loc 1 321 28 is_stmt 0 view .LVU253
 1036 0056 164B     		ldr	r3, .L92
 1037 0058 0022     		movs	r2, #0
 1038 005a 5A82     		strh	r2, [r3, #18]	@ movhi
 1039              	.L84:
 322:BSP/midi.c    ****         else
 323:BSP/midi.c    ****         {
 324:BSP/midi.c    ****             MIDI_Stop();
 325:BSP/midi.c    ****             return;
 326:BSP/midi.c    ****         }
 327:BSP/midi.c    ****     }
 328:BSP/midi.c    **** 
 329:BSP/midi.c    ****     uint32_t note = hmidi.midi_data[hmidi.midi_idx++];
 1040              		.loc 1 329 5 is_stmt 1 view .LVU254
 1041              		.loc 1 329 26 is_stmt 0 view .LVU255
 1042 005c 144E     		ldr	r6, .L92
 1043 005e 726A     		ldr	r2, [r6, #36]
 1044              		.loc 1 329 42 view .LVU256
 1045 0060 738A     		ldrh	r3, [r6, #18]
 1046              		.loc 1 329 51 view .LVU257
 1047 0062 591C     		adds	r1, r3, #1
ARM GAS  C:\Users\24120\AppData\Local\Temp\ccTES7Gy.s 			page 25


 1048 0064 7182     		strh	r1, [r6, #18]	@ movhi
 1049              		.loc 1 329 14 view .LVU258
 1050 0066 52F82300 		ldr	r0, [r2, r3, lsl #2]
 1051              	.LVL45:
 330:BSP/midi.c    ****     uint16_t time = note / 100;
 1052              		.loc 1 330 5 is_stmt 1 view .LVU259
 1053              		.loc 1 330 26 is_stmt 0 view .LVU260
 1054 006a 124B     		ldr	r3, .L92+4
 1055 006c A3FB0023 		umull	r2, r3, r3, r0
 1056 0070 5A09     		lsrs	r2, r3, #5
 1057              	.LVL46:
 331:BSP/midi.c    ****     time = (uint32_t)time * hmidi.base_bpm / hmidi.bpm;
 1058              		.loc 1 331 5 is_stmt 1 view .LVU261
 1059              		.loc 1 331 34 is_stmt 0 view .LVU262
 1060 0072 718C     		ldrh	r1, [r6, #34]
 1061              		.loc 1 331 27 view .LVU263
 1062 0074 C3F34F14 		ubfx	r4, r3, #5, #16
 1063 0078 01FB04F4 		mul	r4, r1, r4
 1064              		.loc 1 331 51 view .LVU264
 1065 007c 338C     		ldrh	r3, [r6, #32]
 1066              		.loc 1 331 44 view .LVU265
 1067 007e B4FBF3F4 		udiv	r4, r4, r3
 1068              	.LVL47:
 332:BSP/midi.c    **** 
 333:BSP/midi.c    ****     MIDI_Beep(note % 100, time * 9 / 10);
 1069              		.loc 1 333 5 is_stmt 1 view .LVU266
 1070              		.loc 1 333 20 is_stmt 0 view .LVU267
 1071 0082 6423     		movs	r3, #100
 1072 0084 03FB1200 		mls	r0, r3, r2, r0
 1073              	.LVL48:
 1074              		.loc 1 333 20 view .LVU268
 1075 0088 A4B2     		uxth	r4, r4
 1076              		.loc 1 333 32 view .LVU269
 1077 008a 04EBC401 		add	r1, r4, r4, lsl #3
 1078              		.loc 1 333 36 view .LVU270
 1079 008e 0A4B     		ldr	r3, .L92+8
 1080 0090 83FB0131 		smull	r3, r1, r3, r1
 1081              		.loc 1 333 5 view .LVU271
 1082 0094 C1F38F01 		ubfx	r1, r1, #2, #16
 1083 0098 C0B2     		uxtb	r0, r0
 1084 009a FFF7FEFF 		bl	MIDI_Beep
 1085              	.LVL49:
 334:BSP/midi.c    ****     hmidi.tune_tick = ct + time;
 1086              		.loc 1 334 5 is_stmt 1 view .LVU272
 1087              		.loc 1 334 26 is_stmt 0 view .LVU273
 1088 009e 2544     		add	r5, r5, r4
 1089              	.LVL50:
 1090              		.loc 1 334 21 view .LVU274
 1091 00a0 B561     		str	r5, [r6, #24]
 1092              	.LVL51:
 1093              	.L80:
 335:BSP/midi.c    **** }
 1094              		.loc 1 335 1 view .LVU275
 1095 00a2 70BD     		pop	{r4, r5, r6, pc}
 1096              	.LVL52:
 1097              	.L91:
 311:BSP/midi.c    ****         return;
ARM GAS  C:\Users\24120\AppData\Local\Temp\ccTES7Gy.s 			page 26


 1098              		.loc 1 311 9 is_stmt 1 view .LVU276
 1099 00a4 FFF7FEFF 		bl	MIDI_Stop
 1100              	.LVL53:
 312:BSP/midi.c    ****     }
 1101              		.loc 1 312 9 view .LVU277
 1102 00a8 FBE7     		b	.L80
 1103              	.LVL54:
 1104              	.L85:
 324:BSP/midi.c    ****             return;
 1105              		.loc 1 324 13 view .LVU278
 1106 00aa FFF7FEFF 		bl	MIDI_Stop
 1107              	.LVL55:
 325:BSP/midi.c    ****         }
 1108              		.loc 1 325 13 view .LVU279
 1109 00ae F8E7     		b	.L80
 1110              	.L93:
 1111              		.align	2
 1112              	.L92:
 1113 00b0 00000000 		.word	hmidi
 1114 00b4 1F85EB51 		.word	1374389535
 1115 00b8 67666666 		.word	1717986919
 1116              		.cfi_endproc
 1117              	.LFE255:
 1119              		.section	.text.MIDI_TimerCallback,"ax",%progbits
 1120              		.align	1
 1121              		.global	MIDI_TimerCallback
 1122              		.syntax unified
 1123              		.thumb
 1124              		.thumb_func
 1126              	MIDI_TimerCallback:
 1127              	.LVL56:
 1128              	.LFB256:
 336:BSP/midi.c    **** 
 337:BSP/midi.c    **** /**
 338:BSP/midi.c    ****   * @brief  定时器中断回调函数，需在定时器更新中断中调用
 339:BSP/midi.c    ****   * @param  htim: 定时器句柄
 340:BSP/midi.c    ****   * @retval None
 341:BSP/midi.c    ****   */
 342:BSP/midi.c    **** void MIDI_TimerCallback(TIM_HandleTypeDef *htim)
 343:BSP/midi.c    **** {
 1129              		.loc 1 343 1 view -0
 1130              		.cfi_startproc
 1131              		@ args = 0, pretend = 0, frame = 0
 1132              		@ frame_needed = 0, uses_anonymous_args = 0
 1133              		.loc 1 343 1 is_stmt 0 view .LVU281
 1134 0000 08B5     		push	{r3, lr}
 1135              	.LCFI11:
 1136              		.cfi_def_cfa_offset 8
 1137              		.cfi_offset 3, -8
 1138              		.cfi_offset 14, -4
 344:BSP/midi.c    ****     if (hmidi.htim != NULL && htim->Instance == hmidi.htim->Instance)
 1139              		.loc 1 344 5 is_stmt 1 view .LVU282
 1140              		.loc 1 344 14 is_stmt 0 view .LVU283
 1141 0002 0B4B     		ldr	r3, .L99
 1142 0004 1B68     		ldr	r3, [r3]
 1143              		.loc 1 344 8 view .LVU284
 1144 0006 1BB1     		cbz	r3, .L94
ARM GAS  C:\Users\24120\AppData\Local\Temp\ccTES7Gy.s 			page 27


 1145              		.loc 1 344 35 discriminator 1 view .LVU285
 1146 0008 0268     		ldr	r2, [r0]
 1147              		.loc 1 344 59 discriminator 1 view .LVU286
 1148 000a 1B68     		ldr	r3, [r3]
 1149              		.loc 1 344 28 discriminator 1 view .LVU287
 1150 000c 9A42     		cmp	r2, r3
 1151 000e 00D0     		beq	.L98
 1152              	.LVL57:
 1153              	.L94:
 345:BSP/midi.c    ****     {
 346:BSP/midi.c    ****         if (hmidi.cnt > 0 && hmidi.tune > 0)
 347:BSP/midi.c    ****             --hmidi.cnt;
 348:BSP/midi.c    ****         else
 349:BSP/midi.c    ****             HAL_TIM_PWM_Stop_IT(htim, hmidi.channel);
 350:BSP/midi.c    ****     }
 351:BSP/midi.c    **** }
 1154              		.loc 1 351 1 view .LVU288
 1155 0010 08BD     		pop	{r3, pc}
 1156              	.LVL58:
 1157              	.L98:
 346:BSP/midi.c    ****             --hmidi.cnt;
 1158              		.loc 1 346 9 is_stmt 1 view .LVU289
 346:BSP/midi.c    ****             --hmidi.cnt;
 1159              		.loc 1 346 18 is_stmt 0 view .LVU290
 1160 0012 074B     		ldr	r3, .L99
 1161 0014 DB68     		ldr	r3, [r3, #12]
 346:BSP/midi.c    ****             --hmidi.cnt;
 1162              		.loc 1 346 12 view .LVU291
 1163 0016 33B1     		cbz	r3, .L96
 346:BSP/midi.c    ****             --hmidi.cnt;
 1164              		.loc 1 346 35 discriminator 1 view .LVU292
 1165 0018 054A     		ldr	r2, .L99
 1166 001a 127A     		ldrb	r2, [r2, #8]	@ zero_extendqisi2
 346:BSP/midi.c    ****             --hmidi.cnt;
 1167              		.loc 1 346 27 discriminator 1 view .LVU293
 1168 001c 1AB1     		cbz	r2, .L96
 347:BSP/midi.c    ****         else
 1169              		.loc 1 347 13 is_stmt 1 view .LVU294
 1170 001e 013B     		subs	r3, r3, #1
 1171 0020 034A     		ldr	r2, .L99
 1172 0022 D360     		str	r3, [r2, #12]
 1173 0024 F4E7     		b	.L94
 1174              	.L96:
 349:BSP/midi.c    ****     }
 1175              		.loc 1 349 13 view .LVU295
 1176 0026 024B     		ldr	r3, .L99
 1177 0028 5968     		ldr	r1, [r3, #4]
 1178 002a FFF7FEFF 		bl	HAL_TIM_PWM_Stop_IT
 1179              	.LVL59:
 1180              		.loc 1 351 1 is_stmt 0 view .LVU296
 1181 002e EFE7     		b	.L94
 1182              	.L100:
 1183              		.align	2
 1184              	.L99:
 1185 0030 00000000 		.word	hmidi
 1186              		.cfi_endproc
 1187              	.LFE256:
ARM GAS  C:\Users\24120\AppData\Local\Temp\ccTES7Gy.s 			page 28


 1189              		.section	.rodata.midi_freq_tab,"a"
 1190              		.align	2
 1193              	midi_freq_tab:
 1194 0000 00000000 		.word	0
 1195 0004 CDCC8243 		.word	1132645581
 1196 0008 CDCC9243 		.word	1133694157
 1197 000c CDCCA443 		.word	1134873805
 1198 0010 9A99AE43 		.word	1135516058
 1199 0014 0000C443 		.word	1136918528
 1200 0018 0000DC43 		.word	1138491392
 1201 001c 33F3F643 		.word	1140257587
 1202              		.section	.bss.hmidi,"aw",%nobits
 1203              		.align	2
 1206              	hmidi:
 1207 0000 00000000 		.space	44
 1207      00000000 
 1207      00000000 
 1207      00000000 
 1207      00000000 
 1208              		.text
 1209              	.Letext0:
 1210              		.file 2 "E:/STM32/Tools/arm-none-eabi-gcc/14.2.1-1.1.1/.content/arm-none-eabi/include/machine/_def
 1211              		.file 3 "E:/STM32/Tools/arm-none-eabi-gcc/14.2.1-1.1.1/.content/arm-none-eabi/include/sys/_stdint.
 1212              		.file 4 "Drivers/CMSIS/Device/ST/STM32F4xx/Include/stm32f407xx.h"
 1213              		.file 5 "Drivers/STM32F4xx_HAL_Driver/Inc/stm32f4xx_hal_def.h"
 1214              		.file 6 "Drivers/STM32F4xx_HAL_Driver/Inc/stm32f4xx_hal_dma.h"
 1215              		.file 7 "Drivers/STM32F4xx_HAL_Driver/Inc/stm32f4xx_hal_tim.h"
 1216              		.file 8 "BSP/midi.h"
 1217              		.file 9 "Drivers/STM32F4xx_HAL_Driver/Inc/stm32f4xx_hal.h"
ARM GAS  C:\Users\24120\AppData\Local\Temp\ccTES7Gy.s 			page 29

