ARM GAS  C:\Users\24120\AppData\Local\Temp\ccaaYZuv.s 			page 1


   1              		.cpu cortex-m4
   2              		.arch armv7e-m
   3              		.fpu fpv4-sp-d16
   4              		.eabi_attribute 27, 1
   5              		.eabi_attribute 28, 1
   6              		.eabi_attribute 20, 1
   7              		.eabi_attribute 21, 1
   8              		.eabi_attribute 23, 3
   9              		.eabi_attribute 24, 1
  10              		.eabi_attribute 25, 1
  11              		.eabi_attribute 26, 1
  12              		.eabi_attribute 30, 1
  13              		.eabi_attribute 34, 1
  14              		.eabi_attribute 18, 4
  15              		.file	"NFC.c"
  16              		.text
  17              	.Ltext0:
  18              		.cfi_sections	.debug_frame
  19              		.file 1 "BSP/NFC.c"
  20              		.section	.text.HexToByte,"ax",%progbits
  21              		.align	1
  22              		.syntax unified
  23              		.thumb
  24              		.thumb_func
  26              	HexToByte:
  27              	.LVL0:
  28              	.LFB262:
   1:BSP/NFC.c     **** /**
   2:BSP/NFC.c     ****  * @file    NFC.c
   3:BSP/NFC.c     ****  * @brief   NFC 卡读写封装模块实现
   4:BSP/NFC.c     ****  * @details 封装了以下流程:
   5:BSP/NFC.c     ****  *          1. 密钥验证 + 读 Block1 (带重试)
   6:BSP/NFC.c     ****  *          2. 校验和验证
   7:BSP/NFC.c     ****  *          3. 卡数据字段解析
   8:BSP/NFC.c     ****  *          4. 卡类型分类 (普通/图像/管理员)
   9:BSP/NFC.c     ****  *          5. 姓名/部门/头像位图读取
  10:BSP/NFC.c     ****  */
  11:BSP/NFC.c     **** 
  12:BSP/NFC.c     **** #include "NFC.h"
  13:BSP/NFC.c     **** #include "rc522.h"
  14:BSP/NFC.c     **** #include "uart_drv.h"
  15:BSP/NFC.c     **** #include "delay_us.h"
  16:BSP/NFC.c     **** #include "record.h"
  17:BSP/NFC.c     **** #include <string.h>
  18:BSP/NFC.c     **** #include <stdio.h>
  19:BSP/NFC.c     **** #include <stdlib.h>
  20:BSP/NFC.c     **** 
  21:BSP/NFC.c     **** /* ====== 内部常量 ====== */
  22:BSP/NFC.c     **** 
  23:BSP/NFC.c     **** /** 读卡重试次数 */
  24:BSP/NFC.c     **** #define NFC_READ_RETRY      3
  25:BSP/NFC.c     **** 
  26:BSP/NFC.c     **** /** Mifare 默认密钥 (出厂值) */
  27:BSP/NFC.c     **** static const uint8_t s_defaultKey[6] = {0xFF, 0xFF, 0xFF, 0xFF, 0xFF, 0xFF};
  28:BSP/NFC.c     **** 
  29:BSP/NFC.c     **** /** 单扇区数据块数 (不含密钥块) */
  30:BSP/NFC.c     **** #define NFC_BLOCKS_PER_SEC  3
ARM GAS  C:\Users\24120\AppData\Local\Temp\ccaaYZuv.s 			page 2


  31:BSP/NFC.c     **** 
  32:BSP/NFC.c     **** /** Block 数据长度 */
  33:BSP/NFC.c     **** #define NFC_BLOCK_SIZE      16
  34:BSP/NFC.c     **** 
  35:BSP/NFC.c     **** /* ====== 内部辅助宏: 读一个扇区的非密钥块到缓冲区 ====== */
  36:BSP/NFC.c     **** 
  37:BSP/NFC.c     **** /**
  38:BSP/NFC.c     ****  * @brief  读取指定扇区中前 3 个数据块到目标缓冲区
  39:BSP/NFC.c     ****  * @param  sec    扇区号 (0~15)
  40:BSP/NFC.c     ****  * @param  dst    目标缓冲区指针
  41:BSP/NFC.c     ****  * @param  offset 写入偏移 (字节)
  42:BSP/NFC.c     ****  * @note   自动处理密钥验证, 验证失败时静默跳过该扇区
  43:BSP/NFC.c     ****  */
  44:BSP/NFC.c     **** #define NFC_READ_SECTOR(sec, dst, offset) do {                                        \
  45:BSP/NFC.c     ****     char _st;                                                                         \
  46:BSP/NFC.c     ****     _st = RC522_AuthState(RC522_PICC_AUTHENT1A,                                       \
  47:BSP/NFC.c     ****                           (uint8_t)((sec) * 4 + 3), s_defaultKey, outCard->uid);      \
  48:BSP/NFC.c     ****     if (_st == RC522_OK) {                                                            \
  49:BSP/NFC.c     ****         for (int _b = 0; _b < NFC_BLOCKS_PER_SEC; _b++) {                             \
  50:BSP/NFC.c     ****             RC522_ReadBlock((sec), (uint8_t)_b,                                       \
  51:BSP/NFC.c     ****                             (dst) + (offset) + _b * NFC_BLOCK_SIZE);                  \
  52:BSP/NFC.c     ****         }                                                                             \
  53:BSP/NFC.c     ****     }                                                                                 \
  54:BSP/NFC.c     ****     osDelay(2);  /* 任务切换延时, 让出 CPU 给 guiTask 刷新 OLED */            \
  55:BSP/NFC.c     **** } while(0)
  56:BSP/NFC.c     **** 
  57:BSP/NFC.c     **** 
  58:BSP/NFC.c     **** /* ====== 公开 API ====== */
  59:BSP/NFC.c     **** 
  60:BSP/NFC.c     **** /**
  61:BSP/NFC.c     ****  * @brief  初始化 NFC 模块
  62:BSP/NFC.c     ****  */
  63:BSP/NFC.c     **** void NFC_Init(void)
  64:BSP/NFC.c     **** {
  65:BSP/NFC.c     ****     RC522_Platform_Init();
  66:BSP/NFC.c     ****     RC522_ConfigISOType('A');   /* ISO14443A, 内部自动开启天线 */
  67:BSP/NFC.c     **** }
  68:BSP/NFC.c     **** 
  69:BSP/NFC.c     **** /**
  70:BSP/NFC.c     ****  * @brief  寻卡
  71:BSP/NFC.c     ****  */
  72:BSP/NFC.c     **** char NFC_ScanCard(uint8_t uid[4])
  73:BSP/NFC.c     **** {
  74:BSP/NFC.c     ****     return RC522_ScanCard(uid);
  75:BSP/NFC.c     **** }
  76:BSP/NFC.c     **** 
  77:BSP/NFC.c     **** /**
  78:BSP/NFC.c     ****  * @brief  等待卡离开
  79:BSP/NFC.c     ****  */
  80:BSP/NFC.c     **** void NFC_WaitCardOff(void)
  81:BSP/NFC.c     **** {
  82:BSP/NFC.c     ****     RC522_WaitCardOff();
  83:BSP/NFC.c     **** }
  84:BSP/NFC.c     **** 
  85:BSP/NFC.c     **** /**
  86:BSP/NFC.c     ****  * @brief  RC522 硬件恢复: 复位芯片 + 重配置 ISO14443A + 重开天线
  87:BSP/NFC.c     ****  * @note   在 UPDATEIMG/CLEAR 等密集操作后、或读卡连续失败后调用,
ARM GAS  C:\Users\24120\AppData\Local\Temp\ccaaYZuv.s 			page 3


  88:BSP/NFC.c     ****  *         防止 RC522 内部 FIFO/状态机残留导致后续通信异常。
  89:BSP/NFC.c     ****  *         参考 NFCWriter 的 NFC_App_Recover()。
  90:BSP/NFC.c     ****  */
  91:BSP/NFC.c     **** void NFC_Recover(void)
  92:BSP/NFC.c     **** {
  93:BSP/NFC.c     ****     RC522_Reset();                 /* RST 引脚脉冲 + CMD_RESETPHASE 软复位 */
  94:BSP/NFC.c     ****     osDelay(10);
  95:BSP/NFC.c     ****     RC522_ConfigISOType('A');      /* 重配置 ISO14443A, 自动开天线 */
  96:BSP/NFC.c     **** }
  97:BSP/NFC.c     **** 
  98:BSP/NFC.c     **** /**
  99:BSP/NFC.c     ****  * @brief  读取并解析一张卡的全部数据
 100:BSP/NFC.c     ****  * @note   处理流程:
 101:BSP/NFC.c     ****  *          1. 捕捉刷卡时刻
 102:BSP/NFC.c     ****  *          2. 验证扇区0 + 读取 Block1 (含重试)
 103:BSP/NFC.c     ****  *          3. 校验和验证
 104:BSP/NFC.c     ****  *          4. 解析字段: 卡号/工号/积分/卡类型/状态
 105:BSP/NFC.c     ****  *          5. 分类 (管理员/图像/普通)
 106:BSP/NFC.c     ****  *          6. 对有效卡读取姓名/部门/头像位图
 107:BSP/NFC.c     ****  */
 108:BSP/NFC.c     **** NFC_Event_t NFC_ReadCard(const uint8_t uid[4], NFC_CardData_t *outCard)
 109:BSP/NFC.c     **** {
 110:BSP/NFC.c     ****     char    status;
 111:BSP/NFC.c     ****     uint8_t blockData[NFC_BLOCK_SIZE];
 112:BSP/NFC.c     ****     int     readOk = 0;
 113:BSP/NFC.c     **** 
 114:BSP/NFC.c     ****     if (outCard == NULL || uid == NULL) {
 115:BSP/NFC.c     ****         return NFC_EVT_INVALID;
 116:BSP/NFC.c     ****     }
 117:BSP/NFC.c     **** 
 118:BSP/NFC.c     ****     /* ---- 初始化输出结构 ---- */
 119:BSP/NFC.c     ****     memset(outCard, 0, sizeof(NFC_CardData_t));
 120:BSP/NFC.c     ****     memcpy(outCard->uid, uid, 4);
 121:BSP/NFC.c     **** 
 122:BSP/NFC.c     ****     /* 捕获刷卡时刻 */
 123:BSP/NFC.c     ****     BSP_RTC_GetDateTime(&outCard->swipeDT);
 124:BSP/NFC.c     **** 
 125:BSP/NFC.c     ****     /* ===== 第1步: 验证扇区0 + 读 Block1 (含重试) ===== */
 126:BSP/NFC.c     ****     for (int retry = 0; retry < NFC_READ_RETRY; retry++) {
 127:BSP/NFC.c     ****         if (retry > 0) {
 128:BSP/NFC.c     ****             /* 重试前先 Halt + 重新寻卡 */
 129:BSP/NFC.c     ****             RC522_Halt();
 130:BSP/NFC.c     ****             osDelay(5);
 131:BSP/NFC.c     ****             uint8_t reUID[4];
 132:BSP/NFC.c     ****             status = RC522_ScanCard(reUID);
 133:BSP/NFC.c     ****             if (status != RC522_OK) continue;
 134:BSP/NFC.c     ****         }
 135:BSP/NFC.c     **** 
 136:BSP/NFC.c     ****         /* 验证扇区0 密钥块 (块地址 0*4+3 = 3) */
 137:BSP/NFC.c     ****         status = RC522_AuthState(RC522_PICC_AUTHENT1A,
 138:BSP/NFC.c     ****                                  3, (uint8_t *)s_defaultKey, outCard->uid);
 139:BSP/NFC.c     ****         if (status != RC522_OK) continue;
 140:BSP/NFC.c     **** 
 141:BSP/NFC.c     ****         /* 读扇区0 块1 (账户头数据) */
 142:BSP/NFC.c     ****         status = RC522_ReadBlock(0, 1, blockData);
 143:BSP/NFC.c     ****         if (status == RC522_OK) {
 144:BSP/NFC.c     ****             readOk = 1;
ARM GAS  C:\Users\24120\AppData\Local\Temp\ccaaYZuv.s 			page 4


 145:BSP/NFC.c     ****             break;
 146:BSP/NFC.c     ****         }
 147:BSP/NFC.c     ****     }
 148:BSP/NFC.c     **** 
 149:BSP/NFC.c     ****     if (!readOk) {
 150:BSP/NFC.c     ****         return NFC_EVT_INVALID;
 151:BSP/NFC.c     ****     }
 152:BSP/NFC.c     **** 
 153:BSP/NFC.c     ****     /* ===== 第2步: 校验和验证 ===== */
 154:BSP/NFC.c     ****     uint16_t sum = 0;
 155:BSP/NFC.c     ****     for (int i = 0; i < 14; i++) {
 156:BSP/NFC.c     ****         sum += blockData[i];
 157:BSP/NFC.c     ****     }
 158:BSP/NFC.c     ****     uint16_t checksum = blockData[14] | ((uint16_t)blockData[15] << 8);
 159:BSP/NFC.c     **** 
 160:BSP/NFC.c     ****     outCard->statusFlag = blockData[13];
 161:BSP/NFC.c     **** 
 162:BSP/NFC.c     ****     /* 校验失败 或 挂失卡 → 无效 */
 163:BSP/NFC.c     ****     if (sum != checksum || outCard->statusFlag == 0xFF) {
 164:BSP/NFC.c     ****         return NFC_EVT_INVALID;
 165:BSP/NFC.c     ****     }
 166:BSP/NFC.c     **** 
 167:BSP/NFC.c     ****     /* ===== 第3步: 解析卡数据字段 ===== */
 168:BSP/NFC.c     ****     outCard->cardId =  (uint32_t)blockData[0]        |
 169:BSP/NFC.c     ****                       ((uint32_t)blockData[1] << 8)  |
 170:BSP/NFC.c     ****                       ((uint32_t)blockData[2] << 16) |
 171:BSP/NFC.c     ****                       ((uint32_t)blockData[3] << 24);
 172:BSP/NFC.c     **** 
 173:BSP/NFC.c     ****     outCard->sid   =  (uint32_t)blockData[4]        |
 174:BSP/NFC.c     ****                       ((uint32_t)blockData[5] << 8)  |
 175:BSP/NFC.c     ****                       ((uint32_t)blockData[6] << 16) |
 176:BSP/NFC.c     ****                       ((uint32_t)blockData[7] << 24);
 177:BSP/NFC.c     **** 
 178:BSP/NFC.c     ****     outCard->points =  (uint32_t)blockData[8]        |
 179:BSP/NFC.c     ****                       ((uint32_t)blockData[9] << 8)  |
 180:BSP/NFC.c     ****                       ((uint32_t)blockData[10] << 16) |
 181:BSP/NFC.c     ****                       ((uint32_t)blockData[11] << 24);
 182:BSP/NFC.c     **** 
 183:BSP/NFC.c     ****     outCard->cardType = blockData[12];
 184:BSP/NFC.c     **** 
 185:BSP/NFC.c     ****     /* 全零数据块视为空卡 (销卡后), 无需读取图像扇区 */
 186:BSP/NFC.c     ****     if (outCard->cardId == 0 && outCard->cardType == 0) {
 187:BSP/NFC.c     ****         return NFC_EVT_INVALID;
 188:BSP/NFC.c     ****     }
 189:BSP/NFC.c     **** 
 190:BSP/NFC.c     ****     /* ===== 第4步: 卡类型分类 ===== */
 191:BSP/NFC.c     ****     NFC_Event_t event;
 192:BSP/NFC.c     ****     switch (outCard->cardType) {
 193:BSP/NFC.c     ****     case 0x02:
 194:BSP/NFC.c     ****         event = NFC_EVT_ADMIN;
 195:BSP/NFC.c     ****         break;
 196:BSP/NFC.c     ****     case 0x01:
 197:BSP/NFC.c     ****     default:
 198:BSP/NFC.c     ****         event = NFC_EVT_VALID;
 199:BSP/NFC.c     ****         break;
 200:BSP/NFC.c     ****     }
 201:BSP/NFC.c     **** 
ARM GAS  C:\Users\24120\AppData\Local\Temp\ccaaYZuv.s 			page 5


 202:BSP/NFC.c     ****     /* ===== 第5步: 读取姓名/部门/头像位图 (管理员卡跳过, 节省 ~200ms) ===== */
 203:BSP/NFC.c     ****     if (event != NFC_EVT_ADMIN) {
 204:BSP/NFC.c     ****         DispCardBitmap_t *bm = DISP_GetBitmapBuf();
 205:BSP/NFC.c     ****         memset(bm, 0, sizeof(DispCardBitmap_t));
 206:BSP/NFC.c     **** 
 207:BSP/NFC.c     ****         /* -- 姓名: 10 块 = 160 字节 (扇区 9~11 全 3 块 + 扇区 12 块 0) -- */
 208:BSP/NFC.c     ****         NFC_READ_SECTOR(9,  bm->name, 0);
 209:BSP/NFC.c     ****         NFC_READ_SECTOR(10, bm->name, 48);
 210:BSP/NFC.c     ****         NFC_READ_SECTOR(11, bm->name, 96);
 211:BSP/NFC.c     ****         {
 212:BSP/NFC.c     ****             char _st = RC522_AuthState(RC522_PICC_AUTHENT1A,
 213:BSP/NFC.c     ****                                        (uint8_t)(12 * 4 + 3),
 214:BSP/NFC.c     ****                                        s_defaultKey, outCard->uid);
 215:BSP/NFC.c     ****             if (_st == RC522_OK) {
 216:BSP/NFC.c     ****                 RC522_ReadBlock(12, 0, bm->name + 144);
 217:BSP/NFC.c     ****             }
 218:BSP/NFC.c     ****         }
 219:BSP/NFC.c     ****         osDelay(2);
 220:BSP/NFC.c     **** 
 221:BSP/NFC.c     ****         /* -- 部门: 10 块 = 160 字节 (扇区 12 块 1~2 + 扇区 13~14 全 + 扇区 15 块 0~1) -- */
 222:BSP/NFC.c     ****         {
 223:BSP/NFC.c     ****             char _st = RC522_AuthState(RC522_PICC_AUTHENT1A,
 224:BSP/NFC.c     ****                                        (uint8_t)(12 * 4 + 3),
 225:BSP/NFC.c     ****                                        s_defaultKey, outCard->uid);
 226:BSP/NFC.c     ****             if (_st == RC522_OK) {
 227:BSP/NFC.c     ****                 RC522_ReadBlock(12, 1, bm->dept + 0);
 228:BSP/NFC.c     ****                 RC522_ReadBlock(12, 2, bm->dept + 16);
 229:BSP/NFC.c     ****             }
 230:BSP/NFC.c     ****         }
 231:BSP/NFC.c     ****         osDelay(2);
 232:BSP/NFC.c     ****         NFC_READ_SECTOR(13, bm->dept, 32);
 233:BSP/NFC.c     ****         NFC_READ_SECTOR(14, bm->dept, 80);
 234:BSP/NFC.c     ****         {
 235:BSP/NFC.c     ****             char _st = RC522_AuthState(RC522_PICC_AUTHENT1A,
 236:BSP/NFC.c     ****                                        (uint8_t)(15 * 4 + 3),
 237:BSP/NFC.c     ****                                        s_defaultKey, outCard->uid);
 238:BSP/NFC.c     ****             if (_st == RC522_OK) {
 239:BSP/NFC.c     ****                 RC522_ReadBlock(15, 0, bm->dept + 128);
 240:BSP/NFC.c     ****                 RC522_ReadBlock(15, 1, bm->dept + 144);
 241:BSP/NFC.c     ****             }
 242:BSP/NFC.c     ****         }
 243:BSP/NFC.c     ****         osDelay(2);
 244:BSP/NFC.c     **** 
 245:BSP/NFC.c     ****         /* -- 头像: 仅图像卡 (扇区 1~8, 共 24 块 = 384 字节位图) -- */
 246:BSP/NFC.c     ****         if (outCard->cardType == 0x01) {
 247:BSP/NFC.c     ****             NFC_READ_SECTOR(1, bm->avatar, 0);
 248:BSP/NFC.c     ****             NFC_READ_SECTOR(2, bm->avatar, 48);
 249:BSP/NFC.c     ****             NFC_READ_SECTOR(3, bm->avatar, 96);
 250:BSP/NFC.c     ****             NFC_READ_SECTOR(4, bm->avatar, 144);
 251:BSP/NFC.c     ****             NFC_READ_SECTOR(5, bm->avatar, 192);
 252:BSP/NFC.c     ****             NFC_READ_SECTOR(6, bm->avatar, 240);
 253:BSP/NFC.c     ****             NFC_READ_SECTOR(7, bm->avatar, 288);
 254:BSP/NFC.c     ****             NFC_READ_SECTOR(8, bm->avatar, 336);
 255:BSP/NFC.c     ****             /* 扫描全部 384 字节判断头像是否存在 (仅 32 字节易因黑边上角误判) */
 256:BSP/NFC.c     ****             bm->hasAvatar = 0;
 257:BSP/NFC.c     ****             for (int _j = 0; _j < (int)sizeof(bm->avatar); _j++) {
 258:BSP/NFC.c     ****                 if (bm->avatar[_j] != 0) { bm->hasAvatar = 1; break; }
ARM GAS  C:\Users\24120\AppData\Local\Temp\ccaaYZuv.s 			page 6


 259:BSP/NFC.c     ****             }
 260:BSP/NFC.c     ****         }
 261:BSP/NFC.c     ****     }
 262:BSP/NFC.c     **** 
 263:BSP/NFC.c     ****     return event;
 264:BSP/NFC.c     **** }
 265:BSP/NFC.c     **** 
 266:BSP/NFC.c     **** /**
 267:BSP/NFC.c     ****  * @brief  轻量读卡: 仅读 Block1 账户头, 不读图像扇区
 268:BSP/NFC.c     ****  * @note   用于 CmdDone 快速重读 (printf 上报仅需账户头字段),
 269:BSP/NFC.c     ****  *         大幅缩短持锁时间 (约 10ms vs 全量读的 ~1s)。
 270:BSP/NFC.c     ****  *         不调用 DISP_GetBitmapBuf(), 不修改 s_cardBitmap。
 271:BSP/NFC.c     ****  */
 272:BSP/NFC.c     **** NFC_Event_t NFC_ReadCardHeader(const uint8_t uid[4], NFC_CardData_t *outCard)
 273:BSP/NFC.c     **** {
 274:BSP/NFC.c     ****     char    status;
 275:BSP/NFC.c     ****     uint8_t blockData[NFC_BLOCK_SIZE];
 276:BSP/NFC.c     ****     int     readOk = 0;
 277:BSP/NFC.c     **** 
 278:BSP/NFC.c     ****     if (outCard == NULL || uid == NULL) {
 279:BSP/NFC.c     ****         return NFC_EVT_INVALID;
 280:BSP/NFC.c     ****     }
 281:BSP/NFC.c     **** 
 282:BSP/NFC.c     ****     memset(outCard, 0, sizeof(NFC_CardData_t));
 283:BSP/NFC.c     ****     memcpy(outCard->uid, uid, 4);
 284:BSP/NFC.c     ****     BSP_RTC_GetDateTime(&outCard->swipeDT);
 285:BSP/NFC.c     **** 
 286:BSP/NFC.c     ****     /* 读扇区0 Block1 (含重试) */
 287:BSP/NFC.c     ****     for (int retry = 0; retry < NFC_READ_RETRY; retry++) {
 288:BSP/NFC.c     ****         if (retry > 0) {
 289:BSP/NFC.c     ****             RC522_Halt();
 290:BSP/NFC.c     ****             osDelay(5);
 291:BSP/NFC.c     ****             uint8_t reUID[4];
 292:BSP/NFC.c     ****             status = RC522_ScanCard(reUID);
 293:BSP/NFC.c     ****             if (status != RC522_OK) continue;
 294:BSP/NFC.c     ****         }
 295:BSP/NFC.c     ****         status = RC522_AuthState(RC522_PICC_AUTHENT1A,
 296:BSP/NFC.c     ****                                  3, (uint8_t *)s_defaultKey, outCard->uid);
 297:BSP/NFC.c     ****         if (status != RC522_OK) continue;
 298:BSP/NFC.c     ****         status = RC522_ReadBlock(0, 1, blockData);
 299:BSP/NFC.c     ****         if (status == RC522_OK) { readOk = 1; break; }
 300:BSP/NFC.c     ****     }
 301:BSP/NFC.c     **** 
 302:BSP/NFC.c     ****     if (!readOk) return NFC_EVT_INVALID;
 303:BSP/NFC.c     **** 
 304:BSP/NFC.c     ****     /* 校验和 */
 305:BSP/NFC.c     ****     uint16_t sum = 0;
 306:BSP/NFC.c     ****     for (int i = 0; i < 14; i++) sum += blockData[i];
 307:BSP/NFC.c     ****     uint16_t checksum = blockData[14] | ((uint16_t)blockData[15] << 8);
 308:BSP/NFC.c     ****     outCard->statusFlag = blockData[13];
 309:BSP/NFC.c     ****     if (sum != checksum || outCard->statusFlag == 0xFF)
 310:BSP/NFC.c     ****         return NFC_EVT_INVALID;
 311:BSP/NFC.c     **** 
 312:BSP/NFC.c     ****     /* 解析字段 */
 313:BSP/NFC.c     ****     outCard->cardId =  (uint32_t)blockData[0]        |
 314:BSP/NFC.c     ****                       ((uint32_t)blockData[1] << 8)  |
 315:BSP/NFC.c     ****                       ((uint32_t)blockData[2] << 16) |
ARM GAS  C:\Users\24120\AppData\Local\Temp\ccaaYZuv.s 			page 7


 316:BSP/NFC.c     ****                       ((uint32_t)blockData[3] << 24);
 317:BSP/NFC.c     ****     outCard->sid   =  (uint32_t)blockData[4]        |
 318:BSP/NFC.c     ****                       ((uint32_t)blockData[5] << 8)  |
 319:BSP/NFC.c     ****                       ((uint32_t)blockData[6] << 16) |
 320:BSP/NFC.c     ****                       ((uint32_t)blockData[7] << 24);
 321:BSP/NFC.c     ****     outCard->points =  (uint32_t)blockData[8]        |
 322:BSP/NFC.c     ****                       ((uint32_t)blockData[9] << 8)  |
 323:BSP/NFC.c     ****                       ((uint32_t)blockData[10] << 16) |
 324:BSP/NFC.c     ****                       ((uint32_t)blockData[11] << 24);
 325:BSP/NFC.c     ****     outCard->cardType = blockData[12];
 326:BSP/NFC.c     **** 
 327:BSP/NFC.c     ****     if (outCard->cardId == 0 && outCard->cardType == 0)
 328:BSP/NFC.c     ****         return NFC_EVT_INVALID;
 329:BSP/NFC.c     **** 
 330:BSP/NFC.c     ****     switch (outCard->cardType) {
 331:BSP/NFC.c     ****     case 0x02: return NFC_EVT_ADMIN;
 332:BSP/NFC.c     ****     case 0x01:
 333:BSP/NFC.c     ****     default:   return NFC_EVT_VALID;
 334:BSP/NFC.c     ****     }
 335:BSP/NFC.c     **** }
 336:BSP/NFC.c     **** 
 337:BSP/NFC.c     **** /* ====== 串口发卡协议实现 ====== */
 338:BSP/NFC.c     **** 
 339:BSP/NFC.c     **** /** 图像块缓存 */
 340:BSP/NFC.c     **** static uint8_t s_imgAvatar[NFC_IMG_AVATAR_BLOCKS][NFC_IMG_BLOCK_SIZE];
 341:BSP/NFC.c     **** static uint8_t s_imgName[NFC_IMG_NAME_BLOCKS][NFC_IMG_BLOCK_SIZE];
 342:BSP/NFC.c     **** static uint8_t s_imgDept[NFC_IMG_DEPT_BLOCKS][NFC_IMG_BLOCK_SIZE];
 343:BSP/NFC.c     **** 
 344:BSP/NFC.c     **** /** 最近一次读卡 UID 缓存 (用于 READ 响应) */
 345:BSP/NFC.c     **** static uint8_t s_lastUID[4];
 346:BSP/NFC.c     **** static char    s_lastUIDStr[16];
 347:BSP/NFC.c     **** 
 348:BSP/NFC.c     **** /** RC522 并发锁 (0=空闲, 1=被占用) */
 349:BSP/NFC.c     **** static volatile uint8_t s_readerLocked = 0;
 350:BSP/NFC.c     **** 
 351:BSP/NFC.c     **** uint8_t NFC_LockReader(void)   {
 352:BSP/NFC.c     ****     __disable_irq();
 353:BSP/NFC.c     ****     if (s_readerLocked) { __enable_irq(); return 0; }
 354:BSP/NFC.c     ****     s_readerLocked = 1;
 355:BSP/NFC.c     ****     __enable_irq();
 356:BSP/NFC.c     ****     return 1;
 357:BSP/NFC.c     **** }
 358:BSP/NFC.c     **** void    NFC_UnlockReader(void) { s_readerLocked = 0; }
 359:BSP/NFC.c     **** uint8_t NFC_IsReaderLocked(void) { return s_readerLocked; }
 360:BSP/NFC.c     **** 
 361:BSP/NFC.c     **** /** 命令完成通知标志 (uartTask 设置, nfcTask 轮询并清除) */
 362:BSP/NFC.c     **** static volatile uint8_t s_cmdDone = 0;
 363:BSP/NFC.c     **** /** 延迟通知标志: uartTask 先发响应再置位 s_cmdDone, 保证串口输出有序 */
 364:BSP/NFC.c     **** static volatile uint8_t s_pendingNotify = 0;
 365:BSP/NFC.c     **** 
 366:BSP/NFC.c     **** void NFC_NotifyCmdDone(void) { s_cmdDone = 1; }
 367:BSP/NFC.c     **** void NFC_ClearCmdDone(void)  { s_cmdDone = 0; }
 368:BSP/NFC.c     **** uint8_t NFC_IsCmdDone(void)  { return s_cmdDone; }
 369:BSP/NFC.c     **** 
 370:BSP/NFC.c     **** /**
 371:BSP/NFC.c     ****  * @brief  冲刷延迟通知: uartTask 在发送完响应后调用, 将待处理通知提交给 nfcTask
 372:BSP/NFC.c     ****  */
ARM GAS  C:\Users\24120\AppData\Local\Temp\ccaaYZuv.s 			page 8


 373:BSP/NFC.c     **** void NFC_FlushCmdNotify(void)
 374:BSP/NFC.c     **** {
 375:BSP/NFC.c     ****     if (s_pendingNotify) {
 376:BSP/NFC.c     ****         s_pendingNotify = 0;
 377:BSP/NFC.c     ****         s_cmdDone = 1;
 378:BSP/NFC.c     ****     }
 379:BSP/NFC.c     **** }
 380:BSP/NFC.c     **** 
 381:BSP/NFC.c     **** /** 全量重读标志: ISSUE 图像卡 / UPDATEIMG 后置位, nfcTask CmdDone 处理时检查 */
 382:BSP/NFC.c     **** static volatile uint8_t s_needFullReread = 0;
 383:BSP/NFC.c     **** 
 384:BSP/NFC.c     **** void NFC_SetFullReread(void)        { s_needFullReread = 1; }
 385:BSP/NFC.c     **** uint8_t NFC_IsFullRereadNeeded(void) { return s_needFullReread; }
 386:BSP/NFC.c     **** void NFC_ClearFullReread(void)      { s_needFullReread = 0; }
 387:BSP/NFC.c     **** 
 388:BSP/NFC.c     **** /* ====== 内部辅助 ====== */
 389:BSP/NFC.c     **** 
 390:BSP/NFC.c     **** /** 解析 HEX 字符串 (2字符→1字节) */
 391:BSP/NFC.c     **** static int HexToByte(char hi, char lo, uint8_t *out)
 392:BSP/NFC.c     **** {
  29              		.loc 1 392 1 view -0
  30              		.cfi_startproc
  31              		@ args = 0, pretend = 0, frame = 0
  32              		@ frame_needed = 0, uses_anonymous_args = 0
  33              		@ link register save eliminated.
 393:BSP/NFC.c     ****     int val = 0;
  34              		.loc 1 393 5 view .LVU1
 394:BSP/NFC.c     ****     if (hi >= '0' && hi <= '9') val = (hi - '0') << 4;
  35              		.loc 1 394 5 view .LVU2
  36              		.loc 1 394 19 is_stmt 0 view .LVU3
  37 0000 A0F13003 		sub	r3, r0, #48
  38 0004 DBB2     		uxtb	r3, r3
  39              		.loc 1 394 8 view .LVU4
  40 0006 092B     		cmp	r3, #9
  41 0008 0BD8     		bhi	.L2
  42              		.loc 1 394 33 is_stmt 1 discriminator 1 view .LVU5
  43              		.loc 1 394 43 is_stmt 0 discriminator 1 view .LVU6
  44 000a 3038     		subs	r0, r0, #48
  45              	.LVL1:
  46              		.loc 1 394 37 discriminator 1 view .LVU7
  47 000c 0001     		lsls	r0, r0, #4
  48              	.LVL2:
  49              	.L3:
 395:BSP/NFC.c     ****     else if (hi >= 'A' && hi <= 'F') val = (hi - 'A' + 10) << 4;
 396:BSP/NFC.c     ****     else if (hi >= 'a' && hi <= 'f') val = (hi - 'a' + 10) << 4;
 397:BSP/NFC.c     ****     else return -1;
 398:BSP/NFC.c     ****     if (lo >= '0' && lo <= '9') val |= (lo - '0');
  50              		.loc 1 398 5 is_stmt 1 view .LVU8
  51              		.loc 1 398 19 is_stmt 0 view .LVU9
  52 000e A1F13003 		sub	r3, r1, #48
  53 0012 DBB2     		uxtb	r3, r3
  54              		.loc 1 398 8 view .LVU10
  55 0014 092B     		cmp	r3, #9
  56 0016 14D8     		bhi	.L6
  57              		.loc 1 398 33 is_stmt 1 discriminator 1 view .LVU11
  58              		.loc 1 398 44 is_stmt 0 discriminator 1 view .LVU12
  59 0018 3039     		subs	r1, r1, #48
ARM GAS  C:\Users\24120\AppData\Local\Temp\ccaaYZuv.s 			page 9


  60              	.LVL3:
  61              		.loc 1 398 37 discriminator 1 view .LVU13
  62 001a 0843     		orrs	r0, r0, r1
  63              	.LVL4:
  64              	.L7:
 399:BSP/NFC.c     ****     else if (lo >= 'A' && lo <= 'F') val |= (lo - 'A' + 10);
 400:BSP/NFC.c     ****     else if (lo >= 'a' && lo <= 'f') val |= (lo - 'a' + 10);
 401:BSP/NFC.c     ****     else return -1;
 402:BSP/NFC.c     ****     *out = (uint8_t)val;
  65              		.loc 1 402 5 is_stmt 1 view .LVU14
  66              		.loc 1 402 10 is_stmt 0 view .LVU15
  67 001c 1070     		strb	r0, [r2]
 403:BSP/NFC.c     ****     return 0;
  68              		.loc 1 403 5 is_stmt 1 view .LVU16
  69              		.loc 1 403 12 is_stmt 0 view .LVU17
  70 001e 0020     		movs	r0, #0
  71              	.LVL5:
  72              		.loc 1 403 12 view .LVU18
  73 0020 7047     		bx	lr
  74              	.LVL6:
  75              	.L2:
 395:BSP/NFC.c     ****     else if (hi >= 'A' && hi <= 'F') val = (hi - 'A' + 10) << 4;
  76              		.loc 1 395 10 is_stmt 1 view .LVU19
 395:BSP/NFC.c     ****     else if (hi >= 'A' && hi <= 'F') val = (hi - 'A' + 10) << 4;
  77              		.loc 1 395 24 is_stmt 0 view .LVU20
  78 0022 A0F14103 		sub	r3, r0, #65
  79 0026 DBB2     		uxtb	r3, r3
 395:BSP/NFC.c     ****     else if (hi >= 'A' && hi <= 'F') val = (hi - 'A' + 10) << 4;
  80              		.loc 1 395 13 view .LVU21
  81 0028 052B     		cmp	r3, #5
  82 002a 02D8     		bhi	.L4
 395:BSP/NFC.c     ****     else if (hi >= 'A' && hi <= 'F') val = (hi - 'A' + 10) << 4;
  83              		.loc 1 395 38 is_stmt 1 discriminator 1 view .LVU22
 395:BSP/NFC.c     ****     else if (hi >= 'A' && hi <= 'F') val = (hi - 'A' + 10) << 4;
  84              		.loc 1 395 54 is_stmt 0 discriminator 1 view .LVU23
  85 002c 3738     		subs	r0, r0, #55
  86              	.LVL7:
 395:BSP/NFC.c     ****     else if (hi >= 'A' && hi <= 'F') val = (hi - 'A' + 10) << 4;
  87              		.loc 1 395 42 discriminator 1 view .LVU24
  88 002e 0001     		lsls	r0, r0, #4
  89              	.LVL8:
 395:BSP/NFC.c     ****     else if (hi >= 'A' && hi <= 'F') val = (hi - 'A' + 10) << 4;
  90              		.loc 1 395 42 discriminator 1 view .LVU25
  91 0030 EDE7     		b	.L3
  92              	.LVL9:
  93              	.L4:
 396:BSP/NFC.c     ****     else return -1;
  94              		.loc 1 396 10 is_stmt 1 view .LVU26
 396:BSP/NFC.c     ****     else return -1;
  95              		.loc 1 396 24 is_stmt 0 view .LVU27
  96 0032 A0F16103 		sub	r3, r0, #97
  97 0036 DBB2     		uxtb	r3, r3
 396:BSP/NFC.c     ****     else return -1;
  98              		.loc 1 396 13 view .LVU28
  99 0038 052B     		cmp	r3, #5
 100 003a 12D8     		bhi	.L9
 396:BSP/NFC.c     ****     else return -1;
ARM GAS  C:\Users\24120\AppData\Local\Temp\ccaaYZuv.s 			page 10


 101              		.loc 1 396 38 is_stmt 1 discriminator 1 view .LVU29
 396:BSP/NFC.c     ****     else return -1;
 102              		.loc 1 396 54 is_stmt 0 discriminator 1 view .LVU30
 103 003c 5738     		subs	r0, r0, #87
 104              	.LVL10:
 396:BSP/NFC.c     ****     else return -1;
 105              		.loc 1 396 42 discriminator 1 view .LVU31
 106 003e 0001     		lsls	r0, r0, #4
 107 0040 E5E7     		b	.L3
 108              	.LVL11:
 109              	.L6:
 399:BSP/NFC.c     ****     else if (lo >= 'A' && lo <= 'F') val |= (lo - 'A' + 10);
 110              		.loc 1 399 10 is_stmt 1 view .LVU32
 399:BSP/NFC.c     ****     else if (lo >= 'A' && lo <= 'F') val |= (lo - 'A' + 10);
 111              		.loc 1 399 24 is_stmt 0 view .LVU33
 112 0042 A1F14103 		sub	r3, r1, #65
 113 0046 DBB2     		uxtb	r3, r3
 399:BSP/NFC.c     ****     else if (lo >= 'A' && lo <= 'F') val |= (lo - 'A' + 10);
 114              		.loc 1 399 13 view .LVU34
 115 0048 052B     		cmp	r3, #5
 116 004a 02D8     		bhi	.L8
 399:BSP/NFC.c     ****     else if (lo >= 'A' && lo <= 'F') val |= (lo - 'A' + 10);
 117              		.loc 1 399 38 is_stmt 1 discriminator 1 view .LVU35
 399:BSP/NFC.c     ****     else if (lo >= 'A' && lo <= 'F') val |= (lo - 'A' + 10);
 118              		.loc 1 399 55 is_stmt 0 discriminator 1 view .LVU36
 119 004c 3739     		subs	r1, r1, #55
 120              	.LVL12:
 399:BSP/NFC.c     ****     else if (lo >= 'A' && lo <= 'F') val |= (lo - 'A' + 10);
 121              		.loc 1 399 42 discriminator 1 view .LVU37
 122 004e 0843     		orrs	r0, r0, r1
 123              	.LVL13:
 399:BSP/NFC.c     ****     else if (lo >= 'A' && lo <= 'F') val |= (lo - 'A' + 10);
 124              		.loc 1 399 42 discriminator 1 view .LVU38
 125 0050 E4E7     		b	.L7
 126              	.LVL14:
 127              	.L8:
 400:BSP/NFC.c     ****     else return -1;
 128              		.loc 1 400 10 is_stmt 1 view .LVU39
 400:BSP/NFC.c     ****     else return -1;
 129              		.loc 1 400 24 is_stmt 0 view .LVU40
 130 0052 A1F16103 		sub	r3, r1, #97
 131 0056 DBB2     		uxtb	r3, r3
 400:BSP/NFC.c     ****     else return -1;
 132              		.loc 1 400 13 view .LVU41
 133 0058 052B     		cmp	r3, #5
 134 005a 05D8     		bhi	.L10
 400:BSP/NFC.c     ****     else return -1;
 135              		.loc 1 400 38 is_stmt 1 discriminator 1 view .LVU42
 400:BSP/NFC.c     ****     else return -1;
 136              		.loc 1 400 55 is_stmt 0 discriminator 1 view .LVU43
 137 005c 5739     		subs	r1, r1, #87
 138              	.LVL15:
 400:BSP/NFC.c     ****     else return -1;
 139              		.loc 1 400 42 discriminator 1 view .LVU44
 140 005e 0843     		orrs	r0, r0, r1
 141              	.LVL16:
 400:BSP/NFC.c     ****     else return -1;
ARM GAS  C:\Users\24120\AppData\Local\Temp\ccaaYZuv.s 			page 11


 142              		.loc 1 400 42 discriminator 1 view .LVU45
 143 0060 DCE7     		b	.L7
 144              	.LVL17:
 145              	.L9:
 397:BSP/NFC.c     ****     if (lo >= '0' && lo <= '9') val |= (lo - '0');
 146              		.loc 1 397 17 view .LVU46
 147 0062 4FF0FF30 		mov	r0, #-1
 148              	.LVL18:
 397:BSP/NFC.c     ****     if (lo >= '0' && lo <= '9') val |= (lo - '0');
 149              		.loc 1 397 17 view .LVU47
 150 0066 7047     		bx	lr
 151              	.LVL19:
 152              	.L10:
 401:BSP/NFC.c     ****     *out = (uint8_t)val;
 153              		.loc 1 401 17 view .LVU48
 154 0068 4FF0FF30 		mov	r0, #-1
 155              	.LVL20:
 404:BSP/NFC.c     **** }
 156              		.loc 1 404 1 view .LVU49
 157 006c 7047     		bx	lr
 158              		.cfi_endproc
 159              	.LFE262:
 161              		.section	.text.ParseHex32,"ax",%progbits
 162              		.align	1
 163              		.syntax unified
 164              		.thumb
 165              		.thumb_func
 167              	ParseHex32:
 168              	.LVL21:
 169              	.LFB263:
 405:BSP/NFC.c     **** 
 406:BSP/NFC.c     **** /** 解析 32 字节 HEX 字符串 → 16 字节数据 */
 407:BSP/NFC.c     **** static int ParseHex32(const char *hex, uint8_t buf[16])
 408:BSP/NFC.c     **** {
 170              		.loc 1 408 1 is_stmt 1 view -0
 171              		.cfi_startproc
 172              		@ args = 0, pretend = 0, frame = 0
 173              		@ frame_needed = 0, uses_anonymous_args = 0
 174              		.loc 1 408 1 is_stmt 0 view .LVU51
 175 0000 70B5     		push	{r4, r5, r6, lr}
 176              	.LCFI0:
 177              		.cfi_def_cfa_offset 16
 178              		.cfi_offset 4, -16
 179              		.cfi_offset 5, -12
 180              		.cfi_offset 6, -8
 181              		.cfi_offset 14, -4
 182 0002 0546     		mov	r5, r0
 183 0004 0E46     		mov	r6, r1
 409:BSP/NFC.c     ****     for (int i = 0; i < 16; i++) {
 184              		.loc 1 409 5 is_stmt 1 view .LVU52
 185              	.LBB8:
 186              		.loc 1 409 10 view .LVU53
 187              	.LVL22:
 188              		.loc 1 409 14 is_stmt 0 view .LVU54
 189 0006 0024     		movs	r4, #0
 190              	.LVL23:
 191              	.L12:
ARM GAS  C:\Users\24120\AppData\Local\Temp\ccaaYZuv.s 			page 12


 192              		.loc 1 409 23 is_stmt 1 discriminator 1 view .LVU55
 193 0008 0F2C     		cmp	r4, #15
 194 000a 0ADC     		bgt	.L17
 410:BSP/NFC.c     ****         if (HexToByte(hex[i*2], hex[i*2+1], &buf[i]) != 0)
 195              		.loc 1 410 9 view .LVU56
 196              		.loc 1 410 28 is_stmt 0 view .LVU57
 197 000c 6300     		lsls	r3, r4, #1
 198              		.loc 1 410 36 view .LVU58
 199 000e 0133     		adds	r3, r3, #1
 200              		.loc 1 410 13 view .LVU59
 201 0010 3219     		adds	r2, r6, r4
 202 0012 E95C     		ldrb	r1, [r5, r3]	@ zero_extendqisi2
 203 0014 15F81400 		ldrb	r0, [r5, r4, lsl #1]	@ zero_extendqisi2
 204 0018 FFF7FEFF 		bl	HexToByte
 205              	.LVL24:
 206              		.loc 1 410 12 discriminator 1 view .LVU60
 207 001c 18B9     		cbnz	r0, .L15
 409:BSP/NFC.c     ****     for (int i = 0; i < 16; i++) {
 208              		.loc 1 409 30 is_stmt 1 discriminator 2 view .LVU61
 209 001e 0134     		adds	r4, r4, #1
 210              	.LVL25:
 409:BSP/NFC.c     ****     for (int i = 0; i < 16; i++) {
 211              		.loc 1 409 30 is_stmt 0 discriminator 2 view .LVU62
 212 0020 F2E7     		b	.L12
 213              	.LVL26:
 214              	.L17:
 409:BSP/NFC.c     ****     for (int i = 0; i < 16; i++) {
 215              		.loc 1 409 30 discriminator 2 view .LVU63
 216              	.LBE8:
 411:BSP/NFC.c     ****             return -1;
 412:BSP/NFC.c     ****     }
 413:BSP/NFC.c     ****     return 0;
 217              		.loc 1 413 12 view .LVU64
 218 0022 0020     		movs	r0, #0
 219              	.L11:
 414:BSP/NFC.c     **** }
 220              		.loc 1 414 1 view .LVU65
 221 0024 70BD     		pop	{r4, r5, r6, pc}
 222              	.LVL27:
 223              	.L15:
 224              	.LBB9:
 411:BSP/NFC.c     ****             return -1;
 225              		.loc 1 411 20 view .LVU66
 226 0026 4FF0FF30 		mov	r0, #-1
 227 002a FBE7     		b	.L11
 228              	.LBE9:
 229              		.cfi_endproc
 230              	.LFE263:
 232              		.section	.rodata.NFC_CmdImageBlock.str1.4,"aMS",%progbits,1
 233              		.align	2
 234              	.LC0:
 235 0000 4552523A 		.ascii	"ERR:IMG_BLOCK\012\000"
 235      494D475F 
 235      424C4F43 
 235      4B0A00
 236 000f 00       		.align	2
 237              	.LC1:
ARM GAS  C:\Users\24120\AppData\Local\Temp\ccaaYZuv.s 			page 13


 238 0010 4552523A 		.ascii	"ERR:IMG_HEX\012\000"
 238      494D475F 
 238      4845580A 
 238      00
 239 001d 000000   		.align	2
 240              	.LC2:
 241 0020 4F4B0A00 		.ascii	"OK\012\000"
 242              		.section	.text.NFC_CmdImageBlock,"ax",%progbits
 243              		.align	1
 244              		.syntax unified
 245              		.thumb
 246              		.thumb_func
 248              	NFC_CmdImageBlock:
 249              	.LVL28:
 250              	.LFB267:
 415:BSP/NFC.c     **** 
 416:BSP/NFC.c     **** /** 将 UID 4 字节转为 HEX 字符串 */
 417:BSP/NFC.c     **** static void UIDToStr(const uint8_t uid[4], char *str)
 418:BSP/NFC.c     **** {
 419:BSP/NFC.c     ****     sprintf(str, "%02X%02X%02X%02X", uid[0], uid[1], uid[2], uid[3]);
 420:BSP/NFC.c     **** }
 421:BSP/NFC.c     **** 
 422:BSP/NFC.c     **** /* ====== 命令处理 ====== */
 423:BSP/NFC.c     **** 
 424:BSP/NFC.c     **** /**
 425:BSP/NFC.c     ****  * @brief  写账户头到卡 Block1
 426:BSP/NFC.c     ****  * @param  cardId   卡号 (4B HEX)
 427:BSP/NFC.c     ****  * @param  sid      学号/工号 (十进制, 8 位如 23041036)
 428:BSP/NFC.c     ****  * @param  points   积分
 429:BSP/NFC.c     ****  * @param  cardType 卡类型
 430:BSP/NFC.c     ****  * @return 响应字符串
 431:BSP/NFC.c     ****  */
 432:BSP/NFC.c     **** static const char *NFC_CmdIssue(const char *args)
 433:BSP/NFC.c     **** {
 434:BSP/NFC.c     ****     uint32_t cardId, sid, points;
 435:BSP/NFC.c     ****     int      cardType;
 436:BSP/NFC.c     ****     uint8_t  blockData[16];
 437:BSP/NFC.c     ****     uint8_t  uid[4];
 438:BSP/NFC.c     ****     char     status;
 439:BSP/NFC.c     **** 
 440:BSP/NFC.c     ****     if (sscanf(args, "%x,%u,%u,%d", &cardId, &sid, &points, &cardType) < 4) {
 441:BSP/NFC.c     ****         return "ERR:PARSE\n";
 442:BSP/NFC.c     ****     }
 443:BSP/NFC.c     ****     if (cardType < 0 || cardType > 2) return "ERR:PARSE\n";
 444:BSP/NFC.c     **** 
 445:BSP/NFC.c     ****     /* 寻卡 (先 Halt 复位, 避免卡留在 ACTIVE 态) */
 446:BSP/NFC.c     ****     RC522_Halt();
 447:BSP/NFC.c     ****     osDelay(2);
 448:BSP/NFC.c     ****     status = RC522_ScanCard(uid);
 449:BSP/NFC.c     ****     if (status != RC522_OK) return "ERR:NOCARD\n";
 450:BSP/NFC.c     **** 
 451:BSP/NFC.c     ****     /* 构造 Block1 数据 */
 452:BSP/NFC.c     ****     memset(blockData, 0, sizeof(blockData));
 453:BSP/NFC.c     ****     blockData[0]  = (uint8_t)(cardId);
 454:BSP/NFC.c     ****     blockData[1]  = (uint8_t)(cardId >> 8);
 455:BSP/NFC.c     ****     blockData[2]  = (uint8_t)(cardId >> 16);
 456:BSP/NFC.c     ****     blockData[3]  = (uint8_t)(cardId >> 24);
ARM GAS  C:\Users\24120\AppData\Local\Temp\ccaaYZuv.s 			page 14


 457:BSP/NFC.c     ****     blockData[4]  = (uint8_t)(sid);
 458:BSP/NFC.c     ****     blockData[5]  = (uint8_t)(sid >> 8);
 459:BSP/NFC.c     ****     blockData[6]  = (uint8_t)(sid >> 16);
 460:BSP/NFC.c     ****     blockData[7]  = (uint8_t)(sid >> 24);
 461:BSP/NFC.c     ****     blockData[8]  = (uint8_t)(points);
 462:BSP/NFC.c     ****     blockData[9]  = (uint8_t)(points >> 8);
 463:BSP/NFC.c     ****     blockData[10] = (uint8_t)(points >> 16);
 464:BSP/NFC.c     ****     blockData[11] = (uint8_t)(points >> 24);
 465:BSP/NFC.c     ****     blockData[12] = (uint8_t)cardType;
 466:BSP/NFC.c     ****     blockData[13] = 0x00;  /* statusFlag: 正常 */
 467:BSP/NFC.c     **** 
 468:BSP/NFC.c     ****     /* 校验和 (前14字节累加) */
 469:BSP/NFC.c     ****     uint16_t sum = 0;
 470:BSP/NFC.c     ****     for (int i = 0; i < 14; i++) sum += blockData[i];
 471:BSP/NFC.c     ****     blockData[14] = (uint8_t)(sum);
 472:BSP/NFC.c     ****     blockData[15] = (uint8_t)(sum >> 8);
 473:BSP/NFC.c     **** 
 474:BSP/NFC.c     ****     /* 认证 + 写入 */
 475:BSP/NFC.c     ****     status = RC522_AuthState(RC522_PICC_AUTHENT1A, 3, (uint8_t*)s_defaultKey, uid);
 476:BSP/NFC.c     ****     if (status != RC522_OK) { NFC_Recover(); return "ERR:AUTH\n"; }
 477:BSP/NFC.c     **** 
 478:BSP/NFC.c     ****     status = RC522_WriteBlock(0, 1, blockData);
 479:BSP/NFC.c     ****     if (status != RC522_OK) { NFC_Recover(); return "ERR:WRITE_B1\n"; }
 480:BSP/NFC.c     **** 
 481:BSP/NFC.c     ****     /* 写完后 Halt 卡, 使卡回休眠态 */
 482:BSP/NFC.c     ****     RC522_Halt();
 483:BSP/NFC.c     **** 
 484:BSP/NFC.c     ****     /* 缓存 UID */
 485:BSP/NFC.c     ****     memcpy(s_lastUID, uid, 4);
 486:BSP/NFC.c     ****     UIDToStr(uid, s_lastUIDStr);
 487:BSP/NFC.c     **** 
 488:BSP/NFC.c     ****     return "OK\n";
 489:BSP/NFC.c     **** }
 490:BSP/NFC.c     **** 
 491:BSP/NFC.c     **** /**
 492:BSP/NFC.c     ****  * @brief  读卡验证并返回数据
 493:BSP/NFC.c     ****  */
 494:BSP/NFC.c     **** static const char *NFC_CmdRead(char *respBuf, uint16_t bufSize)
 495:BSP/NFC.c     **** {
 496:BSP/NFC.c     ****     uint8_t uid[4];
 497:BSP/NFC.c     ****     uint8_t blockData[16];
 498:BSP/NFC.c     ****     char    status;
 499:BSP/NFC.c     **** 
 500:BSP/NFC.c     ****     RC522_Halt();
 501:BSP/NFC.c     ****     osDelay(2);
 502:BSP/NFC.c     ****     status = RC522_ScanCard(uid);
 503:BSP/NFC.c     ****     if (status != RC522_OK) return "ERR:NOCARD\n";
 504:BSP/NFC.c     **** 
 505:BSP/NFC.c     ****     status = RC522_AuthState(RC522_PICC_AUTHENT1A, 3, (uint8_t*)s_defaultKey, uid);
 506:BSP/NFC.c     ****     if (status != RC522_OK) return "ERR:AUTH\n";
 507:BSP/NFC.c     **** 
 508:BSP/NFC.c     ****     status = RC522_ReadBlock(0, 1, blockData);
 509:BSP/NFC.c     ****     if (status != RC522_OK) return "ERR:WRITE_B1\n";
 510:BSP/NFC.c     **** 
 511:BSP/NFC.c     ****     /* 缓存 UID */
 512:BSP/NFC.c     ****     memcpy(s_lastUID, uid, 4);
 513:BSP/NFC.c     ****     UIDToStr(uid, s_lastUIDStr);
ARM GAS  C:\Users\24120\AppData\Local\Temp\ccaaYZuv.s 			page 15


 514:BSP/NFC.c     **** 
 515:BSP/NFC.c     ****     uint32_t sid = (uint32_t)blockData[4]       | ((uint32_t)blockData[5] << 8) |
 516:BSP/NFC.c     ****                      ((uint32_t)blockData[6] << 16) | ((uint32_t)blockData[7] << 24);
 517:BSP/NFC.c     **** 
 518:BSP/NFC.c     ****     snprintf(respBuf, bufSize,
 519:BSP/NFC.c     ****              "UID:%s\nSID:%lu\nTYPE:%d\n",
 520:BSP/NFC.c     ****              s_lastUIDStr, (unsigned long)sid, blockData[12]);
 521:BSP/NFC.c     ****     return respBuf;
 522:BSP/NFC.c     **** }
 523:BSP/NFC.c     **** 
 524:BSP/NFC.c     **** /**
 525:BSP/NFC.c     ****  * @brief  IMGA/IMGN/IMGD 图像块缓存
 526:BSP/NFC.c     ****  * @param  hex32  32 字符 HEX
 527:BSP/NFC.c     ****  * @param  idx    块索引
 528:BSP/NFC.c     ****  * @param  cache  目标缓存数组
 529:BSP/NFC.c     ****  * @param  maxIdx 最大索引
 530:BSP/NFC.c     ****  */
 531:BSP/NFC.c     **** static const char *NFC_CmdImageBlock(const char *hex32, int idx,
 532:BSP/NFC.c     ****                                       uint8_t cache[][16], int maxIdx)
 533:BSP/NFC.c     **** {
 251              		.loc 1 533 1 is_stmt 1 view -0
 252              		.cfi_startproc
 253              		@ args = 0, pretend = 0, frame = 0
 254              		@ frame_needed = 0, uses_anonymous_args = 0
 255              		.loc 1 533 1 is_stmt 0 view .LVU68
 256 0000 70B5     		push	{r4, r5, r6, lr}
 257              	.LCFI1:
 258              		.cfi_def_cfa_offset 16
 259              		.cfi_offset 4, -16
 260              		.cfi_offset 5, -12
 261              		.cfi_offset 6, -8
 262              		.cfi_offset 14, -4
 534:BSP/NFC.c     ****     if (idx < 0 || idx >= maxIdx) return "ERR:IMG_BLOCK\n";
 263              		.loc 1 534 5 is_stmt 1 view .LVU69
 264              		.loc 1 534 8 is_stmt 0 view .LVU70
 265 0002 0C1E     		subs	r4, r1, #0
 266 0004 11DB     		blt	.L20
 267 0006 0546     		mov	r5, r0
 268 0008 1646     		mov	r6, r2
 269              		.loc 1 534 17 discriminator 2 view .LVU71
 270 000a 9C42     		cmp	r4, r3
 271 000c 0FDA     		bge	.L21
 535:BSP/NFC.c     ****     if (strlen(hex32) < 32) return "ERR:IMG_HEX\n";
 272              		.loc 1 535 5 is_stmt 1 view .LVU72
 273              		.loc 1 535 9 is_stmt 0 view .LVU73
 274 000e FFF7FEFF 		bl	strlen
 275              	.LVL29:
 276              		.loc 1 535 8 discriminator 1 view .LVU74
 277 0012 1F28     		cmp	r0, #31
 278 0014 01D8     		bhi	.L25
 279              		.loc 1 535 36 discriminator 1 view .LVU75
 280 0016 0848     		ldr	r0, .L26
 281 0018 08E0     		b	.L18
 282              	.L25:
 536:BSP/NFC.c     ****     if (ParseHex32(hex32, cache[idx]) != 0) return "ERR:IMG_HEX\n";
 283              		.loc 1 536 5 is_stmt 1 view .LVU76
 284              		.loc 1 536 9 is_stmt 0 view .LVU77
ARM GAS  C:\Users\24120\AppData\Local\Temp\ccaaYZuv.s 			page 16


 285 001a 06EB0411 		add	r1, r6, r4, lsl #4
 286 001e 2846     		mov	r0, r5
 287 0020 FFF7FEFF 		bl	ParseHex32
 288              	.LVL30:
 289              		.loc 1 536 8 discriminator 1 view .LVU78
 290 0024 28B9     		cbnz	r0, .L23
 537:BSP/NFC.c     ****     return "OK\n";
 291              		.loc 1 537 12 view .LVU79
 292 0026 0548     		ldr	r0, .L26+4
 293 0028 00E0     		b	.L18
 294              	.LVL31:
 295              	.L20:
 534:BSP/NFC.c     ****     if (strlen(hex32) < 32) return "ERR:IMG_HEX\n";
 296              		.loc 1 534 42 discriminator 3 view .LVU80
 297 002a 0548     		ldr	r0, .L26+8
 298              	.LVL32:
 299              	.L18:
 538:BSP/NFC.c     **** }
 300              		.loc 1 538 1 view .LVU81
 301 002c 70BD     		pop	{r4, r5, r6, pc}
 302              	.LVL33:
 303              	.L21:
 534:BSP/NFC.c     ****     if (strlen(hex32) < 32) return "ERR:IMG_HEX\n";
 304              		.loc 1 534 42 discriminator 3 view .LVU82
 305 002e 0448     		ldr	r0, .L26+8
 306              	.LVL34:
 534:BSP/NFC.c     ****     if (strlen(hex32) < 32) return "ERR:IMG_HEX\n";
 307              		.loc 1 534 42 discriminator 3 view .LVU83
 308 0030 FCE7     		b	.L18
 309              	.LVL35:
 310              	.L23:
 536:BSP/NFC.c     ****     return "OK\n";
 311              		.loc 1 536 52 discriminator 1 view .LVU84
 312 0032 0148     		ldr	r0, .L26
 313 0034 FAE7     		b	.L18
 314              	.L27:
 315 0036 00BF     		.align	2
 316              	.L26:
 317 0038 10000000 		.word	.LC1
 318 003c 20000000 		.word	.LC2
 319 0040 00000000 		.word	.LC0
 320              		.cfi_endproc
 321              	.LFE267:
 323              		.section	.rodata.UIDToStr.str1.4,"aMS",%progbits,1
 324              		.align	2
 325              	.LC3:
 326 0000 25303258 		.ascii	"%02X%02X%02X%02X\000"
 326      25303258 
 326      25303258 
 326      25303258 
 326      00
 327              		.section	.text.UIDToStr,"ax",%progbits
 328              		.align	1
 329              		.syntax unified
 330              		.thumb
 331              		.thumb_func
 333              	UIDToStr:
ARM GAS  C:\Users\24120\AppData\Local\Temp\ccaaYZuv.s 			page 17


 334              	.LVL36:
 335              	.LFB264:
 418:BSP/NFC.c     ****     sprintf(str, "%02X%02X%02X%02X", uid[0], uid[1], uid[2], uid[3]);
 336              		.loc 1 418 1 is_stmt 1 view -0
 337              		.cfi_startproc
 338              		@ args = 0, pretend = 0, frame = 0
 339              		@ frame_needed = 0, uses_anonymous_args = 0
 418:BSP/NFC.c     ****     sprintf(str, "%02X%02X%02X%02X", uid[0], uid[1], uid[2], uid[3]);
 340              		.loc 1 418 1 is_stmt 0 view .LVU86
 341 0000 00B5     		push	{lr}
 342              	.LCFI2:
 343              		.cfi_def_cfa_offset 4
 344              		.cfi_offset 14, -4
 345 0002 83B0     		sub	sp, sp, #12
 346              	.LCFI3:
 347              		.cfi_def_cfa_offset 16
 348 0004 0246     		mov	r2, r0
 349 0006 0846     		mov	r0, r1
 350              	.LVL37:
 419:BSP/NFC.c     **** }
 351              		.loc 1 419 5 is_stmt 1 view .LVU87
 419:BSP/NFC.c     **** }
 352              		.loc 1 419 57 is_stmt 0 view .LVU88
 353 0008 9378     		ldrb	r3, [r2, #2]	@ zero_extendqisi2
 419:BSP/NFC.c     **** }
 354              		.loc 1 419 65 view .LVU89
 355 000a D178     		ldrb	r1, [r2, #3]	@ zero_extendqisi2
 356              	.LVL38:
 419:BSP/NFC.c     **** }
 357              		.loc 1 419 5 view .LVU90
 358 000c 0191     		str	r1, [sp, #4]
 359 000e 0093     		str	r3, [sp]
 360 0010 5378     		ldrb	r3, [r2, #1]	@ zero_extendqisi2
 361 0012 1278     		ldrb	r2, [r2]	@ zero_extendqisi2
 362              	.LVL39:
 419:BSP/NFC.c     **** }
 363              		.loc 1 419 5 view .LVU91
 364 0014 0249     		ldr	r1, .L30
 365 0016 FFF7FEFF 		bl	sprintf
 366              	.LVL40:
 420:BSP/NFC.c     **** 
 367              		.loc 1 420 1 view .LVU92
 368 001a 03B0     		add	sp, sp, #12
 369              	.LCFI4:
 370              		.cfi_def_cfa_offset 4
 371              		@ sp needed
 372 001c 5DF804FB 		ldr	pc, [sp], #4
 373              	.L31:
 374              		.align	2
 375              	.L30:
 376 0020 00000000 		.word	.LC3
 377              		.cfi_endproc
 378              	.LFE264:
 380              		.section	.rodata.NFC_CmdRead.str1.4,"aMS",%progbits,1
 381              		.align	2
 382              	.LC4:
 383 0000 4552523A 		.ascii	"ERR:NOCARD\012\000"
ARM GAS  C:\Users\24120\AppData\Local\Temp\ccaaYZuv.s 			page 18


 383      4E4F4341 
 383      52440A00 
 384              		.align	2
 385              	.LC5:
 386 000c 4552523A 		.ascii	"ERR:AUTH\012\000"
 386      41555448 
 386      0A00
 387 0016 0000     		.align	2
 388              	.LC6:
 389 0018 4552523A 		.ascii	"ERR:WRITE_B1\012\000"
 389      57524954 
 389      455F4231 
 389      0A00
 390 0026 0000     		.align	2
 391              	.LC7:
 392 0028 5549443A 		.ascii	"UID:%s\012SID:%lu\012TYPE:%d\012\000"
 392      25730A53 
 392      49443A25 
 392      6C750A54 
 392      5950453A 
 393              		.section	.text.NFC_CmdRead,"ax",%progbits
 394              		.align	1
 395              		.syntax unified
 396              		.thumb
 397              		.thumb_func
 399              	NFC_CmdRead:
 400              	.LVL41:
 401              	.LFB266:
 495:BSP/NFC.c     ****     uint8_t uid[4];
 402              		.loc 1 495 1 is_stmt 1 view -0
 403              		.cfi_startproc
 404              		@ args = 0, pretend = 0, frame = 24
 405              		@ frame_needed = 0, uses_anonymous_args = 0
 495:BSP/NFC.c     ****     uint8_t uid[4];
 406              		.loc 1 495 1 is_stmt 0 view .LVU94
 407 0000 70B5     		push	{r4, r5, r6, lr}
 408              	.LCFI5:
 409              		.cfi_def_cfa_offset 16
 410              		.cfi_offset 4, -16
 411              		.cfi_offset 5, -12
 412              		.cfi_offset 6, -8
 413              		.cfi_offset 14, -4
 414 0002 88B0     		sub	sp, sp, #32
 415              	.LCFI6:
 416              		.cfi_def_cfa_offset 48
 417 0004 0546     		mov	r5, r0
 418 0006 0C46     		mov	r4, r1
 496:BSP/NFC.c     ****     uint8_t blockData[16];
 419              		.loc 1 496 5 is_stmt 1 view .LVU95
 497:BSP/NFC.c     ****     char    status;
 420              		.loc 1 497 5 view .LVU96
 498:BSP/NFC.c     **** 
 421              		.loc 1 498 5 view .LVU97
 500:BSP/NFC.c     ****     osDelay(2);
 422              		.loc 1 500 5 view .LVU98
 423 0008 FFF7FEFF 		bl	RC522_Halt
 424              	.LVL42:
ARM GAS  C:\Users\24120\AppData\Local\Temp\ccaaYZuv.s 			page 19


 501:BSP/NFC.c     ****     status = RC522_ScanCard(uid);
 425              		.loc 1 501 5 view .LVU99
 426 000c 0220     		movs	r0, #2
 427 000e FFF7FEFF 		bl	osDelay
 428              	.LVL43:
 502:BSP/NFC.c     ****     if (status != RC522_OK) return "ERR:NOCARD\n";
 429              		.loc 1 502 5 view .LVU100
 502:BSP/NFC.c     ****     if (status != RC522_OK) return "ERR:NOCARD\n";
 430              		.loc 1 502 14 is_stmt 0 view .LVU101
 431 0012 07A8     		add	r0, sp, #28
 432 0014 FFF7FEFF 		bl	RC522_ScanCard
 433              	.LVL44:
 503:BSP/NFC.c     **** 
 434              		.loc 1 503 5 is_stmt 1 view .LVU102
 503:BSP/NFC.c     **** 
 435              		.loc 1 503 8 is_stmt 0 view .LVU103
 436 0018 10B1     		cbz	r0, .L38
 503:BSP/NFC.c     **** 
 437              		.loc 1 503 36 discriminator 1 view .LVU104
 438 001a 1A48     		ldr	r0, .L41
 439              	.LVL45:
 440              	.L32:
 522:BSP/NFC.c     **** 
 441              		.loc 1 522 1 view .LVU105
 442 001c 08B0     		add	sp, sp, #32
 443              	.LCFI7:
 444              		.cfi_remember_state
 445              		.cfi_def_cfa_offset 16
 446              		@ sp needed
 447 001e 70BD     		pop	{r4, r5, r6, pc}
 448              	.LVL46:
 449              	.L38:
 450              	.LCFI8:
 451              		.cfi_restore_state
 505:BSP/NFC.c     ****     if (status != RC522_OK) return "ERR:AUTH\n";
 452              		.loc 1 505 5 is_stmt 1 view .LVU106
 505:BSP/NFC.c     ****     if (status != RC522_OK) return "ERR:AUTH\n";
 453              		.loc 1 505 14 is_stmt 0 view .LVU107
 454 0020 07AB     		add	r3, sp, #28
 455 0022 194A     		ldr	r2, .L41+4
 456 0024 0321     		movs	r1, #3
 457 0026 6020     		movs	r0, #96
 458              	.LVL47:
 505:BSP/NFC.c     ****     if (status != RC522_OK) return "ERR:AUTH\n";
 459              		.loc 1 505 14 view .LVU108
 460 0028 FFF7FEFF 		bl	RC522_AuthState
 461              	.LVL48:
 506:BSP/NFC.c     **** 
 462              		.loc 1 506 5 is_stmt 1 view .LVU109
 506:BSP/NFC.c     **** 
 463              		.loc 1 506 8 is_stmt 0 view .LVU110
 464 002c 08B1     		cbz	r0, .L39
 506:BSP/NFC.c     **** 
 465              		.loc 1 506 36 discriminator 1 view .LVU111
 466 002e 1748     		ldr	r0, .L41+8
 467              	.LVL49:
 506:BSP/NFC.c     **** 
ARM GAS  C:\Users\24120\AppData\Local\Temp\ccaaYZuv.s 			page 20


 468              		.loc 1 506 36 discriminator 1 view .LVU112
 469 0030 F4E7     		b	.L32
 470              	.LVL50:
 471              	.L39:
 508:BSP/NFC.c     ****     if (status != RC522_OK) return "ERR:WRITE_B1\n";
 472              		.loc 1 508 5 is_stmt 1 view .LVU113
 508:BSP/NFC.c     ****     if (status != RC522_OK) return "ERR:WRITE_B1\n";
 473              		.loc 1 508 14 is_stmt 0 view .LVU114
 474 0032 03AA     		add	r2, sp, #12
 475 0034 0121     		movs	r1, #1
 476 0036 FFF7FEFF 		bl	RC522_ReadBlock
 477              	.LVL51:
 509:BSP/NFC.c     **** 
 478              		.loc 1 509 5 is_stmt 1 view .LVU115
 509:BSP/NFC.c     **** 
 479              		.loc 1 509 8 is_stmt 0 view .LVU116
 480 003a 08B1     		cbz	r0, .L40
 509:BSP/NFC.c     **** 
 481              		.loc 1 509 36 discriminator 1 view .LVU117
 482 003c 1448     		ldr	r0, .L41+12
 483              	.LVL52:
 509:BSP/NFC.c     **** 
 484              		.loc 1 509 36 discriminator 1 view .LVU118
 485 003e EDE7     		b	.L32
 486              	.LVL53:
 487              	.L40:
 512:BSP/NFC.c     ****     UIDToStr(uid, s_lastUIDStr);
 488              		.loc 1 512 5 is_stmt 1 view .LVU119
 489 0040 144B     		ldr	r3, .L41+16
 490 0042 079A     		ldr	r2, [sp, #28]
 491 0044 1A60     		str	r2, [r3]
 513:BSP/NFC.c     **** 
 492              		.loc 1 513 5 view .LVU120
 493 0046 144E     		ldr	r6, .L41+20
 494 0048 3146     		mov	r1, r6
 495 004a 07A8     		add	r0, sp, #28
 496              	.LVL54:
 513:BSP/NFC.c     **** 
 497              		.loc 1 513 5 is_stmt 0 view .LVU121
 498 004c FFF7FEFF 		bl	UIDToStr
 499              	.LVL55:
 515:BSP/NFC.c     ****                      ((uint32_t)blockData[6] << 16) | ((uint32_t)blockData[7] << 24);
 500              		.loc 1 515 5 is_stmt 1 view .LVU122
 515:BSP/NFC.c     ****                      ((uint32_t)blockData[6] << 16) | ((uint32_t)blockData[7] << 24);
 501              		.loc 1 515 39 is_stmt 0 view .LVU123
 502 0050 9DF81030 		ldrb	r3, [sp, #16]	@ zero_extendqisi2
 515:BSP/NFC.c     ****                      ((uint32_t)blockData[6] << 16) | ((uint32_t)blockData[7] << 24);
 503              		.loc 1 515 71 view .LVU124
 504 0054 9DF81120 		ldrb	r2, [sp, #17]	@ zero_extendqisi2
 515:BSP/NFC.c     ****                      ((uint32_t)blockData[6] << 16) | ((uint32_t)blockData[7] << 24);
 505              		.loc 1 515 49 view .LVU125
 506 0058 43EA0223 		orr	r3, r3, r2, lsl #8
 516:BSP/NFC.c     **** 
 507              		.loc 1 516 42 view .LVU126
 508 005c 9DF81220 		ldrb	r2, [sp, #18]	@ zero_extendqisi2
 515:BSP/NFC.c     ****                      ((uint32_t)blockData[6] << 16) | ((uint32_t)blockData[7] << 24);
 509              		.loc 1 515 81 view .LVU127
ARM GAS  C:\Users\24120\AppData\Local\Temp\ccaaYZuv.s 			page 21


 510 0060 43EA0243 		orr	r3, r3, r2, lsl #16
 516:BSP/NFC.c     **** 
 511              		.loc 1 516 75 view .LVU128
 512 0064 9DF81320 		ldrb	r2, [sp, #19]	@ zero_extendqisi2
 515:BSP/NFC.c     ****                      ((uint32_t)blockData[6] << 16) | ((uint32_t)blockData[7] << 24);
 513              		.loc 1 515 14 view .LVU129
 514 0068 43EA0263 		orr	r3, r3, r2, lsl #24
 515              	.LVL56:
 518:BSP/NFC.c     ****              "UID:%s\nSID:%lu\nTYPE:%d\n",
 516              		.loc 1 518 5 is_stmt 1 view .LVU130
 520:BSP/NFC.c     ****     return respBuf;
 517              		.loc 1 520 57 is_stmt 0 view .LVU131
 518 006c 9DF81820 		ldrb	r2, [sp, #24]	@ zero_extendqisi2
 518:BSP/NFC.c     ****              "UID:%s\nSID:%lu\nTYPE:%d\n",
 519              		.loc 1 518 5 view .LVU132
 520 0070 0192     		str	r2, [sp, #4]
 521 0072 0093     		str	r3, [sp]
 522 0074 3346     		mov	r3, r6
 523              	.LVL57:
 518:BSP/NFC.c     ****              "UID:%s\nSID:%lu\nTYPE:%d\n",
 524              		.loc 1 518 5 view .LVU133
 525 0076 094A     		ldr	r2, .L41+24
 526 0078 2146     		mov	r1, r4
 527 007a 2846     		mov	r0, r5
 528 007c FFF7FEFF 		bl	snprintf
 529              	.LVL58:
 521:BSP/NFC.c     **** }
 530              		.loc 1 521 5 is_stmt 1 view .LVU134
 521:BSP/NFC.c     **** }
 531              		.loc 1 521 12 is_stmt 0 view .LVU135
 532 0080 2846     		mov	r0, r5
 533 0082 CBE7     		b	.L32
 534              	.L42:
 535              		.align	2
 536              	.L41:
 537 0084 00000000 		.word	.LC4
 538 0088 00000000 		.word	s_defaultKey
 539 008c 0C000000 		.word	.LC5
 540 0090 18000000 		.word	.LC6
 541 0094 00000000 		.word	s_lastUID
 542 0098 00000000 		.word	s_lastUIDStr
 543 009c 28000000 		.word	.LC7
 544              		.cfi_endproc
 545              	.LFE266:
 547              		.section	.text.NFC_Init,"ax",%progbits
 548              		.align	1
 549              		.global	NFC_Init
 550              		.syntax unified
 551              		.thumb
 552              		.thumb_func
 554              	NFC_Init:
 555              	.LFB246:
  64:BSP/NFC.c     ****     RC522_Platform_Init();
 556              		.loc 1 64 1 is_stmt 1 view -0
 557              		.cfi_startproc
 558              		@ args = 0, pretend = 0, frame = 0
 559              		@ frame_needed = 0, uses_anonymous_args = 0
ARM GAS  C:\Users\24120\AppData\Local\Temp\ccaaYZuv.s 			page 22


 560 0000 08B5     		push	{r3, lr}
 561              	.LCFI9:
 562              		.cfi_def_cfa_offset 8
 563              		.cfi_offset 3, -8
 564              		.cfi_offset 14, -4
  65:BSP/NFC.c     ****     RC522_ConfigISOType('A');   /* ISO14443A, 内部自动开启天线 */
 565              		.loc 1 65 5 view .LVU137
 566 0002 FFF7FEFF 		bl	RC522_Platform_Init
 567              	.LVL59:
  66:BSP/NFC.c     **** }
 568              		.loc 1 66 5 view .LVU138
 569 0006 4120     		movs	r0, #65
 570 0008 FFF7FEFF 		bl	RC522_ConfigISOType
 571              	.LVL60:
  67:BSP/NFC.c     **** 
 572              		.loc 1 67 1 is_stmt 0 view .LVU139
 573 000c 08BD     		pop	{r3, pc}
 574              		.cfi_endproc
 575              	.LFE246:
 577              		.section	.text.NFC_ScanCard,"ax",%progbits
 578              		.align	1
 579              		.global	NFC_ScanCard
 580              		.syntax unified
 581              		.thumb
 582              		.thumb_func
 584              	NFC_ScanCard:
 585              	.LVL61:
 586              	.LFB247:
  73:BSP/NFC.c     ****     return RC522_ScanCard(uid);
 587              		.loc 1 73 1 is_stmt 1 view -0
 588              		.cfi_startproc
 589              		@ args = 0, pretend = 0, frame = 0
 590              		@ frame_needed = 0, uses_anonymous_args = 0
  73:BSP/NFC.c     ****     return RC522_ScanCard(uid);
 591              		.loc 1 73 1 is_stmt 0 view .LVU141
 592 0000 08B5     		push	{r3, lr}
 593              	.LCFI10:
 594              		.cfi_def_cfa_offset 8
 595              		.cfi_offset 3, -8
 596              		.cfi_offset 14, -4
  74:BSP/NFC.c     **** }
 597              		.loc 1 74 5 is_stmt 1 view .LVU142
  74:BSP/NFC.c     **** }
 598              		.loc 1 74 12 is_stmt 0 view .LVU143
 599 0002 FFF7FEFF 		bl	RC522_ScanCard
 600              	.LVL62:
  75:BSP/NFC.c     **** 
 601              		.loc 1 75 1 view .LVU144
 602 0006 08BD     		pop	{r3, pc}
 603              		.cfi_endproc
 604              	.LFE247:
 606              		.section	.text.NFC_WaitCardOff,"ax",%progbits
 607              		.align	1
 608              		.global	NFC_WaitCardOff
 609              		.syntax unified
 610              		.thumb
 611              		.thumb_func
ARM GAS  C:\Users\24120\AppData\Local\Temp\ccaaYZuv.s 			page 23


 613              	NFC_WaitCardOff:
 614              	.LFB248:
  81:BSP/NFC.c     ****     RC522_WaitCardOff();
 615              		.loc 1 81 1 is_stmt 1 view -0
 616              		.cfi_startproc
 617              		@ args = 0, pretend = 0, frame = 0
 618              		@ frame_needed = 0, uses_anonymous_args = 0
 619 0000 08B5     		push	{r3, lr}
 620              	.LCFI11:
 621              		.cfi_def_cfa_offset 8
 622              		.cfi_offset 3, -8
 623              		.cfi_offset 14, -4
  82:BSP/NFC.c     **** }
 624              		.loc 1 82 5 view .LVU146
 625 0002 FFF7FEFF 		bl	RC522_WaitCardOff
 626              	.LVL63:
  83:BSP/NFC.c     **** 
 627              		.loc 1 83 1 is_stmt 0 view .LVU147
 628 0006 08BD     		pop	{r3, pc}
 629              		.cfi_endproc
 630              	.LFE248:
 632              		.section	.text.NFC_Recover,"ax",%progbits
 633              		.align	1
 634              		.global	NFC_Recover
 635              		.syntax unified
 636              		.thumb
 637              		.thumb_func
 639              	NFC_Recover:
 640              	.LFB249:
  92:BSP/NFC.c     ****     RC522_Reset();                 /* RST 引脚脉冲 + CMD_RESETPHASE 软复位 */
 641              		.loc 1 92 1 is_stmt 1 view -0
 642              		.cfi_startproc
 643              		@ args = 0, pretend = 0, frame = 0
 644              		@ frame_needed = 0, uses_anonymous_args = 0
 645 0000 08B5     		push	{r3, lr}
 646              	.LCFI12:
 647              		.cfi_def_cfa_offset 8
 648              		.cfi_offset 3, -8
 649              		.cfi_offset 14, -4
  93:BSP/NFC.c     ****     osDelay(10);
 650              		.loc 1 93 5 view .LVU149
 651 0002 FFF7FEFF 		bl	RC522_Reset
 652              	.LVL64:
  94:BSP/NFC.c     ****     RC522_ConfigISOType('A');      /* 重配置 ISO14443A, 自动开天线 */
 653              		.loc 1 94 5 view .LVU150
 654 0006 0A20     		movs	r0, #10
 655 0008 FFF7FEFF 		bl	osDelay
 656              	.LVL65:
  95:BSP/NFC.c     **** }
 657              		.loc 1 95 5 view .LVU151
 658 000c 4120     		movs	r0, #65
 659 000e FFF7FEFF 		bl	RC522_ConfigISOType
 660              	.LVL66:
  96:BSP/NFC.c     **** 
 661              		.loc 1 96 1 is_stmt 0 view .LVU152
 662 0012 08BD     		pop	{r3, pc}
 663              		.cfi_endproc
ARM GAS  C:\Users\24120\AppData\Local\Temp\ccaaYZuv.s 			page 24


 664              	.LFE249:
 666              		.section	.rodata.NFC_CmdIssue.str1.4,"aMS",%progbits,1
 667              		.align	2
 668              	.LC8:
 669 0000 4552523A 		.ascii	"ERR:PARSE\012\000"
 669      50415253 
 669      450A00
 670 000b 00       		.align	2
 671              	.LC9:
 672 000c 25782C25 		.ascii	"%x,%u,%u,%d\000"
 672      752C2575 
 672      2C256400 
 673              		.section	.text.NFC_CmdIssue,"ax",%progbits
 674              		.align	1
 675              		.syntax unified
 676              		.thumb
 677              		.thumb_func
 679              	NFC_CmdIssue:
 680              	.LVL67:
 681              	.LFB265:
 433:BSP/NFC.c     ****     uint32_t cardId, sid, points;
 682              		.loc 1 433 1 is_stmt 1 view -0
 683              		.cfi_startproc
 684              		@ args = 0, pretend = 0, frame = 40
 685              		@ frame_needed = 0, uses_anonymous_args = 0
 433:BSP/NFC.c     ****     uint32_t cardId, sid, points;
 686              		.loc 1 433 1 is_stmt 0 view .LVU154
 687 0000 00B5     		push	{lr}
 688              	.LCFI13:
 689              		.cfi_def_cfa_offset 4
 690              		.cfi_offset 14, -4
 691 0002 8DB0     		sub	sp, sp, #52
 692              	.LCFI14:
 693              		.cfi_def_cfa_offset 56
 434:BSP/NFC.c     ****     int      cardType;
 694              		.loc 1 434 5 is_stmt 1 view .LVU155
 435:BSP/NFC.c     ****     uint8_t  blockData[16];
 695              		.loc 1 435 5 view .LVU156
 436:BSP/NFC.c     ****     uint8_t  uid[4];
 696              		.loc 1 436 5 view .LVU157
 437:BSP/NFC.c     ****     char     status;
 697              		.loc 1 437 5 view .LVU158
 438:BSP/NFC.c     **** 
 698              		.loc 1 438 5 view .LVU159
 440:BSP/NFC.c     ****         return "ERR:PARSE\n";
 699              		.loc 1 440 5 view .LVU160
 440:BSP/NFC.c     ****         return "ERR:PARSE\n";
 700              		.loc 1 440 9 is_stmt 0 view .LVU161
 701 0004 08AB     		add	r3, sp, #32
 702 0006 0193     		str	r3, [sp, #4]
 703 0008 09AB     		add	r3, sp, #36
 704 000a 0093     		str	r3, [sp]
 705 000c 0AAB     		add	r3, sp, #40
 706 000e 0BAA     		add	r2, sp, #44
 707 0010 3E49     		ldr	r1, .L65
 708 0012 FFF7FEFF 		bl	sscanf
 709              	.LVL68:
ARM GAS  C:\Users\24120\AppData\Local\Temp\ccaaYZuv.s 			page 25


 440:BSP/NFC.c     ****         return "ERR:PARSE\n";
 710              		.loc 1 440 8 discriminator 1 view .LVU162
 711 0016 0328     		cmp	r0, #3
 712 0018 73DD     		ble	.L57
 443:BSP/NFC.c     **** 
 713              		.loc 1 443 5 is_stmt 1 view .LVU163
 443:BSP/NFC.c     **** 
 714              		.loc 1 443 22 is_stmt 0 view .LVU164
 715 001a 089B     		ldr	r3, [sp, #32]
 443:BSP/NFC.c     **** 
 716              		.loc 1 443 8 view .LVU165
 717 001c 022B     		cmp	r3, #2
 718 001e 01D9     		bls	.L61
 443:BSP/NFC.c     **** 
 719              		.loc 1 443 46 discriminator 1 view .LVU166
 720 0020 3B48     		ldr	r0, .L65+4
 721 0022 6FE0     		b	.L51
 722              	.L61:
 446:BSP/NFC.c     ****     osDelay(2);
 723              		.loc 1 446 5 is_stmt 1 view .LVU167
 724 0024 FFF7FEFF 		bl	RC522_Halt
 725              	.LVL69:
 447:BSP/NFC.c     ****     status = RC522_ScanCard(uid);
 726              		.loc 1 447 5 view .LVU168
 727 0028 0220     		movs	r0, #2
 728 002a FFF7FEFF 		bl	osDelay
 729              	.LVL70:
 448:BSP/NFC.c     ****     if (status != RC522_OK) return "ERR:NOCARD\n";
 730              		.loc 1 448 5 view .LVU169
 448:BSP/NFC.c     ****     if (status != RC522_OK) return "ERR:NOCARD\n";
 731              		.loc 1 448 14 is_stmt 0 view .LVU170
 732 002e 03A8     		add	r0, sp, #12
 733 0030 FFF7FEFF 		bl	RC522_ScanCard
 734              	.LVL71:
 449:BSP/NFC.c     **** 
 735              		.loc 1 449 5 is_stmt 1 view .LVU171
 449:BSP/NFC.c     **** 
 736              		.loc 1 449 8 is_stmt 0 view .LVU172
 737 0034 08B1     		cbz	r0, .L62
 449:BSP/NFC.c     **** 
 738              		.loc 1 449 36 discriminator 1 view .LVU173
 739 0036 3748     		ldr	r0, .L65+8
 740              	.LVL72:
 449:BSP/NFC.c     **** 
 741              		.loc 1 449 36 discriminator 1 view .LVU174
 742 0038 64E0     		b	.L51
 743              	.LVL73:
 744              	.L62:
 452:BSP/NFC.c     ****     blockData[0]  = (uint8_t)(cardId);
 745              		.loc 1 452 5 is_stmt 1 view .LVU175
 746 003a 0023     		movs	r3, #0
 747 003c 0493     		str	r3, [sp, #16]
 748 003e 0593     		str	r3, [sp, #20]
 749 0040 0693     		str	r3, [sp, #24]
 750 0042 0793     		str	r3, [sp, #28]
 453:BSP/NFC.c     ****     blockData[1]  = (uint8_t)(cardId >> 8);
 751              		.loc 1 453 5 view .LVU176
ARM GAS  C:\Users\24120\AppData\Local\Temp\ccaaYZuv.s 			page 26


 453:BSP/NFC.c     ****     blockData[1]  = (uint8_t)(cardId >> 8);
 752              		.loc 1 453 21 is_stmt 0 view .LVU177
 753 0044 0B9A     		ldr	r2, [sp, #44]
 453:BSP/NFC.c     ****     blockData[1]  = (uint8_t)(cardId >> 8);
 754              		.loc 1 453 19 view .LVU178
 755 0046 8DF81020 		strb	r2, [sp, #16]
 454:BSP/NFC.c     ****     blockData[2]  = (uint8_t)(cardId >> 16);
 756              		.loc 1 454 5 is_stmt 1 view .LVU179
 454:BSP/NFC.c     ****     blockData[2]  = (uint8_t)(cardId >> 16);
 757              		.loc 1 454 21 is_stmt 0 view .LVU180
 758 004a C2F30721 		ubfx	r1, r2, #8, #8
 454:BSP/NFC.c     ****     blockData[2]  = (uint8_t)(cardId >> 16);
 759              		.loc 1 454 19 view .LVU181
 760 004e 8DF81110 		strb	r1, [sp, #17]
 455:BSP/NFC.c     ****     blockData[3]  = (uint8_t)(cardId >> 24);
 761              		.loc 1 455 5 is_stmt 1 view .LVU182
 455:BSP/NFC.c     ****     blockData[3]  = (uint8_t)(cardId >> 24);
 762              		.loc 1 455 21 is_stmt 0 view .LVU183
 763 0052 C2F30741 		ubfx	r1, r2, #16, #8
 455:BSP/NFC.c     ****     blockData[3]  = (uint8_t)(cardId >> 24);
 764              		.loc 1 455 19 view .LVU184
 765 0056 8DF81210 		strb	r1, [sp, #18]
 456:BSP/NFC.c     ****     blockData[4]  = (uint8_t)(sid);
 766              		.loc 1 456 5 is_stmt 1 view .LVU185
 456:BSP/NFC.c     ****     blockData[4]  = (uint8_t)(sid);
 767              		.loc 1 456 21 is_stmt 0 view .LVU186
 768 005a 120E     		lsrs	r2, r2, #24
 456:BSP/NFC.c     ****     blockData[4]  = (uint8_t)(sid);
 769              		.loc 1 456 19 view .LVU187
 770 005c 8DF81320 		strb	r2, [sp, #19]
 457:BSP/NFC.c     ****     blockData[5]  = (uint8_t)(sid >> 8);
 771              		.loc 1 457 5 is_stmt 1 view .LVU188
 457:BSP/NFC.c     ****     blockData[5]  = (uint8_t)(sid >> 8);
 772              		.loc 1 457 21 is_stmt 0 view .LVU189
 773 0060 0A9A     		ldr	r2, [sp, #40]
 457:BSP/NFC.c     ****     blockData[5]  = (uint8_t)(sid >> 8);
 774              		.loc 1 457 19 view .LVU190
 775 0062 8DF81420 		strb	r2, [sp, #20]
 458:BSP/NFC.c     ****     blockData[6]  = (uint8_t)(sid >> 16);
 776              		.loc 1 458 5 is_stmt 1 view .LVU191
 458:BSP/NFC.c     ****     blockData[6]  = (uint8_t)(sid >> 16);
 777              		.loc 1 458 21 is_stmt 0 view .LVU192
 778 0066 C2F30721 		ubfx	r1, r2, #8, #8
 458:BSP/NFC.c     ****     blockData[6]  = (uint8_t)(sid >> 16);
 779              		.loc 1 458 19 view .LVU193
 780 006a 8DF81510 		strb	r1, [sp, #21]
 459:BSP/NFC.c     ****     blockData[7]  = (uint8_t)(sid >> 24);
 781              		.loc 1 459 5 is_stmt 1 view .LVU194
 459:BSP/NFC.c     ****     blockData[7]  = (uint8_t)(sid >> 24);
 782              		.loc 1 459 21 is_stmt 0 view .LVU195
 783 006e C2F30741 		ubfx	r1, r2, #16, #8
 459:BSP/NFC.c     ****     blockData[7]  = (uint8_t)(sid >> 24);
 784              		.loc 1 459 19 view .LVU196
 785 0072 8DF81610 		strb	r1, [sp, #22]
 460:BSP/NFC.c     ****     blockData[8]  = (uint8_t)(points);
 786              		.loc 1 460 5 is_stmt 1 view .LVU197
 460:BSP/NFC.c     ****     blockData[8]  = (uint8_t)(points);
ARM GAS  C:\Users\24120\AppData\Local\Temp\ccaaYZuv.s 			page 27


 787              		.loc 1 460 21 is_stmt 0 view .LVU198
 788 0076 120E     		lsrs	r2, r2, #24
 460:BSP/NFC.c     ****     blockData[8]  = (uint8_t)(points);
 789              		.loc 1 460 19 view .LVU199
 790 0078 8DF81720 		strb	r2, [sp, #23]
 461:BSP/NFC.c     ****     blockData[9]  = (uint8_t)(points >> 8);
 791              		.loc 1 461 5 is_stmt 1 view .LVU200
 461:BSP/NFC.c     ****     blockData[9]  = (uint8_t)(points >> 8);
 792              		.loc 1 461 21 is_stmt 0 view .LVU201
 793 007c 099A     		ldr	r2, [sp, #36]
 461:BSP/NFC.c     ****     blockData[9]  = (uint8_t)(points >> 8);
 794              		.loc 1 461 19 view .LVU202
 795 007e 8DF81820 		strb	r2, [sp, #24]
 462:BSP/NFC.c     ****     blockData[10] = (uint8_t)(points >> 16);
 796              		.loc 1 462 5 is_stmt 1 view .LVU203
 462:BSP/NFC.c     ****     blockData[10] = (uint8_t)(points >> 16);
 797              		.loc 1 462 21 is_stmt 0 view .LVU204
 798 0082 C2F30721 		ubfx	r1, r2, #8, #8
 462:BSP/NFC.c     ****     blockData[10] = (uint8_t)(points >> 16);
 799              		.loc 1 462 19 view .LVU205
 800 0086 8DF81910 		strb	r1, [sp, #25]
 463:BSP/NFC.c     ****     blockData[11] = (uint8_t)(points >> 24);
 801              		.loc 1 463 5 is_stmt 1 view .LVU206
 463:BSP/NFC.c     ****     blockData[11] = (uint8_t)(points >> 24);
 802              		.loc 1 463 21 is_stmt 0 view .LVU207
 803 008a C2F30741 		ubfx	r1, r2, #16, #8
 463:BSP/NFC.c     ****     blockData[11] = (uint8_t)(points >> 24);
 804              		.loc 1 463 19 view .LVU208
 805 008e 8DF81A10 		strb	r1, [sp, #26]
 464:BSP/NFC.c     ****     blockData[12] = (uint8_t)cardType;
 806              		.loc 1 464 5 is_stmt 1 view .LVU209
 464:BSP/NFC.c     ****     blockData[12] = (uint8_t)cardType;
 807              		.loc 1 464 21 is_stmt 0 view .LVU210
 808 0092 120E     		lsrs	r2, r2, #24
 464:BSP/NFC.c     ****     blockData[12] = (uint8_t)cardType;
 809              		.loc 1 464 19 view .LVU211
 810 0094 8DF81B20 		strb	r2, [sp, #27]
 465:BSP/NFC.c     ****     blockData[13] = 0x00;  /* statusFlag: 正常 */
 811              		.loc 1 465 5 is_stmt 1 view .LVU212
 465:BSP/NFC.c     ****     blockData[13] = 0x00;  /* statusFlag: 正常 */
 812              		.loc 1 465 21 is_stmt 0 view .LVU213
 813 0098 9DF82020 		ldrb	r2, [sp, #32]	@ zero_extendqisi2
 465:BSP/NFC.c     ****     blockData[13] = 0x00;  /* statusFlag: 正常 */
 814              		.loc 1 465 19 view .LVU214
 815 009c 8DF81C20 		strb	r2, [sp, #28]
 466:BSP/NFC.c     **** 
 816              		.loc 1 466 5 is_stmt 1 view .LVU215
 469:BSP/NFC.c     ****     for (int i = 0; i < 14; i++) sum += blockData[i];
 817              		.loc 1 469 5 view .LVU216
 818              	.LVL74:
 470:BSP/NFC.c     ****     blockData[14] = (uint8_t)(sum);
 819              		.loc 1 470 5 view .LVU217
 820              	.LBB10:
 470:BSP/NFC.c     ****     blockData[14] = (uint8_t)(sum);
 821              		.loc 1 470 10 view .LVU218
 470:BSP/NFC.c     ****     blockData[14] = (uint8_t)(sum);
 822              		.loc 1 470 14 is_stmt 0 view .LVU219
ARM GAS  C:\Users\24120\AppData\Local\Temp\ccaaYZuv.s 			page 28


 823 00a0 1A46     		mov	r2, r3
 470:BSP/NFC.c     ****     blockData[14] = (uint8_t)(sum);
 824              		.loc 1 470 5 view .LVU220
 825 00a2 07E0     		b	.L53
 826              	.LVL75:
 827              	.L54:
 470:BSP/NFC.c     ****     blockData[14] = (uint8_t)(sum);
 828              		.loc 1 470 34 is_stmt 1 discriminator 3 view .LVU221
 470:BSP/NFC.c     ****     blockData[14] = (uint8_t)(sum);
 829              		.loc 1 470 50 is_stmt 0 discriminator 3 view .LVU222
 830 00a4 02F13001 		add	r1, r2, #48
 831 00a8 6944     		add	r1, sp, r1
 832 00aa 11F8201C 		ldrb	r1, [r1, #-32]	@ zero_extendqisi2
 470:BSP/NFC.c     ****     blockData[14] = (uint8_t)(sum);
 833              		.loc 1 470 38 discriminator 3 view .LVU223
 834 00ae 0B44     		add	r3, r3, r1
 835              	.LVL76:
 470:BSP/NFC.c     ****     blockData[14] = (uint8_t)(sum);
 836              		.loc 1 470 38 discriminator 3 view .LVU224
 837 00b0 9BB2     		uxth	r3, r3
 838              	.LVL77:
 470:BSP/NFC.c     ****     blockData[14] = (uint8_t)(sum);
 839              		.loc 1 470 30 is_stmt 1 discriminator 3 view .LVU225
 840 00b2 0132     		adds	r2, r2, #1
 841              	.LVL78:
 842              	.L53:
 470:BSP/NFC.c     ****     blockData[14] = (uint8_t)(sum);
 843              		.loc 1 470 23 discriminator 1 view .LVU226
 844 00b4 0D2A     		cmp	r2, #13
 845 00b6 F5DD     		ble	.L54
 846              	.LBE10:
 471:BSP/NFC.c     ****     blockData[15] = (uint8_t)(sum >> 8);
 847              		.loc 1 471 5 view .LVU227
 471:BSP/NFC.c     ****     blockData[15] = (uint8_t)(sum >> 8);
 848              		.loc 1 471 19 is_stmt 0 view .LVU228
 849 00b8 8DF81E30 		strb	r3, [sp, #30]
 472:BSP/NFC.c     **** 
 850              		.loc 1 472 5 is_stmt 1 view .LVU229
 472:BSP/NFC.c     **** 
 851              		.loc 1 472 21 is_stmt 0 view .LVU230
 852 00bc 1B0A     		lsrs	r3, r3, #8
 853              	.LVL79:
 472:BSP/NFC.c     **** 
 854              		.loc 1 472 19 view .LVU231
 855 00be 8DF81F30 		strb	r3, [sp, #31]
 475:BSP/NFC.c     ****     if (status != RC522_OK) { NFC_Recover(); return "ERR:AUTH\n"; }
 856              		.loc 1 475 5 is_stmt 1 view .LVU232
 475:BSP/NFC.c     ****     if (status != RC522_OK) { NFC_Recover(); return "ERR:AUTH\n"; }
 857              		.loc 1 475 14 is_stmt 0 view .LVU233
 858 00c2 03AB     		add	r3, sp, #12
 859 00c4 144A     		ldr	r2, .L65+12
 860              	.LVL80:
 475:BSP/NFC.c     ****     if (status != RC522_OK) { NFC_Recover(); return "ERR:AUTH\n"; }
 861              		.loc 1 475 14 view .LVU234
 862 00c6 0321     		movs	r1, #3
 863 00c8 6020     		movs	r0, #96
 864              	.LVL81:
ARM GAS  C:\Users\24120\AppData\Local\Temp\ccaaYZuv.s 			page 29


 475:BSP/NFC.c     ****     if (status != RC522_OK) { NFC_Recover(); return "ERR:AUTH\n"; }
 865              		.loc 1 475 14 view .LVU235
 866 00ca FFF7FEFF 		bl	RC522_AuthState
 867              	.LVL82:
 476:BSP/NFC.c     **** 
 868              		.loc 1 476 5 is_stmt 1 view .LVU236
 476:BSP/NFC.c     **** 
 869              		.loc 1 476 8 is_stmt 0 view .LVU237
 870 00ce 80B9     		cbnz	r0, .L63
 478:BSP/NFC.c     ****     if (status != RC522_OK) { NFC_Recover(); return "ERR:WRITE_B1\n"; }
 871              		.loc 1 478 5 is_stmt 1 view .LVU238
 478:BSP/NFC.c     ****     if (status != RC522_OK) { NFC_Recover(); return "ERR:WRITE_B1\n"; }
 872              		.loc 1 478 14 is_stmt 0 view .LVU239
 873 00d0 04AA     		add	r2, sp, #16
 874 00d2 0121     		movs	r1, #1
 875 00d4 0020     		movs	r0, #0
 876              	.LVL83:
 478:BSP/NFC.c     ****     if (status != RC522_OK) { NFC_Recover(); return "ERR:WRITE_B1\n"; }
 877              		.loc 1 478 14 view .LVU240
 878 00d6 FFF7FEFF 		bl	RC522_WriteBlock
 879              	.LVL84:
 479:BSP/NFC.c     **** 
 880              		.loc 1 479 5 is_stmt 1 view .LVU241
 479:BSP/NFC.c     **** 
 881              		.loc 1 479 8 is_stmt 0 view .LVU242
 882 00da 70B9     		cbnz	r0, .L64
 482:BSP/NFC.c     **** 
 883              		.loc 1 482 5 is_stmt 1 view .LVU243
 884 00dc FFF7FEFF 		bl	RC522_Halt
 885              	.LVL85:
 485:BSP/NFC.c     ****     UIDToStr(uid, s_lastUIDStr);
 886              		.loc 1 485 5 view .LVU244
 887 00e0 0E4B     		ldr	r3, .L65+16
 888 00e2 039A     		ldr	r2, [sp, #12]
 889 00e4 1A60     		str	r2, [r3]
 486:BSP/NFC.c     **** 
 890              		.loc 1 486 5 view .LVU245
 891 00e6 0E49     		ldr	r1, .L65+20
 892 00e8 03A8     		add	r0, sp, #12
 893 00ea FFF7FEFF 		bl	UIDToStr
 894              	.LVL86:
 488:BSP/NFC.c     **** }
 895              		.loc 1 488 5 view .LVU246
 488:BSP/NFC.c     **** }
 896              		.loc 1 488 12 is_stmt 0 view .LVU247
 897 00ee 0D48     		ldr	r0, .L65+24
 898 00f0 08E0     		b	.L51
 899              	.LVL87:
 900              	.L63:
 476:BSP/NFC.c     **** 
 901              		.loc 1 476 31 is_stmt 1 discriminator 1 view .LVU248
 902 00f2 FFF7FEFF 		bl	NFC_Recover
 903              	.LVL88:
 476:BSP/NFC.c     **** 
 904              		.loc 1 476 46 discriminator 1 view .LVU249
 476:BSP/NFC.c     **** 
 905              		.loc 1 476 53 is_stmt 0 discriminator 1 view .LVU250
ARM GAS  C:\Users\24120\AppData\Local\Temp\ccaaYZuv.s 			page 30


 906 00f6 0C48     		ldr	r0, .L65+28
 476:BSP/NFC.c     **** 
 907              		.loc 1 476 53 view .LVU251
 908 00f8 04E0     		b	.L51
 909              	.LVL89:
 910              	.L64:
 479:BSP/NFC.c     **** 
 911              		.loc 1 479 31 is_stmt 1 discriminator 1 view .LVU252
 912 00fa FFF7FEFF 		bl	NFC_Recover
 913              	.LVL90:
 479:BSP/NFC.c     **** 
 914              		.loc 1 479 46 discriminator 1 view .LVU253
 479:BSP/NFC.c     **** 
 915              		.loc 1 479 53 is_stmt 0 discriminator 1 view .LVU254
 916 00fe 0B48     		ldr	r0, .L65+32
 479:BSP/NFC.c     **** 
 917              		.loc 1 479 53 view .LVU255
 918 0100 00E0     		b	.L51
 919              	.LVL91:
 920              	.L57:
 441:BSP/NFC.c     ****     }
 921              		.loc 1 441 16 view .LVU256
 922 0102 0348     		ldr	r0, .L65+4
 923              	.L51:
 489:BSP/NFC.c     **** 
 924              		.loc 1 489 1 view .LVU257
 925 0104 0DB0     		add	sp, sp, #52
 926              	.LCFI15:
 927              		.cfi_def_cfa_offset 4
 928              		@ sp needed
 929 0106 5DF804FB 		ldr	pc, [sp], #4
 930              	.L66:
 931 010a 00BF     		.align	2
 932              	.L65:
 933 010c 0C000000 		.word	.LC9
 934 0110 00000000 		.word	.LC8
 935 0114 00000000 		.word	.LC4
 936 0118 00000000 		.word	s_defaultKey
 937 011c 00000000 		.word	s_lastUID
 938 0120 00000000 		.word	s_lastUIDStr
 939 0124 20000000 		.word	.LC2
 940 0128 0C000000 		.word	.LC5
 941 012c 18000000 		.word	.LC6
 942              		.cfi_endproc
 943              	.LFE265:
 945              		.section	.text.NFC_ReadCard,"ax",%progbits
 946              		.align	1
 947              		.global	NFC_ReadCard
 948              		.syntax unified
 949              		.thumb
 950              		.thumb_func
 952              	NFC_ReadCard:
 953              	.LVL92:
 954              	.LFB250:
 109:BSP/NFC.c     ****     char    status;
 955              		.loc 1 109 1 is_stmt 1 view -0
 956              		.cfi_startproc
ARM GAS  C:\Users\24120\AppData\Local\Temp\ccaaYZuv.s 			page 31


 957              		@ args = 0, pretend = 0, frame = 24
 958              		@ frame_needed = 0, uses_anonymous_args = 0
 109:BSP/NFC.c     ****     char    status;
 959              		.loc 1 109 1 is_stmt 0 view .LVU259
 960 0000 F0B5     		push	{r4, r5, r6, r7, lr}
 961              	.LCFI16:
 962              		.cfi_def_cfa_offset 20
 963              		.cfi_offset 4, -20
 964              		.cfi_offset 5, -16
 965              		.cfi_offset 6, -12
 966              		.cfi_offset 7, -8
 967              		.cfi_offset 14, -4
 968 0002 87B0     		sub	sp, sp, #28
 969              	.LCFI17:
 970              		.cfi_def_cfa_offset 48
 110:BSP/NFC.c     ****     uint8_t blockData[NFC_BLOCK_SIZE];
 971              		.loc 1 110 5 is_stmt 1 view .LVU260
 111:BSP/NFC.c     ****     int     readOk = 0;
 972              		.loc 1 111 5 view .LVU261
 112:BSP/NFC.c     **** 
 973              		.loc 1 112 5 view .LVU262
 974              	.LVL93:
 114:BSP/NFC.c     ****         return NFC_EVT_INVALID;
 975              		.loc 1 114 5 view .LVU263
 114:BSP/NFC.c     ****         return NFC_EVT_INVALID;
 976              		.loc 1 114 8 is_stmt 0 view .LVU264
 977 0004 0029     		cmp	r1, #0
 978 0006 00F03382 		beq	.L123
 979 000a 0D46     		mov	r5, r1
 114:BSP/NFC.c     ****         return NFC_EVT_INVALID;
 980              		.loc 1 114 25 discriminator 1 view .LVU265
 981 000c 0028     		cmp	r0, #0
 982 000e 00F03182 		beq	.L124
 119:BSP/NFC.c     ****     memcpy(outCard->uid, uid, 4);
 983              		.loc 1 119 5 is_stmt 1 view .LVU266
 984 0012 0024     		movs	r4, #0
 985 0014 0C60     		str	r4, [r1]	@ unaligned
 986 0016 4C60     		str	r4, [r1, #4]	@ unaligned
 987 0018 8C60     		str	r4, [r1, #8]	@ unaligned
 988 001a CC60     		str	r4, [r1, #12]	@ unaligned
 989 001c 0C61     		str	r4, [r1, #16]	@ unaligned
 990 001e 4C61     		str	r4, [r1, #20]	@ unaligned
 991 0020 8C61     		str	r4, [r1, #24]	@ unaligned
 120:BSP/NFC.c     **** 
 992              		.loc 1 120 5 view .LVU267
 993 0022 0368     		ldr	r3, [r0]	@ unaligned
 994 0024 0846     		mov	r0, r1
 995              	.LVL94:
 120:BSP/NFC.c     **** 
 996              		.loc 1 120 5 is_stmt 0 view .LVU268
 997 0026 40F8123B 		str	r3, [r0], #18	@ unaligned
 123:BSP/NFC.c     **** 
 998              		.loc 1 123 5 is_stmt 1 view .LVU269
 999 002a FFF7FEFF 		bl	BSP_RTC_GetDateTime
 1000              	.LVL95:
 126:BSP/NFC.c     ****         if (retry > 0) {
 1001              		.loc 1 126 5 view .LVU270
ARM GAS  C:\Users\24120\AppData\Local\Temp\ccaaYZuv.s 			page 32


 1002              	.LBB11:
 126:BSP/NFC.c     ****         if (retry > 0) {
 1003              		.loc 1 126 10 view .LVU271
 126:BSP/NFC.c     ****         if (retry > 0) {
 1004              		.loc 1 126 5 is_stmt 0 view .LVU272
 1005 002e 00E0     		b	.L69
 1006              	.LVL96:
 1007              	.L72:
 126:BSP/NFC.c     ****         if (retry > 0) {
 1008              		.loc 1 126 54 is_stmt 1 discriminator 2 view .LVU273
 1009 0030 0134     		adds	r4, r4, #1
 1010              	.LVL97:
 1011              	.L69:
 126:BSP/NFC.c     ****         if (retry > 0) {
 1012              		.loc 1 126 31 discriminator 1 view .LVU274
 1013 0032 022C     		cmp	r4, #2
 1014 0034 1BDC     		bgt	.L146
 127:BSP/NFC.c     ****             /* 重试前先 Halt + 重新寻卡 */
 1015              		.loc 1 127 9 view .LVU275
 127:BSP/NFC.c     ****             /* 重试前先 Halt + 重新寻卡 */
 1016              		.loc 1 127 12 is_stmt 0 view .LVU276
 1017 0036 002C     		cmp	r4, #0
 1018 0038 09DD     		ble	.L70
 1019              	.LBB12:
 129:BSP/NFC.c     ****             osDelay(5);
 1020              		.loc 1 129 13 is_stmt 1 view .LVU277
 1021 003a FFF7FEFF 		bl	RC522_Halt
 1022              	.LVL98:
 130:BSP/NFC.c     ****             uint8_t reUID[4];
 1023              		.loc 1 130 13 view .LVU278
 1024 003e 0520     		movs	r0, #5
 1025 0040 FFF7FEFF 		bl	osDelay
 1026              	.LVL99:
 131:BSP/NFC.c     ****             status = RC522_ScanCard(reUID);
 1027              		.loc 1 131 13 view .LVU279
 132:BSP/NFC.c     ****             if (status != RC522_OK) continue;
 1028              		.loc 1 132 13 view .LVU280
 132:BSP/NFC.c     ****             if (status != RC522_OK) continue;
 1029              		.loc 1 132 22 is_stmt 0 view .LVU281
 1030 0044 01A8     		add	r0, sp, #4
 1031 0046 FFF7FEFF 		bl	RC522_ScanCard
 1032              	.LVL100:
 133:BSP/NFC.c     ****         }
 1033              		.loc 1 133 13 is_stmt 1 view .LVU282
 133:BSP/NFC.c     ****         }
 1034              		.loc 1 133 16 is_stmt 0 view .LVU283
 1035 004a 0028     		cmp	r0, #0
 1036 004c F0D1     		bne	.L72
 1037              	.LVL101:
 1038              	.L70:
 133:BSP/NFC.c     ****         }
 1039              		.loc 1 133 16 view .LVU284
 1040              	.LBE12:
 137:BSP/NFC.c     ****                                  3, (uint8_t *)s_defaultKey, outCard->uid);
 1041              		.loc 1 137 9 is_stmt 1 view .LVU285
 137:BSP/NFC.c     ****                                  3, (uint8_t *)s_defaultKey, outCard->uid);
 1042              		.loc 1 137 18 is_stmt 0 view .LVU286
ARM GAS  C:\Users\24120\AppData\Local\Temp\ccaaYZuv.s 			page 33


 1043 004e 2B46     		mov	r3, r5
 1044 0050 9A4A     		ldr	r2, .L153
 1045 0052 0321     		movs	r1, #3
 1046 0054 6020     		movs	r0, #96
 1047 0056 FFF7FEFF 		bl	RC522_AuthState
 1048              	.LVL102:
 139:BSP/NFC.c     **** 
 1049              		.loc 1 139 9 is_stmt 1 view .LVU287
 139:BSP/NFC.c     **** 
 1050              		.loc 1 139 12 is_stmt 0 view .LVU288
 1051 005a 0028     		cmp	r0, #0
 1052 005c E8D1     		bne	.L72
 142:BSP/NFC.c     ****         if (status == RC522_OK) {
 1053              		.loc 1 142 9 is_stmt 1 view .LVU289
 142:BSP/NFC.c     ****         if (status == RC522_OK) {
 1054              		.loc 1 142 18 is_stmt 0 view .LVU290
 1055 005e 02AA     		add	r2, sp, #8
 1056 0060 0121     		movs	r1, #1
 1057 0062 FFF7FEFF 		bl	RC522_ReadBlock
 1058              	.LVL103:
 143:BSP/NFC.c     ****             readOk = 1;
 1059              		.loc 1 143 9 is_stmt 1 view .LVU291
 143:BSP/NFC.c     ****             readOk = 1;
 1060              		.loc 1 143 12 is_stmt 0 view .LVU292
 1061 0066 0028     		cmp	r0, #0
 1062 0068 E2D1     		bne	.L72
 144:BSP/NFC.c     ****             break;
 1063              		.loc 1 144 20 view .LVU293
 1064 006a 0123     		movs	r3, #1
 1065 006c 00E0     		b	.L73
 1066              	.LVL104:
 1067              	.L146:
 144:BSP/NFC.c     ****             break;
 1068              		.loc 1 144 20 view .LVU294
 1069              	.LBE11:
 112:BSP/NFC.c     **** 
 1070              		.loc 1 112 13 view .LVU295
 1071 006e 0023     		movs	r3, #0
 1072              	.L73:
 1073              	.LVL105:
 149:BSP/NFC.c     ****         return NFC_EVT_INVALID;
 1074              		.loc 1 149 5 is_stmt 1 view .LVU296
 149:BSP/NFC.c     ****         return NFC_EVT_INVALID;
 1075              		.loc 1 149 8 is_stmt 0 view .LVU297
 1076 0070 002B     		cmp	r3, #0
 1077 0072 00F00182 		beq	.L126
 1078              	.LBB13:
 155:BSP/NFC.c     ****         sum += blockData[i];
 1079              		.loc 1 155 14 view .LVU298
 1080 0076 0023     		movs	r3, #0
 1081              	.LVL106:
 155:BSP/NFC.c     ****         sum += blockData[i];
 1082              		.loc 1 155 14 view .LVU299
 1083              	.LBE13:
 154:BSP/NFC.c     ****     for (int i = 0; i < 14; i++) {
 1084              		.loc 1 154 14 view .LVU300
 1085 0078 1A46     		mov	r2, r3
ARM GAS  C:\Users\24120\AppData\Local\Temp\ccaaYZuv.s 			page 34


 1086              	.L75:
 1087              	.LVL107:
 1088              	.LBB14:
 155:BSP/NFC.c     ****         sum += blockData[i];
 1089              		.loc 1 155 23 is_stmt 1 discriminator 1 view .LVU301
 1090 007a 0D2B     		cmp	r3, #13
 1091 007c 08DC     		bgt	.L147
 156:BSP/NFC.c     ****     }
 1092              		.loc 1 156 9 view .LVU302
 156:BSP/NFC.c     ****     }
 1093              		.loc 1 156 25 is_stmt 0 view .LVU303
 1094 007e 03F11801 		add	r1, r3, #24
 1095 0082 6944     		add	r1, sp, r1
 1096 0084 11F8101C 		ldrb	r1, [r1, #-16]	@ zero_extendqisi2
 156:BSP/NFC.c     ****     }
 1097              		.loc 1 156 13 view .LVU304
 1098 0088 0A44     		add	r2, r2, r1
 1099              	.LVL108:
 156:BSP/NFC.c     ****     }
 1100              		.loc 1 156 13 view .LVU305
 1101 008a 92B2     		uxth	r2, r2
 1102              	.LVL109:
 155:BSP/NFC.c     ****         sum += blockData[i];
 1103              		.loc 1 155 30 is_stmt 1 discriminator 3 view .LVU306
 1104 008c 0133     		adds	r3, r3, #1
 1105              	.LVL110:
 155:BSP/NFC.c     ****         sum += blockData[i];
 1106              		.loc 1 155 30 is_stmt 0 discriminator 3 view .LVU307
 1107 008e F4E7     		b	.L75
 1108              	.LVL111:
 1109              	.L147:
 155:BSP/NFC.c     ****         sum += blockData[i];
 1110              		.loc 1 155 30 discriminator 3 view .LVU308
 1111              	.LBE14:
 158:BSP/NFC.c     **** 
 1112              		.loc 1 158 5 is_stmt 1 view .LVU309
 158:BSP/NFC.c     **** 
 1113              		.loc 1 158 34 is_stmt 0 view .LVU310
 1114 0090 9DF81630 		ldrb	r3, [sp, #22]	@ zero_extendqisi2
 1115              	.LVL112:
 158:BSP/NFC.c     **** 
 1116              		.loc 1 158 61 view .LVU311
 1117 0094 9DF81710 		ldrb	r1, [sp, #23]	@ zero_extendqisi2
 158:BSP/NFC.c     **** 
 1118              		.loc 1 158 14 view .LVU312
 1119 0098 43EA0123 		orr	r3, r3, r1, lsl #8
 1120              	.LVL113:
 160:BSP/NFC.c     **** 
 1121              		.loc 1 160 5 is_stmt 1 view .LVU313
 160:BSP/NFC.c     **** 
 1122              		.loc 1 160 36 is_stmt 0 view .LVU314
 1123 009c 9DF81510 		ldrb	r1, [sp, #21]	@ zero_extendqisi2
 160:BSP/NFC.c     **** 
 1124              		.loc 1 160 25 view .LVU315
 1125 00a0 6974     		strb	r1, [r5, #17]
 163:BSP/NFC.c     ****         return NFC_EVT_INVALID;
 1126              		.loc 1 163 5 is_stmt 1 view .LVU316
ARM GAS  C:\Users\24120\AppData\Local\Temp\ccaaYZuv.s 			page 35


 163:BSP/NFC.c     ****         return NFC_EVT_INVALID;
 1127              		.loc 1 163 8 is_stmt 0 view .LVU317
 1128 00a2 9A42     		cmp	r2, r3
 1129 00a4 40F0EA81 		bne	.L127
 163:BSP/NFC.c     ****         return NFC_EVT_INVALID;
 1130              		.loc 1 163 25 discriminator 1 view .LVU318
 1131 00a8 FF29     		cmp	r1, #255
 1132 00aa 00F0EB81 		beq	.L128
 168:BSP/NFC.c     ****                       ((uint32_t)blockData[1] << 8)  |
 1133              		.loc 1 168 5 is_stmt 1 view .LVU319
 168:BSP/NFC.c     ****                       ((uint32_t)blockData[1] << 8)  |
 1134              		.loc 1 168 43 is_stmt 0 view .LVU320
 1135 00ae 9DF80830 		ldrb	r3, [sp, #8]	@ zero_extendqisi2
 1136              	.LVL114:
 169:BSP/NFC.c     ****                       ((uint32_t)blockData[2] << 16) |
 1137              		.loc 1 169 43 view .LVU321
 1138 00b2 9DF80920 		ldrb	r2, [sp, #9]	@ zero_extendqisi2
 1139              	.LVL115:
 168:BSP/NFC.c     ****                       ((uint32_t)blockData[1] << 8)  |
 1140              		.loc 1 168 54 view .LVU322
 1141 00b6 43EA0223 		orr	r3, r3, r2, lsl #8
 170:BSP/NFC.c     ****                       ((uint32_t)blockData[3] << 24);
 1142              		.loc 1 170 43 view .LVU323
 1143 00ba 9DF80A20 		ldrb	r2, [sp, #10]	@ zero_extendqisi2
 169:BSP/NFC.c     ****                       ((uint32_t)blockData[2] << 16) |
 1144              		.loc 1 169 54 view .LVU324
 1145 00be 43EA0243 		orr	r3, r3, r2, lsl #16
 171:BSP/NFC.c     **** 
 1146              		.loc 1 171 43 view .LVU325
 1147 00c2 9DF80B20 		ldrb	r2, [sp, #11]	@ zero_extendqisi2
 170:BSP/NFC.c     ****                       ((uint32_t)blockData[3] << 24);
 1148              		.loc 1 170 54 view .LVU326
 1149 00c6 43EA0263 		orr	r3, r3, r2, lsl #24
 168:BSP/NFC.c     ****                       ((uint32_t)blockData[1] << 8)  |
 1150              		.loc 1 168 21 view .LVU327
 1151 00ca 6B60     		str	r3, [r5, #4]
 1152              	.LVL116:
 173:BSP/NFC.c     ****                       ((uint32_t)blockData[5] << 8)  |
 1153              		.loc 1 173 5 is_stmt 1 view .LVU328
 173:BSP/NFC.c     ****                       ((uint32_t)blockData[5] << 8)  |
 1154              		.loc 1 173 42 is_stmt 0 view .LVU329
 1155 00cc 9DF80C20 		ldrb	r2, [sp, #12]	@ zero_extendqisi2
 174:BSP/NFC.c     ****                       ((uint32_t)blockData[6] << 16) |
 1156              		.loc 1 174 43 view .LVU330
 1157 00d0 9DF80D10 		ldrb	r1, [sp, #13]	@ zero_extendqisi2
 173:BSP/NFC.c     ****                       ((uint32_t)blockData[5] << 8)  |
 1158              		.loc 1 173 53 view .LVU331
 1159 00d4 42EA0122 		orr	r2, r2, r1, lsl #8
 175:BSP/NFC.c     ****                       ((uint32_t)blockData[7] << 24);
 1160              		.loc 1 175 43 view .LVU332
 1161 00d8 9DF80E10 		ldrb	r1, [sp, #14]	@ zero_extendqisi2
 174:BSP/NFC.c     ****                       ((uint32_t)blockData[6] << 16) |
 1162              		.loc 1 174 54 view .LVU333
 1163 00dc 42EA0142 		orr	r2, r2, r1, lsl #16
 176:BSP/NFC.c     **** 
 1164              		.loc 1 176 43 view .LVU334
 1165 00e0 9DF80F10 		ldrb	r1, [sp, #15]	@ zero_extendqisi2
ARM GAS  C:\Users\24120\AppData\Local\Temp\ccaaYZuv.s 			page 36


 175:BSP/NFC.c     ****                       ((uint32_t)blockData[7] << 24);
 1166              		.loc 1 175 54 view .LVU335
 1167 00e4 42EA0162 		orr	r2, r2, r1, lsl #24
 173:BSP/NFC.c     ****                       ((uint32_t)blockData[5] << 8)  |
 1168              		.loc 1 173 20 view .LVU336
 1169 00e8 AA60     		str	r2, [r5, #8]
 178:BSP/NFC.c     ****                       ((uint32_t)blockData[9] << 8)  |
 1170              		.loc 1 178 5 is_stmt 1 view .LVU337
 178:BSP/NFC.c     ****                       ((uint32_t)blockData[9] << 8)  |
 1171              		.loc 1 178 43 is_stmt 0 view .LVU338
 1172 00ea 9DF81020 		ldrb	r2, [sp, #16]	@ zero_extendqisi2
 179:BSP/NFC.c     ****                       ((uint32_t)blockData[10] << 16) |
 1173              		.loc 1 179 43 view .LVU339
 1174 00ee 9DF81110 		ldrb	r1, [sp, #17]	@ zero_extendqisi2
 178:BSP/NFC.c     ****                       ((uint32_t)blockData[9] << 8)  |
 1175              		.loc 1 178 54 view .LVU340
 1176 00f2 42EA0122 		orr	r2, r2, r1, lsl #8
 180:BSP/NFC.c     ****                       ((uint32_t)blockData[11] << 24);
 1177              		.loc 1 180 43 view .LVU341
 1178 00f6 9DF81210 		ldrb	r1, [sp, #18]	@ zero_extendqisi2
 179:BSP/NFC.c     ****                       ((uint32_t)blockData[10] << 16) |
 1179              		.loc 1 179 54 view .LVU342
 1180 00fa 42EA0142 		orr	r2, r2, r1, lsl #16
 181:BSP/NFC.c     **** 
 1181              		.loc 1 181 43 view .LVU343
 1182 00fe 9DF81310 		ldrb	r1, [sp, #19]	@ zero_extendqisi2
 180:BSP/NFC.c     ****                       ((uint32_t)blockData[11] << 24);
 1183              		.loc 1 180 55 view .LVU344
 1184 0102 42EA0162 		orr	r2, r2, r1, lsl #24
 178:BSP/NFC.c     ****                       ((uint32_t)blockData[9] << 8)  |
 1185              		.loc 1 178 21 view .LVU345
 1186 0106 EA60     		str	r2, [r5, #12]
 183:BSP/NFC.c     **** 
 1187              		.loc 1 183 5 is_stmt 1 view .LVU346
 183:BSP/NFC.c     **** 
 1188              		.loc 1 183 34 is_stmt 0 view .LVU347
 1189 0108 9DF81420 		ldrb	r2, [sp, #20]	@ zero_extendqisi2
 183:BSP/NFC.c     **** 
 1190              		.loc 1 183 23 view .LVU348
 1191 010c 2A74     		strb	r2, [r5, #16]
 186:BSP/NFC.c     ****         return NFC_EVT_INVALID;
 1192              		.loc 1 186 5 is_stmt 1 view .LVU349
 186:BSP/NFC.c     ****         return NFC_EVT_INVALID;
 1193              		.loc 1 186 8 is_stmt 0 view .LVU350
 1194 010e 13B9     		cbnz	r3, .L77
 186:BSP/NFC.c     ****         return NFC_EVT_INVALID;
 1195              		.loc 1 186 30 discriminator 1 view .LVU351
 1196 0110 002A     		cmp	r2, #0
 1197 0112 00F0B981 		beq	.L129
 1198              	.L77:
 191:BSP/NFC.c     ****     switch (outCard->cardType) {
 1199              		.loc 1 191 5 is_stmt 1 view .LVU352
 192:BSP/NFC.c     ****     case 0x02:
 1200              		.loc 1 192 5 view .LVU353
 1201 0116 022A     		cmp	r2, #2
 1202 0118 00F0B881 		beq	.L130
 198:BSP/NFC.c     ****         break;
ARM GAS  C:\Users\24120\AppData\Local\Temp\ccaaYZuv.s 			page 37


 1203              		.loc 1 198 9 view .LVU354
 1204              	.LVL117:
 199:BSP/NFC.c     ****     }
 1205              		.loc 1 199 9 view .LVU355
 203:BSP/NFC.c     ****         DispCardBitmap_t *bm = DISP_GetBitmapBuf();
 1206              		.loc 1 203 5 view .LVU356
 1207              	.LBB15:
 204:BSP/NFC.c     ****         memset(bm, 0, sizeof(DispCardBitmap_t));
 1208              		.loc 1 204 9 view .LVU357
 204:BSP/NFC.c     ****         memset(bm, 0, sizeof(DispCardBitmap_t));
 1209              		.loc 1 204 32 is_stmt 0 view .LVU358
 1210 011c FFF7FEFF 		bl	DISP_GetBitmapBuf
 1211              	.LVL118:
 1212 0120 0446     		mov	r4, r0
 1213              	.LVL119:
 205:BSP/NFC.c     **** 
 1214              		.loc 1 205 9 is_stmt 1 view .LVU359
 1215 0122 40F2C122 		movw	r2, #705
 1216 0126 0021     		movs	r1, #0
 1217 0128 FFF7FEFF 		bl	memset
 1218              	.LVL120:
 208:BSP/NFC.c     ****         NFC_READ_SECTOR(10, bm->name, 48);
 1219              		.loc 1 208 9 view .LVU360
 1220              	.LBB16:
 208:BSP/NFC.c     ****         NFC_READ_SECTOR(10, bm->name, 48);
 1221              		.loc 1 208 9 view .LVU361
 208:BSP/NFC.c     ****         NFC_READ_SECTOR(10, bm->name, 48);
 1222              		.loc 1 208 9 view .LVU362
 1223 012c 2B46     		mov	r3, r5
 1224 012e 634A     		ldr	r2, .L153
 1225 0130 2721     		movs	r1, #39
 1226 0132 6020     		movs	r0, #96
 1227 0134 FFF7FEFF 		bl	RC522_AuthState
 1228              	.LVL121:
 208:BSP/NFC.c     ****         NFC_READ_SECTOR(10, bm->name, 48);
 1229              		.loc 1 208 9 discriminator 1 view .LVU363
 1230 0138 0028     		cmp	r0, #0
 1231 013a 60D0     		beq	.L131
 1232              	.LVL122:
 1233              	.L79:
 208:BSP/NFC.c     ****         NFC_READ_SECTOR(10, bm->name, 48);
 1234              		.loc 1 208 9 discriminator 6 view .LVU364
 1235 013c 0220     		movs	r0, #2
 1236 013e FFF7FEFF 		bl	osDelay
 1237              	.LVL123:
 1238              	.LBE16:
 208:BSP/NFC.c     ****         NFC_READ_SECTOR(10, bm->name, 48);
 1239              		.loc 1 208 9 discriminator 1 view .LVU365
 209:BSP/NFC.c     ****         NFC_READ_SECTOR(11, bm->name, 96);
 1240              		.loc 1 209 9 view .LVU366
 1241              	.LBB18:
 209:BSP/NFC.c     ****         NFC_READ_SECTOR(11, bm->name, 96);
 1242              		.loc 1 209 9 view .LVU367
 209:BSP/NFC.c     ****         NFC_READ_SECTOR(11, bm->name, 96);
 1243              		.loc 1 209 9 view .LVU368
 1244 0142 2B46     		mov	r3, r5
 1245 0144 5D4A     		ldr	r2, .L153
ARM GAS  C:\Users\24120\AppData\Local\Temp\ccaaYZuv.s 			page 38


 1246 0146 2B21     		movs	r1, #43
 1247 0148 6020     		movs	r0, #96
 1248 014a FFF7FEFF 		bl	RC522_AuthState
 1249              	.LVL124:
 209:BSP/NFC.c     ****         NFC_READ_SECTOR(11, bm->name, 96);
 1250              		.loc 1 209 9 discriminator 1 view .LVU369
 1251 014e 0028     		cmp	r0, #0
 1252 0150 64D0     		beq	.L132
 1253              	.LVL125:
 1254              	.L82:
 209:BSP/NFC.c     ****         NFC_READ_SECTOR(11, bm->name, 96);
 1255              		.loc 1 209 9 discriminator 6 view .LVU370
 1256 0152 0220     		movs	r0, #2
 1257 0154 FFF7FEFF 		bl	osDelay
 1258              	.LVL126:
 1259              	.LBE18:
 209:BSP/NFC.c     ****         NFC_READ_SECTOR(11, bm->name, 96);
 1260              		.loc 1 209 9 discriminator 1 view .LVU371
 210:BSP/NFC.c     ****         {
 1261              		.loc 1 210 9 view .LVU372
 1262              	.LBB20:
 210:BSP/NFC.c     ****         {
 1263              		.loc 1 210 9 view .LVU373
 210:BSP/NFC.c     ****         {
 1264              		.loc 1 210 9 view .LVU374
 1265 0158 2B46     		mov	r3, r5
 1266 015a 584A     		ldr	r2, .L153
 1267 015c 2F21     		movs	r1, #47
 1268 015e 6020     		movs	r0, #96
 1269 0160 FFF7FEFF 		bl	RC522_AuthState
 1270              	.LVL127:
 210:BSP/NFC.c     ****         {
 1271              		.loc 1 210 9 discriminator 1 view .LVU375
 1272 0164 0028     		cmp	r0, #0
 1273 0166 68D0     		beq	.L133
 1274              	.LVL128:
 1275              	.L85:
 210:BSP/NFC.c     ****         {
 1276              		.loc 1 210 9 discriminator 6 view .LVU376
 1277 0168 0220     		movs	r0, #2
 1278 016a FFF7FEFF 		bl	osDelay
 1279              	.LVL129:
 1280              	.LBE20:
 210:BSP/NFC.c     ****         {
 1281              		.loc 1 210 9 discriminator 1 view .LVU377
 1282              	.LBB22:
 212:BSP/NFC.c     ****                                        (uint8_t)(12 * 4 + 3),
 1283              		.loc 1 212 13 view .LVU378
 212:BSP/NFC.c     ****                                        (uint8_t)(12 * 4 + 3),
 1284              		.loc 1 212 24 is_stmt 0 view .LVU379
 1285 016e 2B46     		mov	r3, r5
 1286 0170 524A     		ldr	r2, .L153
 1287 0172 3321     		movs	r1, #51
 1288 0174 6020     		movs	r0, #96
 1289 0176 FFF7FEFF 		bl	RC522_AuthState
 1290              	.LVL130:
 215:BSP/NFC.c     ****                 RC522_ReadBlock(12, 0, bm->name + 144);
ARM GAS  C:\Users\24120\AppData\Local\Temp\ccaaYZuv.s 			page 39


 1291              		.loc 1 215 13 is_stmt 1 view .LVU380
 215:BSP/NFC.c     ****                 RC522_ReadBlock(12, 0, bm->name + 144);
 1292              		.loc 1 215 16 is_stmt 0 view .LVU381
 1293 017a 0028     		cmp	r0, #0
 1294 017c 5FD0     		beq	.L148
 1295              	.LVL131:
 1296              	.L87:
 215:BSP/NFC.c     ****                 RC522_ReadBlock(12, 0, bm->name + 144);
 1297              		.loc 1 215 16 view .LVU382
 1298              	.LBE22:
 219:BSP/NFC.c     **** 
 1299              		.loc 1 219 9 is_stmt 1 view .LVU383
 1300 017e 0220     		movs	r0, #2
 1301 0180 FFF7FEFF 		bl	osDelay
 1302              	.LVL132:
 1303              	.LBB23:
 223:BSP/NFC.c     ****                                        (uint8_t)(12 * 4 + 3),
 1304              		.loc 1 223 13 view .LVU384
 223:BSP/NFC.c     ****                                        (uint8_t)(12 * 4 + 3),
 1305              		.loc 1 223 24 is_stmt 0 view .LVU385
 1306 0184 2B46     		mov	r3, r5
 1307 0186 4D4A     		ldr	r2, .L153
 1308 0188 3321     		movs	r1, #51
 1309 018a 6020     		movs	r0, #96
 1310 018c FFF7FEFF 		bl	RC522_AuthState
 1311              	.LVL133:
 226:BSP/NFC.c     ****                 RC522_ReadBlock(12, 1, bm->dept + 0);
 1312              		.loc 1 226 13 is_stmt 1 view .LVU386
 226:BSP/NFC.c     ****                 RC522_ReadBlock(12, 1, bm->dept + 0);
 1313              		.loc 1 226 16 is_stmt 0 view .LVU387
 1314 0190 0028     		cmp	r0, #0
 1315 0192 5BD0     		beq	.L149
 1316              	.LVL134:
 1317              	.L88:
 226:BSP/NFC.c     ****                 RC522_ReadBlock(12, 1, bm->dept + 0);
 1318              		.loc 1 226 16 view .LVU388
 1319              	.LBE23:
 231:BSP/NFC.c     ****         NFC_READ_SECTOR(13, bm->dept, 32);
 1320              		.loc 1 231 9 is_stmt 1 view .LVU389
 1321 0194 0220     		movs	r0, #2
 1322 0196 FFF7FEFF 		bl	osDelay
 1323              	.LVL135:
 232:BSP/NFC.c     ****         NFC_READ_SECTOR(14, bm->dept, 80);
 1324              		.loc 1 232 9 view .LVU390
 1325              	.LBB24:
 232:BSP/NFC.c     ****         NFC_READ_SECTOR(14, bm->dept, 80);
 1326              		.loc 1 232 9 view .LVU391
 232:BSP/NFC.c     ****         NFC_READ_SECTOR(14, bm->dept, 80);
 1327              		.loc 1 232 9 view .LVU392
 1328 019a 2B46     		mov	r3, r5
 1329 019c 474A     		ldr	r2, .L153
 1330 019e 3721     		movs	r1, #55
 1331 01a0 6020     		movs	r0, #96
 1332 01a2 FFF7FEFF 		bl	RC522_AuthState
 1333              	.LVL136:
 232:BSP/NFC.c     ****         NFC_READ_SECTOR(14, bm->dept, 80);
 1334              		.loc 1 232 9 discriminator 1 view .LVU393
ARM GAS  C:\Users\24120\AppData\Local\Temp\ccaaYZuv.s 			page 40


 1335 01a6 0028     		cmp	r0, #0
 1336 01a8 6AD0     		beq	.L134
 1337              	.LVL137:
 1338              	.L90:
 232:BSP/NFC.c     ****         NFC_READ_SECTOR(14, bm->dept, 80);
 1339              		.loc 1 232 9 discriminator 6 view .LVU394
 1340 01aa 0220     		movs	r0, #2
 1341 01ac FFF7FEFF 		bl	osDelay
 1342              	.LVL138:
 1343              	.LBE24:
 232:BSP/NFC.c     ****         NFC_READ_SECTOR(14, bm->dept, 80);
 1344              		.loc 1 232 9 discriminator 1 view .LVU395
 233:BSP/NFC.c     ****         {
 1345              		.loc 1 233 9 view .LVU396
 1346              	.LBB26:
 233:BSP/NFC.c     ****         {
 1347              		.loc 1 233 9 view .LVU397
 233:BSP/NFC.c     ****         {
 1348              		.loc 1 233 9 view .LVU398
 1349 01b0 2B46     		mov	r3, r5
 1350 01b2 424A     		ldr	r2, .L153
 1351 01b4 3B21     		movs	r1, #59
 1352 01b6 6020     		movs	r0, #96
 1353 01b8 FFF7FEFF 		bl	RC522_AuthState
 1354              	.LVL139:
 233:BSP/NFC.c     ****         {
 1355              		.loc 1 233 9 discriminator 1 view .LVU399
 1356 01bc 0028     		cmp	r0, #0
 1357 01be 6ED0     		beq	.L135
 1358              	.LVL140:
 1359              	.L93:
 233:BSP/NFC.c     ****         {
 1360              		.loc 1 233 9 discriminator 6 view .LVU400
 1361 01c0 0220     		movs	r0, #2
 1362 01c2 FFF7FEFF 		bl	osDelay
 1363              	.LVL141:
 1364              	.LBE26:
 233:BSP/NFC.c     ****         {
 1365              		.loc 1 233 9 discriminator 1 view .LVU401
 1366              	.LBB28:
 235:BSP/NFC.c     ****                                        (uint8_t)(15 * 4 + 3),
 1367              		.loc 1 235 13 view .LVU402
 235:BSP/NFC.c     ****                                        (uint8_t)(15 * 4 + 3),
 1368              		.loc 1 235 24 is_stmt 0 view .LVU403
 1369 01c6 2B46     		mov	r3, r5
 1370 01c8 3C4A     		ldr	r2, .L153
 1371 01ca 3F21     		movs	r1, #63
 1372 01cc 6020     		movs	r0, #96
 1373 01ce FFF7FEFF 		bl	RC522_AuthState
 1374              	.LVL142:
 238:BSP/NFC.c     ****                 RC522_ReadBlock(15, 0, bm->dept + 128);
 1375              		.loc 1 238 13 is_stmt 1 view .LVU404
 238:BSP/NFC.c     ****                 RC522_ReadBlock(15, 0, bm->dept + 128);
 1376              		.loc 1 238 16 is_stmt 0 view .LVU405
 1377 01d2 0028     		cmp	r0, #0
 1378 01d4 65D0     		beq	.L150
 1379              	.LVL143:
ARM GAS  C:\Users\24120\AppData\Local\Temp\ccaaYZuv.s 			page 41


 1380              	.L95:
 238:BSP/NFC.c     ****                 RC522_ReadBlock(15, 0, bm->dept + 128);
 1381              		.loc 1 238 16 view .LVU406
 1382              	.LBE28:
 243:BSP/NFC.c     **** 
 1383              		.loc 1 243 9 is_stmt 1 view .LVU407
 1384 01d6 0220     		movs	r0, #2
 1385 01d8 FFF7FEFF 		bl	osDelay
 1386              	.LVL144:
 246:BSP/NFC.c     ****             NFC_READ_SECTOR(1, bm->avatar, 0);
 1387              		.loc 1 246 9 view .LVU408
 246:BSP/NFC.c     ****             NFC_READ_SECTOR(1, bm->avatar, 0);
 1388              		.loc 1 246 20 is_stmt 0 view .LVU409
 1389 01dc 2E7C     		ldrb	r6, [r5, #16]	@ zero_extendqisi2
 246:BSP/NFC.c     ****             NFC_READ_SECTOR(1, bm->avatar, 0);
 1390              		.loc 1 246 12 view .LVU410
 1391 01de 012E     		cmp	r6, #1
 1392 01e0 6ED0     		beq	.L151
 1393              	.LBE15:
 198:BSP/NFC.c     ****         break;
 1394              		.loc 1 198 15 view .LVU411
 1395 01e2 0126     		movs	r6, #1
 1396 01e4 4BE1     		b	.L68
 1397              	.LVL145:
 1398              	.L80:
 1399              	.LBB63:
 1400              	.LBB29:
 1401              	.LBB17:
 208:BSP/NFC.c     ****         NFC_READ_SECTOR(10, bm->name, 48);
 1402              		.loc 1 208 9 is_stmt 1 discriminator 5 view .LVU412
 1403 01e6 04F28112 		addw	r2, r4, #385
 1404 01ea 02EB0612 		add	r2, r2, r6, lsl #4
 1405 01ee F1B2     		uxtb	r1, r6
 1406 01f0 0920     		movs	r0, #9
 1407 01f2 FFF7FEFF 		bl	RC522_ReadBlock
 1408              	.LVL146:
 208:BSP/NFC.c     ****         NFC_READ_SECTOR(10, bm->name, 48);
 1409              		.loc 1 208 9 discriminator 5 view .LVU413
 1410 01f6 0136     		adds	r6, r6, #1
 1411              	.LVL147:
 1412              	.L78:
 208:BSP/NFC.c     ****         NFC_READ_SECTOR(10, bm->name, 48);
 1413              		.loc 1 208 9 discriminator 4 view .LVU414
 1414 01f8 022E     		cmp	r6, #2
 1415 01fa F4DD     		ble	.L80
 1416 01fc 9EE7     		b	.L79
 1417              	.LVL148:
 1418              	.L131:
 208:BSP/NFC.c     ****         NFC_READ_SECTOR(10, bm->name, 48);
 1419              		.loc 1 208 9 is_stmt 0 discriminator 1 view .LVU415
 1420 01fe 0026     		movs	r6, #0
 1421 0200 FAE7     		b	.L78
 1422              	.LVL149:
 1423              	.L83:
 208:BSP/NFC.c     ****         NFC_READ_SECTOR(10, bm->name, 48);
 1424              		.loc 1 208 9 discriminator 1 view .LVU416
 1425              	.LBE17:
ARM GAS  C:\Users\24120\AppData\Local\Temp\ccaaYZuv.s 			page 42


 1426              	.LBE29:
 1427              	.LBB30:
 1428              	.LBB19:
 209:BSP/NFC.c     ****         NFC_READ_SECTOR(11, bm->name, 96);
 1429              		.loc 1 209 9 is_stmt 1 discriminator 5 view .LVU417
 1430 0202 04F28112 		addw	r2, r4, #385
 1431 0206 3301     		lsls	r3, r6, #4
 1432 0208 3033     		adds	r3, r3, #48
 1433 020a 1A44     		add	r2, r2, r3
 1434 020c F1B2     		uxtb	r1, r6
 1435 020e 0A20     		movs	r0, #10
 1436 0210 FFF7FEFF 		bl	RC522_ReadBlock
 1437              	.LVL150:
 209:BSP/NFC.c     ****         NFC_READ_SECTOR(11, bm->name, 96);
 1438              		.loc 1 209 9 discriminator 5 view .LVU418
 1439 0214 0136     		adds	r6, r6, #1
 1440              	.LVL151:
 1441              	.L81:
 209:BSP/NFC.c     ****         NFC_READ_SECTOR(11, bm->name, 96);
 1442              		.loc 1 209 9 discriminator 4 view .LVU419
 1443 0216 022E     		cmp	r6, #2
 1444 0218 F3DD     		ble	.L83
 1445 021a 9AE7     		b	.L82
 1446              	.LVL152:
 1447              	.L132:
 209:BSP/NFC.c     ****         NFC_READ_SECTOR(11, bm->name, 96);
 1448              		.loc 1 209 9 is_stmt 0 discriminator 1 view .LVU420
 1449 021c 0026     		movs	r6, #0
 1450 021e FAE7     		b	.L81
 1451              	.LVL153:
 1452              	.L86:
 209:BSP/NFC.c     ****         NFC_READ_SECTOR(11, bm->name, 96);
 1453              		.loc 1 209 9 discriminator 1 view .LVU421
 1454              	.LBE19:
 1455              	.LBE30:
 1456              	.LBB31:
 1457              	.LBB21:
 210:BSP/NFC.c     ****         {
 1458              		.loc 1 210 9 is_stmt 1 discriminator 5 view .LVU422
 1459 0220 04F28112 		addw	r2, r4, #385
 1460 0224 3301     		lsls	r3, r6, #4
 1461 0226 6033     		adds	r3, r3, #96
 1462 0228 1A44     		add	r2, r2, r3
 1463 022a F1B2     		uxtb	r1, r6
 1464 022c 0B20     		movs	r0, #11
 1465 022e FFF7FEFF 		bl	RC522_ReadBlock
 1466              	.LVL154:
 210:BSP/NFC.c     ****         {
 1467              		.loc 1 210 9 discriminator 5 view .LVU423
 1468 0232 0136     		adds	r6, r6, #1
 1469              	.LVL155:
 1470              	.L84:
 210:BSP/NFC.c     ****         {
 1471              		.loc 1 210 9 discriminator 4 view .LVU424
 1472 0234 022E     		cmp	r6, #2
 1473 0236 F3DD     		ble	.L86
 1474 0238 96E7     		b	.L85
ARM GAS  C:\Users\24120\AppData\Local\Temp\ccaaYZuv.s 			page 43


 1475              	.LVL156:
 1476              	.L133:
 210:BSP/NFC.c     ****         {
 1477              		.loc 1 210 9 is_stmt 0 discriminator 1 view .LVU425
 1478 023a 0026     		movs	r6, #0
 1479 023c FAE7     		b	.L84
 1480              	.LVL157:
 1481              	.L148:
 210:BSP/NFC.c     ****         {
 1482              		.loc 1 210 9 discriminator 1 view .LVU426
 1483              	.LBE21:
 1484              	.LBE31:
 1485              	.LBB32:
 216:BSP/NFC.c     ****             }
 1486              		.loc 1 216 17 is_stmt 1 view .LVU427
 1487 023e 04F21122 		addw	r2, r4, #529
 1488 0242 0021     		movs	r1, #0
 1489 0244 0C20     		movs	r0, #12
 1490              	.LVL158:
 216:BSP/NFC.c     ****             }
 1491              		.loc 1 216 17 is_stmt 0 view .LVU428
 1492 0246 FFF7FEFF 		bl	RC522_ReadBlock
 1493              	.LVL159:
 1494 024a 98E7     		b	.L87
 1495              	.LVL160:
 1496              	.L149:
 216:BSP/NFC.c     ****             }
 1497              		.loc 1 216 17 view .LVU429
 1498              	.LBE32:
 1499              	.LBB33:
 227:BSP/NFC.c     ****                 RC522_ReadBlock(12, 2, bm->dept + 16);
 1500              		.loc 1 227 17 is_stmt 1 view .LVU430
 1501 024c 04F22122 		addw	r2, r4, #545
 1502 0250 0121     		movs	r1, #1
 1503 0252 0C20     		movs	r0, #12
 1504              	.LVL161:
 227:BSP/NFC.c     ****                 RC522_ReadBlock(12, 2, bm->dept + 16);
 1505              		.loc 1 227 17 is_stmt 0 view .LVU431
 1506 0254 FFF7FEFF 		bl	RC522_ReadBlock
 1507              	.LVL162:
 228:BSP/NFC.c     ****             }
 1508              		.loc 1 228 17 is_stmt 1 view .LVU432
 1509 0258 04F23122 		addw	r2, r4, #561
 1510 025c 0221     		movs	r1, #2
 1511 025e 0C20     		movs	r0, #12
 1512 0260 FFF7FEFF 		bl	RC522_ReadBlock
 1513              	.LVL163:
 1514 0264 96E7     		b	.L88
 1515              	.LVL164:
 1516              	.L91:
 228:BSP/NFC.c     ****             }
 1517              		.loc 1 228 17 is_stmt 0 view .LVU433
 1518              	.LBE33:
 1519              	.LBB34:
 1520              	.LBB25:
 232:BSP/NFC.c     ****         NFC_READ_SECTOR(14, bm->dept, 80);
 1521              		.loc 1 232 9 is_stmt 1 discriminator 5 view .LVU434
ARM GAS  C:\Users\24120\AppData\Local\Temp\ccaaYZuv.s 			page 44


 1522 0266 04F22122 		addw	r2, r4, #545
 1523 026a 3301     		lsls	r3, r6, #4
 1524 026c 2033     		adds	r3, r3, #32
 1525 026e 1A44     		add	r2, r2, r3
 1526 0270 F1B2     		uxtb	r1, r6
 1527 0272 0D20     		movs	r0, #13
 1528 0274 FFF7FEFF 		bl	RC522_ReadBlock
 1529              	.LVL165:
 232:BSP/NFC.c     ****         NFC_READ_SECTOR(14, bm->dept, 80);
 1530              		.loc 1 232 9 discriminator 5 view .LVU435
 1531 0278 0136     		adds	r6, r6, #1
 1532              	.LVL166:
 1533              	.L89:
 232:BSP/NFC.c     ****         NFC_READ_SECTOR(14, bm->dept, 80);
 1534              		.loc 1 232 9 discriminator 4 view .LVU436
 1535 027a 022E     		cmp	r6, #2
 1536 027c F3DD     		ble	.L91
 1537 027e 94E7     		b	.L90
 1538              	.LVL167:
 1539              	.L134:
 232:BSP/NFC.c     ****         NFC_READ_SECTOR(14, bm->dept, 80);
 1540              		.loc 1 232 9 is_stmt 0 discriminator 1 view .LVU437
 1541 0280 0026     		movs	r6, #0
 1542 0282 FAE7     		b	.L89
 1543              	.LVL168:
 1544              	.L94:
 232:BSP/NFC.c     ****         NFC_READ_SECTOR(14, bm->dept, 80);
 1545              		.loc 1 232 9 discriminator 1 view .LVU438
 1546              	.LBE25:
 1547              	.LBE34:
 1548              	.LBB35:
 1549              	.LBB27:
 233:BSP/NFC.c     ****         {
 1550              		.loc 1 233 9 is_stmt 1 discriminator 5 view .LVU439
 1551 0284 04F22122 		addw	r2, r4, #545
 1552 0288 3301     		lsls	r3, r6, #4
 1553 028a 5033     		adds	r3, r3, #80
 1554 028c 1A44     		add	r2, r2, r3
 1555 028e F1B2     		uxtb	r1, r6
 1556 0290 0E20     		movs	r0, #14
 1557 0292 FFF7FEFF 		bl	RC522_ReadBlock
 1558              	.LVL169:
 233:BSP/NFC.c     ****         {
 1559              		.loc 1 233 9 discriminator 5 view .LVU440
 1560 0296 0136     		adds	r6, r6, #1
 1561              	.LVL170:
 1562              	.L92:
 233:BSP/NFC.c     ****         {
 1563              		.loc 1 233 9 discriminator 4 view .LVU441
 1564 0298 022E     		cmp	r6, #2
 1565 029a F3DD     		ble	.L94
 1566 029c 90E7     		b	.L93
 1567              	.LVL171:
 1568              	.L135:
 233:BSP/NFC.c     ****         {
 1569              		.loc 1 233 9 is_stmt 0 discriminator 1 view .LVU442
 1570 029e 0026     		movs	r6, #0
ARM GAS  C:\Users\24120\AppData\Local\Temp\ccaaYZuv.s 			page 45


 1571 02a0 FAE7     		b	.L92
 1572              	.LVL172:
 1573              	.L150:
 233:BSP/NFC.c     ****         {
 1574              		.loc 1 233 9 discriminator 1 view .LVU443
 1575              	.LBE27:
 1576              	.LBE35:
 1577              	.LBB36:
 239:BSP/NFC.c     ****                 RC522_ReadBlock(15, 1, bm->dept + 144);
 1578              		.loc 1 239 17 is_stmt 1 view .LVU444
 1579 02a2 04F2A122 		addw	r2, r4, #673
 1580 02a6 0021     		movs	r1, #0
 1581 02a8 0F20     		movs	r0, #15
 1582              	.LVL173:
 239:BSP/NFC.c     ****                 RC522_ReadBlock(15, 1, bm->dept + 144);
 1583              		.loc 1 239 17 is_stmt 0 view .LVU445
 1584 02aa FFF7FEFF 		bl	RC522_ReadBlock
 1585              	.LVL174:
 240:BSP/NFC.c     ****             }
 1586              		.loc 1 240 17 is_stmt 1 view .LVU446
 1587 02ae 04F2B122 		addw	r2, r4, #689
 1588 02b2 0121     		movs	r1, #1
 1589 02b4 0F20     		movs	r0, #15
 1590 02b6 FFF7FEFF 		bl	RC522_ReadBlock
 1591              	.LVL175:
 1592 02ba 8CE7     		b	.L95
 1593              	.L154:
 1594              		.align	2
 1595              	.L153:
 1596 02bc 00000000 		.word	s_defaultKey
 1597              	.L151:
 240:BSP/NFC.c     ****             }
 1598              		.loc 1 240 17 is_stmt 0 view .LVU447
 1599              	.LBE36:
 247:BSP/NFC.c     ****             NFC_READ_SECTOR(2, bm->avatar, 48);
 1600              		.loc 1 247 13 is_stmt 1 view .LVU448
 1601              	.LBB37:
 247:BSP/NFC.c     ****             NFC_READ_SECTOR(2, bm->avatar, 48);
 1602              		.loc 1 247 13 view .LVU449
 247:BSP/NFC.c     ****             NFC_READ_SECTOR(2, bm->avatar, 48);
 1603              		.loc 1 247 13 view .LVU450
 1604 02c0 2B46     		mov	r3, r5
 1605 02c2 734A     		ldr	r2, .L155
 1606 02c4 0721     		movs	r1, #7
 1607 02c6 6020     		movs	r0, #96
 1608 02c8 FFF7FEFF 		bl	RC522_AuthState
 1609              	.LVL176:
 247:BSP/NFC.c     ****             NFC_READ_SECTOR(2, bm->avatar, 48);
 1610              		.loc 1 247 13 discriminator 1 view .LVU451
 1611 02cc 0028     		cmp	r0, #0
 1612 02ce 66D0     		beq	.L137
 1613              	.LVL177:
 1614              	.L97:
 247:BSP/NFC.c     ****             NFC_READ_SECTOR(2, bm->avatar, 48);
 1615              		.loc 1 247 13 discriminator 6 view .LVU452
 1616 02d0 0220     		movs	r0, #2
 1617 02d2 FFF7FEFF 		bl	osDelay
ARM GAS  C:\Users\24120\AppData\Local\Temp\ccaaYZuv.s 			page 46


 1618              	.LVL178:
 1619              	.LBE37:
 247:BSP/NFC.c     ****             NFC_READ_SECTOR(2, bm->avatar, 48);
 1620              		.loc 1 247 13 discriminator 1 view .LVU453
 248:BSP/NFC.c     ****             NFC_READ_SECTOR(3, bm->avatar, 96);
 1621              		.loc 1 248 13 view .LVU454
 1622              	.LBB39:
 248:BSP/NFC.c     ****             NFC_READ_SECTOR(3, bm->avatar, 96);
 1623              		.loc 1 248 13 view .LVU455
 248:BSP/NFC.c     ****             NFC_READ_SECTOR(3, bm->avatar, 96);
 1624              		.loc 1 248 13 view .LVU456
 1625 02d6 2B46     		mov	r3, r5
 1626 02d8 6D4A     		ldr	r2, .L155
 1627 02da 0B21     		movs	r1, #11
 1628 02dc 6020     		movs	r0, #96
 1629 02de FFF7FEFF 		bl	RC522_AuthState
 1630              	.LVL179:
 248:BSP/NFC.c     ****             NFC_READ_SECTOR(3, bm->avatar, 96);
 1631              		.loc 1 248 13 discriminator 1 view .LVU457
 1632 02e2 0028     		cmp	r0, #0
 1633 02e4 69D0     		beq	.L138
 1634              	.LVL180:
 1635              	.L100:
 248:BSP/NFC.c     ****             NFC_READ_SECTOR(3, bm->avatar, 96);
 1636              		.loc 1 248 13 discriminator 6 view .LVU458
 1637 02e6 0220     		movs	r0, #2
 1638 02e8 FFF7FEFF 		bl	osDelay
 1639              	.LVL181:
 1640              	.LBE39:
 248:BSP/NFC.c     ****             NFC_READ_SECTOR(3, bm->avatar, 96);
 1641              		.loc 1 248 13 discriminator 1 view .LVU459
 249:BSP/NFC.c     ****             NFC_READ_SECTOR(4, bm->avatar, 144);
 1642              		.loc 1 249 13 view .LVU460
 1643              	.LBB41:
 249:BSP/NFC.c     ****             NFC_READ_SECTOR(4, bm->avatar, 144);
 1644              		.loc 1 249 13 view .LVU461
 249:BSP/NFC.c     ****             NFC_READ_SECTOR(4, bm->avatar, 144);
 1645              		.loc 1 249 13 view .LVU462
 1646 02ec 2B46     		mov	r3, r5
 1647 02ee 684A     		ldr	r2, .L155
 1648 02f0 0F21     		movs	r1, #15
 1649 02f2 6020     		movs	r0, #96
 1650 02f4 FFF7FEFF 		bl	RC522_AuthState
 1651              	.LVL182:
 249:BSP/NFC.c     ****             NFC_READ_SECTOR(4, bm->avatar, 144);
 1652              		.loc 1 249 13 discriminator 1 view .LVU463
 1653 02f8 0028     		cmp	r0, #0
 1654 02fa 6CD0     		beq	.L139
 1655              	.LVL183:
 1656              	.L103:
 249:BSP/NFC.c     ****             NFC_READ_SECTOR(4, bm->avatar, 144);
 1657              		.loc 1 249 13 discriminator 6 view .LVU464
 1658 02fc 0220     		movs	r0, #2
 1659 02fe FFF7FEFF 		bl	osDelay
 1660              	.LVL184:
 1661              	.LBE41:
 249:BSP/NFC.c     ****             NFC_READ_SECTOR(4, bm->avatar, 144);
ARM GAS  C:\Users\24120\AppData\Local\Temp\ccaaYZuv.s 			page 47


 1662              		.loc 1 249 13 discriminator 1 view .LVU465
 250:BSP/NFC.c     ****             NFC_READ_SECTOR(5, bm->avatar, 192);
 1663              		.loc 1 250 13 view .LVU466
 1664              	.LBB43:
 250:BSP/NFC.c     ****             NFC_READ_SECTOR(5, bm->avatar, 192);
 1665              		.loc 1 250 13 view .LVU467
 250:BSP/NFC.c     ****             NFC_READ_SECTOR(5, bm->avatar, 192);
 1666              		.loc 1 250 13 view .LVU468
 1667 0302 2B46     		mov	r3, r5
 1668 0304 624A     		ldr	r2, .L155
 1669 0306 1321     		movs	r1, #19
 1670 0308 6020     		movs	r0, #96
 1671 030a FFF7FEFF 		bl	RC522_AuthState
 1672              	.LVL185:
 250:BSP/NFC.c     ****             NFC_READ_SECTOR(5, bm->avatar, 192);
 1673              		.loc 1 250 13 discriminator 1 view .LVU469
 1674 030e 0028     		cmp	r0, #0
 1675 0310 6FD0     		beq	.L140
 1676              	.LVL186:
 1677              	.L106:
 250:BSP/NFC.c     ****             NFC_READ_SECTOR(5, bm->avatar, 192);
 1678              		.loc 1 250 13 discriminator 6 view .LVU470
 1679 0312 0220     		movs	r0, #2
 1680 0314 FFF7FEFF 		bl	osDelay
 1681              	.LVL187:
 1682              	.LBE43:
 250:BSP/NFC.c     ****             NFC_READ_SECTOR(5, bm->avatar, 192);
 1683              		.loc 1 250 13 discriminator 1 view .LVU471
 251:BSP/NFC.c     ****             NFC_READ_SECTOR(6, bm->avatar, 240);
 1684              		.loc 1 251 13 view .LVU472
 1685              	.LBB45:
 251:BSP/NFC.c     ****             NFC_READ_SECTOR(6, bm->avatar, 240);
 1686              		.loc 1 251 13 view .LVU473
 251:BSP/NFC.c     ****             NFC_READ_SECTOR(6, bm->avatar, 240);
 1687              		.loc 1 251 13 view .LVU474
 1688 0318 2B46     		mov	r3, r5
 1689 031a 5D4A     		ldr	r2, .L155
 1690 031c 1721     		movs	r1, #23
 1691 031e 6020     		movs	r0, #96
 1692 0320 FFF7FEFF 		bl	RC522_AuthState
 1693              	.LVL188:
 251:BSP/NFC.c     ****             NFC_READ_SECTOR(6, bm->avatar, 240);
 1694              		.loc 1 251 13 discriminator 1 view .LVU475
 1695 0324 0028     		cmp	r0, #0
 1696 0326 72D0     		beq	.L141
 1697              	.LVL189:
 1698              	.L109:
 251:BSP/NFC.c     ****             NFC_READ_SECTOR(6, bm->avatar, 240);
 1699              		.loc 1 251 13 discriminator 6 view .LVU476
 1700 0328 0220     		movs	r0, #2
 1701 032a FFF7FEFF 		bl	osDelay
 1702              	.LVL190:
 1703              	.LBE45:
 251:BSP/NFC.c     ****             NFC_READ_SECTOR(6, bm->avatar, 240);
 1704              		.loc 1 251 13 discriminator 1 view .LVU477
 252:BSP/NFC.c     ****             NFC_READ_SECTOR(7, bm->avatar, 288);
 1705              		.loc 1 252 13 view .LVU478
ARM GAS  C:\Users\24120\AppData\Local\Temp\ccaaYZuv.s 			page 48


 1706              	.LBB47:
 252:BSP/NFC.c     ****             NFC_READ_SECTOR(7, bm->avatar, 288);
 1707              		.loc 1 252 13 view .LVU479
 252:BSP/NFC.c     ****             NFC_READ_SECTOR(7, bm->avatar, 288);
 1708              		.loc 1 252 13 view .LVU480
 1709 032e 2B46     		mov	r3, r5
 1710 0330 574A     		ldr	r2, .L155
 1711 0332 1B21     		movs	r1, #27
 1712 0334 6020     		movs	r0, #96
 1713 0336 FFF7FEFF 		bl	RC522_AuthState
 1714              	.LVL191:
 252:BSP/NFC.c     ****             NFC_READ_SECTOR(7, bm->avatar, 288);
 1715              		.loc 1 252 13 discriminator 1 view .LVU481
 1716 033a 0028     		cmp	r0, #0
 1717 033c 75D0     		beq	.L142
 1718              	.LVL192:
 1719              	.L112:
 252:BSP/NFC.c     ****             NFC_READ_SECTOR(7, bm->avatar, 288);
 1720              		.loc 1 252 13 discriminator 6 view .LVU482
 1721 033e 0220     		movs	r0, #2
 1722 0340 FFF7FEFF 		bl	osDelay
 1723              	.LVL193:
 1724              	.LBE47:
 252:BSP/NFC.c     ****             NFC_READ_SECTOR(7, bm->avatar, 288);
 1725              		.loc 1 252 13 discriminator 1 view .LVU483
 253:BSP/NFC.c     ****             NFC_READ_SECTOR(8, bm->avatar, 336);
 1726              		.loc 1 253 13 view .LVU484
 1727              	.LBB49:
 253:BSP/NFC.c     ****             NFC_READ_SECTOR(8, bm->avatar, 336);
 1728              		.loc 1 253 13 view .LVU485
 253:BSP/NFC.c     ****             NFC_READ_SECTOR(8, bm->avatar, 336);
 1729              		.loc 1 253 13 view .LVU486
 1730 0344 2B46     		mov	r3, r5
 1731 0346 524A     		ldr	r2, .L155
 1732 0348 1F21     		movs	r1, #31
 1733 034a 6020     		movs	r0, #96
 1734 034c FFF7FEFF 		bl	RC522_AuthState
 1735              	.LVL194:
 253:BSP/NFC.c     ****             NFC_READ_SECTOR(8, bm->avatar, 336);
 1736              		.loc 1 253 13 discriminator 1 view .LVU487
 1737 0350 0028     		cmp	r0, #0
 1738 0352 79D0     		beq	.L143
 1739              	.LVL195:
 1740              	.L115:
 253:BSP/NFC.c     ****             NFC_READ_SECTOR(8, bm->avatar, 336);
 1741              		.loc 1 253 13 discriminator 6 view .LVU488
 1742 0354 0220     		movs	r0, #2
 1743 0356 FFF7FEFF 		bl	osDelay
 1744              	.LVL196:
 1745              	.LBE49:
 253:BSP/NFC.c     ****             NFC_READ_SECTOR(8, bm->avatar, 336);
 1746              		.loc 1 253 13 discriminator 1 view .LVU489
 254:BSP/NFC.c     ****             /* 扫描全部 384 字节判断头像是否存在 (仅 32 字节易因黑边上角误判) */
 1747              		.loc 1 254 13 view .LVU490
 1748              	.LBB51:
 254:BSP/NFC.c     ****             /* 扫描全部 384 字节判断头像是否存在 (仅 32 字节易因黑边上角误判) */
 1749              		.loc 1 254 13 view .LVU491
ARM GAS  C:\Users\24120\AppData\Local\Temp\ccaaYZuv.s 			page 49


 254:BSP/NFC.c     ****             /* 扫描全部 384 字节判断头像是否存在 (仅 32 字节易因黑边上角误判) */
 1750              		.loc 1 254 13 view .LVU492
 1751 035a 2B46     		mov	r3, r5
 1752 035c 4C4A     		ldr	r2, .L155
 1753 035e 2321     		movs	r1, #35
 1754 0360 6020     		movs	r0, #96
 1755 0362 FFF7FEFF 		bl	RC522_AuthState
 1756              	.LVL197:
 254:BSP/NFC.c     ****             /* 扫描全部 384 字节判断头像是否存在 (仅 32 字节易因黑边上角误判) */
 1757              		.loc 1 254 13 discriminator 1 view .LVU493
 1758 0366 0028     		cmp	r0, #0
 1759 0368 7DD0     		beq	.L144
 1760              	.LVL198:
 1761              	.L118:
 254:BSP/NFC.c     ****             /* 扫描全部 384 字节判断头像是否存在 (仅 32 字节易因黑边上角误判) */
 1762              		.loc 1 254 13 discriminator 6 view .LVU494
 1763 036a 0220     		movs	r0, #2
 1764 036c FFF7FEFF 		bl	osDelay
 1765              	.LVL199:
 1766              	.LBE51:
 254:BSP/NFC.c     ****             /* 扫描全部 384 字节判断头像是否存在 (仅 32 字节易因黑边上角误判) */
 1767              		.loc 1 254 13 discriminator 1 view .LVU495
 256:BSP/NFC.c     ****             for (int _j = 0; _j < (int)sizeof(bm->avatar); _j++) {
 1768              		.loc 1 256 13 view .LVU496
 256:BSP/NFC.c     ****             for (int _j = 0; _j < (int)sizeof(bm->avatar); _j++) {
 1769              		.loc 1 256 27 is_stmt 0 view .LVU497
 1770 0370 0023     		movs	r3, #0
 1771 0372 2370     		strb	r3, [r4]
 257:BSP/NFC.c     ****                 if (bm->avatar[_j] != 0) { bm->hasAvatar = 1; break; }
 1772              		.loc 1 257 13 is_stmt 1 view .LVU498
 1773              	.LBB53:
 257:BSP/NFC.c     ****                 if (bm->avatar[_j] != 0) { bm->hasAvatar = 1; break; }
 1774              		.loc 1 257 18 view .LVU499
 1775              	.LVL200:
 1776              	.L120:
 257:BSP/NFC.c     ****                 if (bm->avatar[_j] != 0) { bm->hasAvatar = 1; break; }
 1777              		.loc 1 257 33 discriminator 1 view .LVU500
 1778 0374 B3F5C07F 		cmp	r3, #384
 1779 0378 80F28180 		bge	.L68
 258:BSP/NFC.c     ****             }
 1780              		.loc 1 258 17 view .LVU501
 258:BSP/NFC.c     ****             }
 1781              		.loc 1 258 31 is_stmt 0 view .LVU502
 1782 037c E218     		adds	r2, r4, r3
 1783 037e 5278     		ldrb	r2, [r2, #1]	@ zero_extendqisi2
 258:BSP/NFC.c     ****             }
 1784              		.loc 1 258 20 view .LVU503
 1785 0380 002A     		cmp	r2, #0
 1786 0382 72D1     		bne	.L152
 257:BSP/NFC.c     ****                 if (bm->avatar[_j] != 0) { bm->hasAvatar = 1; break; }
 1787              		.loc 1 257 62 is_stmt 1 discriminator 2 view .LVU504
 1788 0384 0133     		adds	r3, r3, #1
 1789              	.LVL201:
 257:BSP/NFC.c     ****                 if (bm->avatar[_j] != 0) { bm->hasAvatar = 1; break; }
 1790              		.loc 1 257 62 is_stmt 0 discriminator 2 view .LVU505
 1791 0386 F5E7     		b	.L120
 1792              	.LVL202:
ARM GAS  C:\Users\24120\AppData\Local\Temp\ccaaYZuv.s 			page 50


 1793              	.L98:
 257:BSP/NFC.c     ****                 if (bm->avatar[_j] != 0) { bm->hasAvatar = 1; break; }
 1794              		.loc 1 257 62 discriminator 2 view .LVU506
 1795              	.LBE53:
 1796              	.LBB54:
 1797              	.LBB38:
 247:BSP/NFC.c     ****             NFC_READ_SECTOR(2, bm->avatar, 48);
 1798              		.loc 1 247 13 is_stmt 1 discriminator 5 view .LVU507
 1799 0388 621C     		adds	r2, r4, #1
 1800 038a 02EB0712 		add	r2, r2, r7, lsl #4
 1801 038e F9B2     		uxtb	r1, r7
 1802 0390 0120     		movs	r0, #1
 1803 0392 FFF7FEFF 		bl	RC522_ReadBlock
 1804              	.LVL203:
 247:BSP/NFC.c     ****             NFC_READ_SECTOR(2, bm->avatar, 48);
 1805              		.loc 1 247 13 discriminator 5 view .LVU508
 1806 0396 0137     		adds	r7, r7, #1
 1807              	.LVL204:
 1808              	.L96:
 247:BSP/NFC.c     ****             NFC_READ_SECTOR(2, bm->avatar, 48);
 1809              		.loc 1 247 13 discriminator 4 view .LVU509
 1810 0398 022F     		cmp	r7, #2
 1811 039a F5DD     		ble	.L98
 1812 039c 98E7     		b	.L97
 1813              	.LVL205:
 1814              	.L137:
 247:BSP/NFC.c     ****             NFC_READ_SECTOR(2, bm->avatar, 48);
 1815              		.loc 1 247 13 is_stmt 0 discriminator 1 view .LVU510
 1816 039e 0027     		movs	r7, #0
 1817 03a0 FAE7     		b	.L96
 1818              	.LVL206:
 1819              	.L101:
 247:BSP/NFC.c     ****             NFC_READ_SECTOR(2, bm->avatar, 48);
 1820              		.loc 1 247 13 discriminator 1 view .LVU511
 1821              	.LBE38:
 1822              	.LBE54:
 1823              	.LBB55:
 1824              	.LBB40:
 248:BSP/NFC.c     ****             NFC_READ_SECTOR(3, bm->avatar, 96);
 1825              		.loc 1 248 13 is_stmt 1 discriminator 5 view .LVU512
 1826 03a2 621C     		adds	r2, r4, #1
 1827 03a4 3B01     		lsls	r3, r7, #4
 1828 03a6 3033     		adds	r3, r3, #48
 1829 03a8 1A44     		add	r2, r2, r3
 1830 03aa F9B2     		uxtb	r1, r7
 1831 03ac 0220     		movs	r0, #2
 1832 03ae FFF7FEFF 		bl	RC522_ReadBlock
 1833              	.LVL207:
 248:BSP/NFC.c     ****             NFC_READ_SECTOR(3, bm->avatar, 96);
 1834              		.loc 1 248 13 discriminator 5 view .LVU513
 1835 03b2 0137     		adds	r7, r7, #1
 1836              	.LVL208:
 1837              	.L99:
 248:BSP/NFC.c     ****             NFC_READ_SECTOR(3, bm->avatar, 96);
 1838              		.loc 1 248 13 discriminator 4 view .LVU514
 1839 03b4 022F     		cmp	r7, #2
 1840 03b6 F4DD     		ble	.L101
ARM GAS  C:\Users\24120\AppData\Local\Temp\ccaaYZuv.s 			page 51


 1841 03b8 95E7     		b	.L100
 1842              	.LVL209:
 1843              	.L138:
 248:BSP/NFC.c     ****             NFC_READ_SECTOR(3, bm->avatar, 96);
 1844              		.loc 1 248 13 is_stmt 0 discriminator 1 view .LVU515
 1845 03ba 0027     		movs	r7, #0
 1846 03bc FAE7     		b	.L99
 1847              	.LVL210:
 1848              	.L104:
 248:BSP/NFC.c     ****             NFC_READ_SECTOR(3, bm->avatar, 96);
 1849              		.loc 1 248 13 discriminator 1 view .LVU516
 1850              	.LBE40:
 1851              	.LBE55:
 1852              	.LBB56:
 1853              	.LBB42:
 249:BSP/NFC.c     ****             NFC_READ_SECTOR(4, bm->avatar, 144);
 1854              		.loc 1 249 13 is_stmt 1 discriminator 5 view .LVU517
 1855 03be 621C     		adds	r2, r4, #1
 1856 03c0 3B01     		lsls	r3, r7, #4
 1857 03c2 6033     		adds	r3, r3, #96
 1858 03c4 1A44     		add	r2, r2, r3
 1859 03c6 F9B2     		uxtb	r1, r7
 1860 03c8 0320     		movs	r0, #3
 1861 03ca FFF7FEFF 		bl	RC522_ReadBlock
 1862              	.LVL211:
 249:BSP/NFC.c     ****             NFC_READ_SECTOR(4, bm->avatar, 144);
 1863              		.loc 1 249 13 discriminator 5 view .LVU518
 1864 03ce 0137     		adds	r7, r7, #1
 1865              	.LVL212:
 1866              	.L102:
 249:BSP/NFC.c     ****             NFC_READ_SECTOR(4, bm->avatar, 144);
 1867              		.loc 1 249 13 discriminator 4 view .LVU519
 1868 03d0 022F     		cmp	r7, #2
 1869 03d2 F4DD     		ble	.L104
 1870 03d4 92E7     		b	.L103
 1871              	.LVL213:
 1872              	.L139:
 249:BSP/NFC.c     ****             NFC_READ_SECTOR(4, bm->avatar, 144);
 1873              		.loc 1 249 13 is_stmt 0 discriminator 1 view .LVU520
 1874 03d6 0027     		movs	r7, #0
 1875 03d8 FAE7     		b	.L102
 1876              	.LVL214:
 1877              	.L107:
 249:BSP/NFC.c     ****             NFC_READ_SECTOR(4, bm->avatar, 144);
 1878              		.loc 1 249 13 discriminator 1 view .LVU521
 1879              	.LBE42:
 1880              	.LBE56:
 1881              	.LBB57:
 1882              	.LBB44:
 250:BSP/NFC.c     ****             NFC_READ_SECTOR(5, bm->avatar, 192);
 1883              		.loc 1 250 13 is_stmt 1 discriminator 5 view .LVU522
 1884 03da 621C     		adds	r2, r4, #1
 1885 03dc 3B01     		lsls	r3, r7, #4
 1886 03de 9033     		adds	r3, r3, #144
 1887 03e0 1A44     		add	r2, r2, r3
 1888 03e2 F9B2     		uxtb	r1, r7
 1889 03e4 0420     		movs	r0, #4
ARM GAS  C:\Users\24120\AppData\Local\Temp\ccaaYZuv.s 			page 52


 1890 03e6 FFF7FEFF 		bl	RC522_ReadBlock
 1891              	.LVL215:
 250:BSP/NFC.c     ****             NFC_READ_SECTOR(5, bm->avatar, 192);
 1892              		.loc 1 250 13 discriminator 5 view .LVU523
 1893 03ea 0137     		adds	r7, r7, #1
 1894              	.LVL216:
 1895              	.L105:
 250:BSP/NFC.c     ****             NFC_READ_SECTOR(5, bm->avatar, 192);
 1896              		.loc 1 250 13 discriminator 4 view .LVU524
 1897 03ec 022F     		cmp	r7, #2
 1898 03ee F4DD     		ble	.L107
 1899 03f0 8FE7     		b	.L106
 1900              	.LVL217:
 1901              	.L140:
 250:BSP/NFC.c     ****             NFC_READ_SECTOR(5, bm->avatar, 192);
 1902              		.loc 1 250 13 is_stmt 0 discriminator 1 view .LVU525
 1903 03f2 0027     		movs	r7, #0
 1904 03f4 FAE7     		b	.L105
 1905              	.LVL218:
 1906              	.L110:
 250:BSP/NFC.c     ****             NFC_READ_SECTOR(5, bm->avatar, 192);
 1907              		.loc 1 250 13 discriminator 1 view .LVU526
 1908              	.LBE44:
 1909              	.LBE57:
 1910              	.LBB58:
 1911              	.LBB46:
 251:BSP/NFC.c     ****             NFC_READ_SECTOR(6, bm->avatar, 240);
 1912              		.loc 1 251 13 is_stmt 1 discriminator 5 view .LVU527
 1913 03f6 621C     		adds	r2, r4, #1
 1914 03f8 3B01     		lsls	r3, r7, #4
 1915 03fa C033     		adds	r3, r3, #192
 1916 03fc 1A44     		add	r2, r2, r3
 1917 03fe F9B2     		uxtb	r1, r7
 1918 0400 0520     		movs	r0, #5
 1919 0402 FFF7FEFF 		bl	RC522_ReadBlock
 1920              	.LVL219:
 251:BSP/NFC.c     ****             NFC_READ_SECTOR(6, bm->avatar, 240);
 1921              		.loc 1 251 13 discriminator 5 view .LVU528
 1922 0406 0137     		adds	r7, r7, #1
 1923              	.LVL220:
 1924              	.L108:
 251:BSP/NFC.c     ****             NFC_READ_SECTOR(6, bm->avatar, 240);
 1925              		.loc 1 251 13 discriminator 4 view .LVU529
 1926 0408 022F     		cmp	r7, #2
 1927 040a F4DD     		ble	.L110
 1928 040c 8CE7     		b	.L109
 1929              	.LVL221:
 1930              	.L141:
 251:BSP/NFC.c     ****             NFC_READ_SECTOR(6, bm->avatar, 240);
 1931              		.loc 1 251 13 is_stmt 0 discriminator 1 view .LVU530
 1932 040e 0027     		movs	r7, #0
 1933 0410 FAE7     		b	.L108
 1934              	.LVL222:
 1935              	.L113:
 251:BSP/NFC.c     ****             NFC_READ_SECTOR(6, bm->avatar, 240);
 1936              		.loc 1 251 13 discriminator 1 view .LVU531
 1937              	.LBE46:
ARM GAS  C:\Users\24120\AppData\Local\Temp\ccaaYZuv.s 			page 53


 1938              	.LBE58:
 1939              	.LBB59:
 1940              	.LBB48:
 252:BSP/NFC.c     ****             NFC_READ_SECTOR(7, bm->avatar, 288);
 1941              		.loc 1 252 13 is_stmt 1 discriminator 5 view .LVU532
 1942 0412 621C     		adds	r2, r4, #1
 1943 0414 3B01     		lsls	r3, r7, #4
 1944 0416 F033     		adds	r3, r3, #240
 1945 0418 1A44     		add	r2, r2, r3
 1946 041a F9B2     		uxtb	r1, r7
 1947 041c 0620     		movs	r0, #6
 1948 041e FFF7FEFF 		bl	RC522_ReadBlock
 1949              	.LVL223:
 252:BSP/NFC.c     ****             NFC_READ_SECTOR(7, bm->avatar, 288);
 1950              		.loc 1 252 13 discriminator 5 view .LVU533
 1951 0422 0137     		adds	r7, r7, #1
 1952              	.LVL224:
 1953              	.L111:
 252:BSP/NFC.c     ****             NFC_READ_SECTOR(7, bm->avatar, 288);
 1954              		.loc 1 252 13 discriminator 4 view .LVU534
 1955 0424 022F     		cmp	r7, #2
 1956 0426 F4DD     		ble	.L113
 1957 0428 89E7     		b	.L112
 1958              	.LVL225:
 1959              	.L142:
 252:BSP/NFC.c     ****             NFC_READ_SECTOR(7, bm->avatar, 288);
 1960              		.loc 1 252 13 is_stmt 0 discriminator 1 view .LVU535
 1961 042a 0027     		movs	r7, #0
 1962 042c FAE7     		b	.L111
 1963              	.LVL226:
 1964              	.L116:
 252:BSP/NFC.c     ****             NFC_READ_SECTOR(7, bm->avatar, 288);
 1965              		.loc 1 252 13 discriminator 1 view .LVU536
 1966              	.LBE48:
 1967              	.LBE59:
 1968              	.LBB60:
 1969              	.LBB50:
 253:BSP/NFC.c     ****             NFC_READ_SECTOR(8, bm->avatar, 336);
 1970              		.loc 1 253 13 is_stmt 1 discriminator 5 view .LVU537
 1971 042e 621C     		adds	r2, r4, #1
 1972 0430 3B01     		lsls	r3, r7, #4
 1973 0432 03F59073 		add	r3, r3, #288
 1974 0436 1A44     		add	r2, r2, r3
 1975 0438 F9B2     		uxtb	r1, r7
 1976 043a 0720     		movs	r0, #7
 1977 043c FFF7FEFF 		bl	RC522_ReadBlock
 1978              	.LVL227:
 253:BSP/NFC.c     ****             NFC_READ_SECTOR(8, bm->avatar, 336);
 1979              		.loc 1 253 13 discriminator 5 view .LVU538
 1980 0440 0137     		adds	r7, r7, #1
 1981              	.LVL228:
 1982              	.L114:
 253:BSP/NFC.c     ****             NFC_READ_SECTOR(8, bm->avatar, 336);
 1983              		.loc 1 253 13 discriminator 4 view .LVU539
 1984 0442 022F     		cmp	r7, #2
 1985 0444 F3DD     		ble	.L116
 1986 0446 85E7     		b	.L115
ARM GAS  C:\Users\24120\AppData\Local\Temp\ccaaYZuv.s 			page 54


 1987              	.LVL229:
 1988              	.L143:
 253:BSP/NFC.c     ****             NFC_READ_SECTOR(8, bm->avatar, 336);
 1989              		.loc 1 253 13 is_stmt 0 discriminator 1 view .LVU540
 1990 0448 0027     		movs	r7, #0
 1991 044a FAE7     		b	.L114
 1992              	.LVL230:
 1993              	.L119:
 253:BSP/NFC.c     ****             NFC_READ_SECTOR(8, bm->avatar, 336);
 1994              		.loc 1 253 13 discriminator 1 view .LVU541
 1995              	.LBE50:
 1996              	.LBE60:
 1997              	.LBB61:
 1998              	.LBB52:
 254:BSP/NFC.c     ****             /* 扫描全部 384 字节判断头像是否存在 (仅 32 字节易因黑边上角误判) */
 1999              		.loc 1 254 13 is_stmt 1 discriminator 5 view .LVU542
 2000 044c 621C     		adds	r2, r4, #1
 2001 044e 2B01     		lsls	r3, r5, #4
 2002 0450 03F5A873 		add	r3, r3, #336
 2003 0454 1A44     		add	r2, r2, r3
 2004 0456 E9B2     		uxtb	r1, r5
 2005 0458 0820     		movs	r0, #8
 2006 045a FFF7FEFF 		bl	RC522_ReadBlock
 2007              	.LVL231:
 254:BSP/NFC.c     ****             /* 扫描全部 384 字节判断头像是否存在 (仅 32 字节易因黑边上角误判) */
 2008              		.loc 1 254 13 discriminator 5 view .LVU543
 2009 045e 0135     		adds	r5, r5, #1
 2010              	.LVL232:
 2011              	.L117:
 254:BSP/NFC.c     ****             /* 扫描全部 384 字节判断头像是否存在 (仅 32 字节易因黑边上角误判) */
 2012              		.loc 1 254 13 discriminator 4 view .LVU544
 2013 0460 022D     		cmp	r5, #2
 2014 0462 F3DD     		ble	.L119
 2015 0464 81E7     		b	.L118
 2016              	.LVL233:
 2017              	.L144:
 254:BSP/NFC.c     ****             /* 扫描全部 384 字节判断头像是否存在 (仅 32 字节易因黑边上角误判) */
 2018              		.loc 1 254 13 is_stmt 0 discriminator 1 view .LVU545
 2019 0466 0025     		movs	r5, #0
 2020              	.LVL234:
 254:BSP/NFC.c     ****             /* 扫描全部 384 字节判断头像是否存在 (仅 32 字节易因黑边上角误判) */
 2021              		.loc 1 254 13 discriminator 1 view .LVU546
 2022 0468 FAE7     		b	.L117
 2023              	.LVL235:
 2024              	.L152:
 254:BSP/NFC.c     ****             /* 扫描全部 384 字节判断头像是否存在 (仅 32 字节易因黑边上角误判) */
 2025              		.loc 1 254 13 discriminator 1 view .LVU547
 2026              	.LBE52:
 2027              	.LBE61:
 2028              	.LBB62:
 258:BSP/NFC.c     ****             }
 2029              		.loc 1 258 44 is_stmt 1 discriminator 1 view .LVU548
 258:BSP/NFC.c     ****             }
 2030              		.loc 1 258 58 is_stmt 0 discriminator 1 view .LVU549
 2031 046a 0123     		movs	r3, #1
 2032              	.LVL236:
 258:BSP/NFC.c     ****             }
ARM GAS  C:\Users\24120\AppData\Local\Temp\ccaaYZuv.s 			page 55


 2033              		.loc 1 258 58 discriminator 1 view .LVU550
 2034 046c 2370     		strb	r3, [r4]
 258:BSP/NFC.c     ****             }
 2035              		.loc 1 258 63 is_stmt 1 view .LVU551
 2036 046e 06E0     		b	.L68
 2037              	.LVL237:
 2038              	.L123:
 258:BSP/NFC.c     ****             }
 2039              		.loc 1 258 63 is_stmt 0 view .LVU552
 2040              	.LBE62:
 2041              	.LBE63:
 115:BSP/NFC.c     ****     }
 2042              		.loc 1 115 16 view .LVU553
 2043 0470 0226     		movs	r6, #2
 2044 0472 04E0     		b	.L68
 2045              	.L124:
 115:BSP/NFC.c     ****     }
 2046              		.loc 1 115 16 view .LVU554
 2047 0474 0226     		movs	r6, #2
 2048 0476 02E0     		b	.L68
 2049              	.LVL238:
 2050              	.L126:
 150:BSP/NFC.c     ****     }
 2051              		.loc 1 150 16 view .LVU555
 2052 0478 0226     		movs	r6, #2
 2053 047a 00E0     		b	.L68
 2054              	.LVL239:
 2055              	.L127:
 164:BSP/NFC.c     ****     }
 2056              		.loc 1 164 16 view .LVU556
 2057 047c 0226     		movs	r6, #2
 2058              	.LVL240:
 2059              	.L68:
 264:BSP/NFC.c     **** 
 2060              		.loc 1 264 1 view .LVU557
 2061 047e 3046     		mov	r0, r6
 2062 0480 07B0     		add	sp, sp, #28
 2063              	.LCFI18:
 2064              		.cfi_remember_state
 2065              		.cfi_def_cfa_offset 20
 2066              		@ sp needed
 2067 0482 F0BD     		pop	{r4, r5, r6, r7, pc}
 2068              	.LVL241:
 2069              	.L128:
 2070              	.LCFI19:
 2071              		.cfi_restore_state
 164:BSP/NFC.c     ****     }
 2072              		.loc 1 164 16 view .LVU558
 2073 0484 0226     		movs	r6, #2
 2074 0486 FAE7     		b	.L68
 2075              	.LVL242:
 2076              	.L129:
 187:BSP/NFC.c     ****     }
 2077              		.loc 1 187 16 view .LVU559
 2078 0488 0226     		movs	r6, #2
 2079 048a F8E7     		b	.L68
 2080              	.L130:
ARM GAS  C:\Users\24120\AppData\Local\Temp\ccaaYZuv.s 			page 56


 194:BSP/NFC.c     ****         break;
 2081              		.loc 1 194 15 view .LVU560
 2082 048c 0426     		movs	r6, #4
 2083 048e F6E7     		b	.L68
 2084              	.L156:
 2085              		.align	2
 2086              	.L155:
 2087 0490 00000000 		.word	s_defaultKey
 2088              		.cfi_endproc
 2089              	.LFE250:
 2091              		.section	.text.NFC_ReadCardHeader,"ax",%progbits
 2092              		.align	1
 2093              		.global	NFC_ReadCardHeader
 2094              		.syntax unified
 2095              		.thumb
 2096              		.thumb_func
 2098              	NFC_ReadCardHeader:
 2099              	.LVL243:
 2100              	.LFB251:
 273:BSP/NFC.c     ****     char    status;
 2101              		.loc 1 273 1 is_stmt 1 view -0
 2102              		.cfi_startproc
 2103              		@ args = 0, pretend = 0, frame = 24
 2104              		@ frame_needed = 0, uses_anonymous_args = 0
 274:BSP/NFC.c     ****     uint8_t blockData[NFC_BLOCK_SIZE];
 2105              		.loc 1 274 5 view .LVU562
 275:BSP/NFC.c     ****     int     readOk = 0;
 2106              		.loc 1 275 5 view .LVU563
 276:BSP/NFC.c     **** 
 2107              		.loc 1 276 5 view .LVU564
 278:BSP/NFC.c     ****         return NFC_EVT_INVALID;
 2108              		.loc 1 278 5 view .LVU565
 278:BSP/NFC.c     ****         return NFC_EVT_INVALID;
 2109              		.loc 1 278 8 is_stmt 0 view .LVU566
 2110 0000 0029     		cmp	r1, #0
 2111 0002 00F08A80 		beq	.L168
 273:BSP/NFC.c     ****     char    status;
 2112              		.loc 1 273 1 view .LVU567
 2113 0006 30B5     		push	{r4, r5, lr}
 2114              	.LCFI20:
 2115              		.cfi_def_cfa_offset 12
 2116              		.cfi_offset 4, -12
 2117              		.cfi_offset 5, -8
 2118              		.cfi_offset 14, -4
 2119 0008 87B0     		sub	sp, sp, #28
 2120              	.LCFI21:
 2121              		.cfi_def_cfa_offset 40
 2122 000a 0D46     		mov	r5, r1
 278:BSP/NFC.c     ****         return NFC_EVT_INVALID;
 2123              		.loc 1 278 25 discriminator 1 view .LVU568
 2124 000c 0028     		cmp	r0, #0
 2125 000e 00F08680 		beq	.L169
 282:BSP/NFC.c     ****     memcpy(outCard->uid, uid, 4);
 2126              		.loc 1 282 5 is_stmt 1 view .LVU569
 2127 0012 0024     		movs	r4, #0
 2128 0014 0C60     		str	r4, [r1]	@ unaligned
 2129 0016 4C60     		str	r4, [r1, #4]	@ unaligned
ARM GAS  C:\Users\24120\AppData\Local\Temp\ccaaYZuv.s 			page 57


 2130 0018 8C60     		str	r4, [r1, #8]	@ unaligned
 2131 001a CC60     		str	r4, [r1, #12]	@ unaligned
 2132 001c 0C61     		str	r4, [r1, #16]	@ unaligned
 2133 001e 4C61     		str	r4, [r1, #20]	@ unaligned
 2134 0020 8C61     		str	r4, [r1, #24]	@ unaligned
 283:BSP/NFC.c     ****     BSP_RTC_GetDateTime(&outCard->swipeDT);
 2135              		.loc 1 283 5 view .LVU570
 2136 0022 0368     		ldr	r3, [r0]	@ unaligned
 2137 0024 0846     		mov	r0, r1
 2138              	.LVL244:
 283:BSP/NFC.c     ****     BSP_RTC_GetDateTime(&outCard->swipeDT);
 2139              		.loc 1 283 5 is_stmt 0 view .LVU571
 2140 0026 40F8123B 		str	r3, [r0], #18	@ unaligned
 284:BSP/NFC.c     **** 
 2141              		.loc 1 284 5 is_stmt 1 view .LVU572
 2142 002a FFF7FEFF 		bl	BSP_RTC_GetDateTime
 2143              	.LVL245:
 287:BSP/NFC.c     ****         if (retry > 0) {
 2144              		.loc 1 287 5 view .LVU573
 2145              	.LBB64:
 287:BSP/NFC.c     ****         if (retry > 0) {
 2146              		.loc 1 287 10 view .LVU574
 287:BSP/NFC.c     ****         if (retry > 0) {
 2147              		.loc 1 287 5 is_stmt 0 view .LVU575
 2148 002e 00E0     		b	.L159
 2149              	.LVL246:
 2150              	.L162:
 287:BSP/NFC.c     ****         if (retry > 0) {
 2151              		.loc 1 287 54 is_stmt 1 discriminator 2 view .LVU576
 2152 0030 0134     		adds	r4, r4, #1
 2153              	.LVL247:
 2154              	.L159:
 287:BSP/NFC.c     ****         if (retry > 0) {
 2155              		.loc 1 287 31 discriminator 1 view .LVU577
 2156 0032 022C     		cmp	r4, #2
 2157 0034 1BDC     		bgt	.L180
 288:BSP/NFC.c     ****             RC522_Halt();
 2158              		.loc 1 288 9 view .LVU578
 288:BSP/NFC.c     ****             RC522_Halt();
 2159              		.loc 1 288 12 is_stmt 0 view .LVU579
 2160 0036 002C     		cmp	r4, #0
 2161 0038 09DD     		ble	.L160
 2162              	.LBB65:
 289:BSP/NFC.c     ****             osDelay(5);
 2163              		.loc 1 289 13 is_stmt 1 view .LVU580
 2164 003a FFF7FEFF 		bl	RC522_Halt
 2165              	.LVL248:
 290:BSP/NFC.c     ****             uint8_t reUID[4];
 2166              		.loc 1 290 13 view .LVU581
 2167 003e 0520     		movs	r0, #5
 2168 0040 FFF7FEFF 		bl	osDelay
 2169              	.LVL249:
 291:BSP/NFC.c     ****             status = RC522_ScanCard(reUID);
 2170              		.loc 1 291 13 view .LVU582
 292:BSP/NFC.c     ****             if (status != RC522_OK) continue;
 2171              		.loc 1 292 13 view .LVU583
 292:BSP/NFC.c     ****             if (status != RC522_OK) continue;
ARM GAS  C:\Users\24120\AppData\Local\Temp\ccaaYZuv.s 			page 58


 2172              		.loc 1 292 22 is_stmt 0 view .LVU584
 2173 0044 01A8     		add	r0, sp, #4
 2174 0046 FFF7FEFF 		bl	RC522_ScanCard
 2175              	.LVL250:
 293:BSP/NFC.c     ****         }
 2176              		.loc 1 293 13 is_stmt 1 view .LVU585
 293:BSP/NFC.c     ****         }
 2177              		.loc 1 293 16 is_stmt 0 view .LVU586
 2178 004a 0028     		cmp	r0, #0
 2179 004c F0D1     		bne	.L162
 2180              	.LVL251:
 2181              	.L160:
 293:BSP/NFC.c     ****         }
 2182              		.loc 1 293 16 view .LVU587
 2183              	.LBE65:
 295:BSP/NFC.c     ****                                  3, (uint8_t *)s_defaultKey, outCard->uid);
 2184              		.loc 1 295 9 is_stmt 1 view .LVU588
 295:BSP/NFC.c     ****                                  3, (uint8_t *)s_defaultKey, outCard->uid);
 2185              		.loc 1 295 18 is_stmt 0 view .LVU589
 2186 004e 2B46     		mov	r3, r5
 2187 0050 384A     		ldr	r2, .L183
 2188 0052 0321     		movs	r1, #3
 2189 0054 6020     		movs	r0, #96
 2190 0056 FFF7FEFF 		bl	RC522_AuthState
 2191              	.LVL252:
 297:BSP/NFC.c     ****         status = RC522_ReadBlock(0, 1, blockData);
 2192              		.loc 1 297 9 is_stmt 1 view .LVU590
 297:BSP/NFC.c     ****         status = RC522_ReadBlock(0, 1, blockData);
 2193              		.loc 1 297 12 is_stmt 0 view .LVU591
 2194 005a 0028     		cmp	r0, #0
 2195 005c E8D1     		bne	.L162
 298:BSP/NFC.c     ****         if (status == RC522_OK) { readOk = 1; break; }
 2196              		.loc 1 298 9 is_stmt 1 view .LVU592
 298:BSP/NFC.c     ****         if (status == RC522_OK) { readOk = 1; break; }
 2197              		.loc 1 298 18 is_stmt 0 view .LVU593
 2198 005e 02AA     		add	r2, sp, #8
 2199 0060 0121     		movs	r1, #1
 2200 0062 FFF7FEFF 		bl	RC522_ReadBlock
 2201              	.LVL253:
 299:BSP/NFC.c     ****     }
 2202              		.loc 1 299 9 is_stmt 1 view .LVU594
 299:BSP/NFC.c     ****     }
 2203              		.loc 1 299 12 is_stmt 0 view .LVU595
 2204 0066 0028     		cmp	r0, #0
 2205 0068 E2D1     		bne	.L162
 299:BSP/NFC.c     ****     }
 2206              		.loc 1 299 42 discriminator 1 view .LVU596
 2207 006a 0123     		movs	r3, #1
 2208 006c 00E0     		b	.L163
 2209              	.LVL254:
 2210              	.L180:
 299:BSP/NFC.c     ****     }
 2211              		.loc 1 299 42 discriminator 1 view .LVU597
 2212              	.LBE64:
 276:BSP/NFC.c     **** 
 2213              		.loc 1 276 13 view .LVU598
 2214 006e 0023     		movs	r3, #0
ARM GAS  C:\Users\24120\AppData\Local\Temp\ccaaYZuv.s 			page 59


 2215              	.L163:
 2216              	.LVL255:
 302:BSP/NFC.c     **** 
 2217              		.loc 1 302 5 is_stmt 1 view .LVU599
 302:BSP/NFC.c     **** 
 2218              		.loc 1 302 8 is_stmt 0 view .LVU600
 2219 0070 002B     		cmp	r3, #0
 2220 0072 56D0     		beq	.L171
 2221              	.LBB66:
 306:BSP/NFC.c     ****     uint16_t checksum = blockData[14] | ((uint16_t)blockData[15] << 8);
 2222              		.loc 1 306 14 view .LVU601
 2223 0074 0023     		movs	r3, #0
 2224              	.LVL256:
 306:BSP/NFC.c     ****     uint16_t checksum = blockData[14] | ((uint16_t)blockData[15] << 8);
 2225              		.loc 1 306 14 view .LVU602
 2226              	.LBE66:
 305:BSP/NFC.c     ****     for (int i = 0; i < 14; i++) sum += blockData[i];
 2227              		.loc 1 305 14 view .LVU603
 2228 0076 1A46     		mov	r2, r3
 2229              	.L165:
 2230              	.LVL257:
 2231              	.LBB67:
 306:BSP/NFC.c     ****     uint16_t checksum = blockData[14] | ((uint16_t)blockData[15] << 8);
 2232              		.loc 1 306 23 is_stmt 1 discriminator 1 view .LVU604
 2233 0078 0D2B     		cmp	r3, #13
 2234 007a 08DC     		bgt	.L181
 306:BSP/NFC.c     ****     uint16_t checksum = blockData[14] | ((uint16_t)blockData[15] << 8);
 2235              		.loc 1 306 34 discriminator 3 view .LVU605
 306:BSP/NFC.c     ****     uint16_t checksum = blockData[14] | ((uint16_t)blockData[15] << 8);
 2236              		.loc 1 306 50 is_stmt 0 discriminator 3 view .LVU606
 2237 007c 03F11801 		add	r1, r3, #24
 2238 0080 6944     		add	r1, sp, r1
 2239 0082 11F8101C 		ldrb	r1, [r1, #-16]	@ zero_extendqisi2
 306:BSP/NFC.c     ****     uint16_t checksum = blockData[14] | ((uint16_t)blockData[15] << 8);
 2240              		.loc 1 306 38 discriminator 3 view .LVU607
 2241 0086 0A44     		add	r2, r2, r1
 2242              	.LVL258:
 306:BSP/NFC.c     ****     uint16_t checksum = blockData[14] | ((uint16_t)blockData[15] << 8);
 2243              		.loc 1 306 38 discriminator 3 view .LVU608
 2244 0088 92B2     		uxth	r2, r2
 2245              	.LVL259:
 306:BSP/NFC.c     ****     uint16_t checksum = blockData[14] | ((uint16_t)blockData[15] << 8);
 2246              		.loc 1 306 30 is_stmt 1 discriminator 3 view .LVU609
 2247 008a 0133     		adds	r3, r3, #1
 2248              	.LVL260:
 306:BSP/NFC.c     ****     uint16_t checksum = blockData[14] | ((uint16_t)blockData[15] << 8);
 2249              		.loc 1 306 30 is_stmt 0 discriminator 3 view .LVU610
 2250 008c F4E7     		b	.L165
 2251              	.LVL261:
 2252              	.L181:
 306:BSP/NFC.c     ****     uint16_t checksum = blockData[14] | ((uint16_t)blockData[15] << 8);
 2253              		.loc 1 306 30 discriminator 3 view .LVU611
 2254              	.LBE67:
 307:BSP/NFC.c     ****     outCard->statusFlag = blockData[13];
 2255              		.loc 1 307 5 is_stmt 1 view .LVU612
 307:BSP/NFC.c     ****     outCard->statusFlag = blockData[13];
 2256              		.loc 1 307 34 is_stmt 0 view .LVU613
ARM GAS  C:\Users\24120\AppData\Local\Temp\ccaaYZuv.s 			page 60


 2257 008e 9DF81630 		ldrb	r3, [sp, #22]	@ zero_extendqisi2
 2258              	.LVL262:
 307:BSP/NFC.c     ****     outCard->statusFlag = blockData[13];
 2259              		.loc 1 307 61 view .LVU614
 2260 0092 9DF81710 		ldrb	r1, [sp, #23]	@ zero_extendqisi2
 307:BSP/NFC.c     ****     outCard->statusFlag = blockData[13];
 2261              		.loc 1 307 14 view .LVU615
 2262 0096 43EA0123 		orr	r3, r3, r1, lsl #8
 2263              	.LVL263:
 308:BSP/NFC.c     ****     if (sum != checksum || outCard->statusFlag == 0xFF)
 2264              		.loc 1 308 5 is_stmt 1 view .LVU616
 308:BSP/NFC.c     ****     if (sum != checksum || outCard->statusFlag == 0xFF)
 2265              		.loc 1 308 36 is_stmt 0 view .LVU617
 2266 009a 9DF81510 		ldrb	r1, [sp, #21]	@ zero_extendqisi2
 308:BSP/NFC.c     ****     if (sum != checksum || outCard->statusFlag == 0xFF)
 2267              		.loc 1 308 25 view .LVU618
 2268 009e 6974     		strb	r1, [r5, #17]
 309:BSP/NFC.c     ****         return NFC_EVT_INVALID;
 2269              		.loc 1 309 5 is_stmt 1 view .LVU619
 309:BSP/NFC.c     ****         return NFC_EVT_INVALID;
 2270              		.loc 1 309 8 is_stmt 0 view .LVU620
 2271 00a0 9A42     		cmp	r2, r3
 2272 00a2 40D1     		bne	.L172
 309:BSP/NFC.c     ****         return NFC_EVT_INVALID;
 2273              		.loc 1 309 25 discriminator 1 view .LVU621
 2274 00a4 FF29     		cmp	r1, #255
 2275 00a6 40D0     		beq	.L173
 313:BSP/NFC.c     ****                       ((uint32_t)blockData[1] << 8)  |
 2276              		.loc 1 313 5 is_stmt 1 view .LVU622
 313:BSP/NFC.c     ****                       ((uint32_t)blockData[1] << 8)  |
 2277              		.loc 1 313 43 is_stmt 0 view .LVU623
 2278 00a8 9DF80830 		ldrb	r3, [sp, #8]	@ zero_extendqisi2
 2279              	.LVL264:
 314:BSP/NFC.c     ****                       ((uint32_t)blockData[2] << 16) |
 2280              		.loc 1 314 43 view .LVU624
 2281 00ac 9DF80920 		ldrb	r2, [sp, #9]	@ zero_extendqisi2
 2282              	.LVL265:
 313:BSP/NFC.c     ****                       ((uint32_t)blockData[1] << 8)  |
 2283              		.loc 1 313 54 view .LVU625
 2284 00b0 43EA0223 		orr	r3, r3, r2, lsl #8
 315:BSP/NFC.c     ****                       ((uint32_t)blockData[3] << 24);
 2285              		.loc 1 315 43 view .LVU626
 2286 00b4 9DF80A20 		ldrb	r2, [sp, #10]	@ zero_extendqisi2
 314:BSP/NFC.c     ****                       ((uint32_t)blockData[2] << 16) |
 2287              		.loc 1 314 54 view .LVU627
 2288 00b8 43EA0243 		orr	r3, r3, r2, lsl #16
 316:BSP/NFC.c     ****     outCard->sid   =  (uint32_t)blockData[4]        |
 2289              		.loc 1 316 43 view .LVU628
 2290 00bc 9DF80B20 		ldrb	r2, [sp, #11]	@ zero_extendqisi2
 315:BSP/NFC.c     ****                       ((uint32_t)blockData[3] << 24);
 2291              		.loc 1 315 54 view .LVU629
 2292 00c0 43EA0263 		orr	r3, r3, r2, lsl #24
 313:BSP/NFC.c     ****                       ((uint32_t)blockData[1] << 8)  |
 2293              		.loc 1 313 21 view .LVU630
 2294 00c4 6B60     		str	r3, [r5, #4]
 2295              	.LVL266:
 317:BSP/NFC.c     ****                       ((uint32_t)blockData[5] << 8)  |
ARM GAS  C:\Users\24120\AppData\Local\Temp\ccaaYZuv.s 			page 61


 2296              		.loc 1 317 5 is_stmt 1 view .LVU631
 317:BSP/NFC.c     ****                       ((uint32_t)blockData[5] << 8)  |
 2297              		.loc 1 317 42 is_stmt 0 view .LVU632
 2298 00c6 9DF80C20 		ldrb	r2, [sp, #12]	@ zero_extendqisi2
 318:BSP/NFC.c     ****                       ((uint32_t)blockData[6] << 16) |
 2299              		.loc 1 318 43 view .LVU633
 2300 00ca 9DF80D10 		ldrb	r1, [sp, #13]	@ zero_extendqisi2
 317:BSP/NFC.c     ****                       ((uint32_t)blockData[5] << 8)  |
 2301              		.loc 1 317 53 view .LVU634
 2302 00ce 42EA0122 		orr	r2, r2, r1, lsl #8
 319:BSP/NFC.c     ****                       ((uint32_t)blockData[7] << 24);
 2303              		.loc 1 319 43 view .LVU635
 2304 00d2 9DF80E10 		ldrb	r1, [sp, #14]	@ zero_extendqisi2
 318:BSP/NFC.c     ****                       ((uint32_t)blockData[6] << 16) |
 2305              		.loc 1 318 54 view .LVU636
 2306 00d6 42EA0142 		orr	r2, r2, r1, lsl #16
 320:BSP/NFC.c     ****     outCard->points =  (uint32_t)blockData[8]        |
 2307              		.loc 1 320 43 view .LVU637
 2308 00da 9DF80F10 		ldrb	r1, [sp, #15]	@ zero_extendqisi2
 319:BSP/NFC.c     ****                       ((uint32_t)blockData[7] << 24);
 2309              		.loc 1 319 54 view .LVU638
 2310 00de 42EA0162 		orr	r2, r2, r1, lsl #24
 317:BSP/NFC.c     ****                       ((uint32_t)blockData[5] << 8)  |
 2311              		.loc 1 317 20 view .LVU639
 2312 00e2 AA60     		str	r2, [r5, #8]
 321:BSP/NFC.c     ****                       ((uint32_t)blockData[9] << 8)  |
 2313              		.loc 1 321 5 is_stmt 1 view .LVU640
 321:BSP/NFC.c     ****                       ((uint32_t)blockData[9] << 8)  |
 2314              		.loc 1 321 43 is_stmt 0 view .LVU641
 2315 00e4 9DF81020 		ldrb	r2, [sp, #16]	@ zero_extendqisi2
 322:BSP/NFC.c     ****                       ((uint32_t)blockData[10] << 16) |
 2316              		.loc 1 322 43 view .LVU642
 2317 00e8 9DF81110 		ldrb	r1, [sp, #17]	@ zero_extendqisi2
 321:BSP/NFC.c     ****                       ((uint32_t)blockData[9] << 8)  |
 2318              		.loc 1 321 54 view .LVU643
 2319 00ec 42EA0122 		orr	r2, r2, r1, lsl #8
 323:BSP/NFC.c     ****                       ((uint32_t)blockData[11] << 24);
 2320              		.loc 1 323 43 view .LVU644
 2321 00f0 9DF81210 		ldrb	r1, [sp, #18]	@ zero_extendqisi2
 322:BSP/NFC.c     ****                       ((uint32_t)blockData[10] << 16) |
 2322              		.loc 1 322 54 view .LVU645
 2323 00f4 42EA0142 		orr	r2, r2, r1, lsl #16
 324:BSP/NFC.c     ****     outCard->cardType = blockData[12];
 2324              		.loc 1 324 43 view .LVU646
 2325 00f8 9DF81310 		ldrb	r1, [sp, #19]	@ zero_extendqisi2
 323:BSP/NFC.c     ****                       ((uint32_t)blockData[11] << 24);
 2326              		.loc 1 323 55 view .LVU647
 2327 00fc 42EA0162 		orr	r2, r2, r1, lsl #24
 321:BSP/NFC.c     ****                       ((uint32_t)blockData[9] << 8)  |
 2328              		.loc 1 321 21 view .LVU648
 2329 0100 EA60     		str	r2, [r5, #12]
 325:BSP/NFC.c     **** 
 2330              		.loc 1 325 5 is_stmt 1 view .LVU649
 325:BSP/NFC.c     **** 
 2331              		.loc 1 325 34 is_stmt 0 view .LVU650
 2332 0102 9DF81420 		ldrb	r2, [sp, #20]	@ zero_extendqisi2
 325:BSP/NFC.c     **** 
ARM GAS  C:\Users\24120\AppData\Local\Temp\ccaaYZuv.s 			page 62


 2333              		.loc 1 325 23 view .LVU651
 2334 0106 2A74     		strb	r2, [r5, #16]
 327:BSP/NFC.c     ****         return NFC_EVT_INVALID;
 2335              		.loc 1 327 5 is_stmt 1 view .LVU652
 327:BSP/NFC.c     ****         return NFC_EVT_INVALID;
 2336              		.loc 1 327 8 is_stmt 0 view .LVU653
 2337 0108 03B9     		cbnz	r3, .L167
 327:BSP/NFC.c     ****         return NFC_EVT_INVALID;
 2338              		.loc 1 327 30 discriminator 1 view .LVU654
 2339 010a 82B1     		cbz	r2, .L174
 2340              	.L167:
 330:BSP/NFC.c     ****     case 0x02: return NFC_EVT_ADMIN;
 2341              		.loc 1 330 5 is_stmt 1 view .LVU655
 2342 010c 022A     		cmp	r2, #2
 2343 010e 02D0     		beq	.L182
 333:BSP/NFC.c     ****     }
 2344              		.loc 1 333 23 is_stmt 0 view .LVU656
 2345 0110 0120     		movs	r0, #1
 2346              	.LVL267:
 2347              	.L158:
 335:BSP/NFC.c     **** 
 2348              		.loc 1 335 1 view .LVU657
 2349 0112 07B0     		add	sp, sp, #28
 2350              	.LCFI22:
 2351              		.cfi_remember_state
 2352              		.cfi_def_cfa_offset 12
 2353              		@ sp needed
 2354 0114 30BD     		pop	{r4, r5, pc}
 2355              	.LVL268:
 2356              	.L182:
 2357              	.LCFI23:
 2358              		.cfi_restore_state
 331:BSP/NFC.c     ****     case 0x01:
 2359              		.loc 1 331 23 view .LVU658
 2360 0116 0420     		movs	r0, #4
 2361 0118 FBE7     		b	.L158
 2362              	.LVL269:
 2363              	.L168:
 2364              	.LCFI24:
 2365              		.cfi_def_cfa_offset 0
 2366              		.cfi_restore 4
 2367              		.cfi_restore 5
 2368              		.cfi_restore 14
 279:BSP/NFC.c     ****     }
 2369              		.loc 1 279 16 view .LVU659
 2370 011a 0220     		movs	r0, #2
 2371              	.LVL270:
 335:BSP/NFC.c     **** 
 2372              		.loc 1 335 1 view .LVU660
 2373 011c 7047     		bx	lr
 2374              	.LVL271:
 2375              	.L169:
 2376              	.LCFI25:
 2377              		.cfi_def_cfa_offset 40
 2378              		.cfi_offset 4, -12
 2379              		.cfi_offset 5, -8
 2380              		.cfi_offset 14, -4
ARM GAS  C:\Users\24120\AppData\Local\Temp\ccaaYZuv.s 			page 63


 279:BSP/NFC.c     ****     }
 2381              		.loc 1 279 16 view .LVU661
 2382 011e 0220     		movs	r0, #2
 2383              	.LVL272:
 279:BSP/NFC.c     ****     }
 2384              		.loc 1 279 16 view .LVU662
 2385 0120 F7E7     		b	.L158
 2386              	.LVL273:
 2387              	.L171:
 302:BSP/NFC.c     **** 
 2388              		.loc 1 302 25 discriminator 1 view .LVU663
 2389 0122 0220     		movs	r0, #2
 2390 0124 F5E7     		b	.L158
 2391              	.LVL274:
 2392              	.L172:
 310:BSP/NFC.c     **** 
 2393              		.loc 1 310 16 view .LVU664
 2394 0126 0220     		movs	r0, #2
 2395 0128 F3E7     		b	.L158
 2396              	.L173:
 2397 012a 0220     		movs	r0, #2
 2398 012c F1E7     		b	.L158
 2399              	.LVL275:
 2400              	.L174:
 328:BSP/NFC.c     **** 
 2401              		.loc 1 328 16 view .LVU665
 2402 012e 0220     		movs	r0, #2
 2403 0130 EFE7     		b	.L158
 2404              	.L184:
 2405 0132 00BF     		.align	2
 2406              	.L183:
 2407 0134 00000000 		.word	s_defaultKey
 2408              		.cfi_endproc
 2409              	.LFE251:
 2411              		.section	.text.NFC_LockReader,"ax",%progbits
 2412              		.align	1
 2413              		.global	NFC_LockReader
 2414              		.syntax unified
 2415              		.thumb
 2416              		.thumb_func
 2418              	NFC_LockReader:
 2419              	.LFB252:
 351:BSP/NFC.c     ****     __disable_irq();
 2420              		.loc 1 351 32 is_stmt 1 view -0
 2421              		.cfi_startproc
 2422              		@ args = 0, pretend = 0, frame = 0
 2423              		@ frame_needed = 0, uses_anonymous_args = 0
 2424              		@ link register save eliminated.
 352:BSP/NFC.c     ****     if (s_readerLocked) { __enable_irq(); return 0; }
 2425              		.loc 1 352 5 view .LVU667
 2426              	.LBB68:
 2427              	.LBI68:
 2428              		.file 2 "Drivers/CMSIS/Include/cmsis_gcc.h"
   1:Drivers/CMSIS/Include/cmsis_gcc.h **** /**************************************************************************//**
   2:Drivers/CMSIS/Include/cmsis_gcc.h ****  * @file     cmsis_gcc.h
   3:Drivers/CMSIS/Include/cmsis_gcc.h ****  * @brief    CMSIS compiler GCC header file
   4:Drivers/CMSIS/Include/cmsis_gcc.h ****  * @version  V5.4.1
ARM GAS  C:\Users\24120\AppData\Local\Temp\ccaaYZuv.s 			page 64


   5:Drivers/CMSIS/Include/cmsis_gcc.h ****  * @date     27. May 2021
   6:Drivers/CMSIS/Include/cmsis_gcc.h ****  ******************************************************************************/
   7:Drivers/CMSIS/Include/cmsis_gcc.h **** /*
   8:Drivers/CMSIS/Include/cmsis_gcc.h ****  * Copyright (c) 2009-2021 Arm Limited. All rights reserved.
   9:Drivers/CMSIS/Include/cmsis_gcc.h ****  *
  10:Drivers/CMSIS/Include/cmsis_gcc.h ****  * SPDX-License-Identifier: Apache-2.0
  11:Drivers/CMSIS/Include/cmsis_gcc.h ****  *
  12:Drivers/CMSIS/Include/cmsis_gcc.h ****  * Licensed under the Apache License, Version 2.0 (the License); you may
  13:Drivers/CMSIS/Include/cmsis_gcc.h ****  * not use this file except in compliance with the License.
  14:Drivers/CMSIS/Include/cmsis_gcc.h ****  * You may obtain a copy of the License at
  15:Drivers/CMSIS/Include/cmsis_gcc.h ****  *
  16:Drivers/CMSIS/Include/cmsis_gcc.h ****  * www.apache.org/licenses/LICENSE-2.0
  17:Drivers/CMSIS/Include/cmsis_gcc.h ****  *
  18:Drivers/CMSIS/Include/cmsis_gcc.h ****  * Unless required by applicable law or agreed to in writing, software
  19:Drivers/CMSIS/Include/cmsis_gcc.h ****  * distributed under the License is distributed on an AS IS BASIS, WITHOUT
  20:Drivers/CMSIS/Include/cmsis_gcc.h ****  * WARRANTIES OR CONDITIONS OF ANY KIND, either express or implied.
  21:Drivers/CMSIS/Include/cmsis_gcc.h ****  * See the License for the specific language governing permissions and
  22:Drivers/CMSIS/Include/cmsis_gcc.h ****  * limitations under the License.
  23:Drivers/CMSIS/Include/cmsis_gcc.h ****  */
  24:Drivers/CMSIS/Include/cmsis_gcc.h **** 
  25:Drivers/CMSIS/Include/cmsis_gcc.h **** #ifndef __CMSIS_GCC_H
  26:Drivers/CMSIS/Include/cmsis_gcc.h **** #define __CMSIS_GCC_H
  27:Drivers/CMSIS/Include/cmsis_gcc.h **** 
  28:Drivers/CMSIS/Include/cmsis_gcc.h **** /* ignore some GCC warnings */
  29:Drivers/CMSIS/Include/cmsis_gcc.h **** #pragma GCC diagnostic push
  30:Drivers/CMSIS/Include/cmsis_gcc.h **** #pragma GCC diagnostic ignored "-Wsign-conversion"
  31:Drivers/CMSIS/Include/cmsis_gcc.h **** #pragma GCC diagnostic ignored "-Wconversion"
  32:Drivers/CMSIS/Include/cmsis_gcc.h **** #pragma GCC diagnostic ignored "-Wunused-parameter"
  33:Drivers/CMSIS/Include/cmsis_gcc.h **** 
  34:Drivers/CMSIS/Include/cmsis_gcc.h **** /* Fallback for __has_builtin */
  35:Drivers/CMSIS/Include/cmsis_gcc.h **** #ifndef __has_builtin
  36:Drivers/CMSIS/Include/cmsis_gcc.h ****   #define __has_builtin(x) (0)
  37:Drivers/CMSIS/Include/cmsis_gcc.h **** #endif
  38:Drivers/CMSIS/Include/cmsis_gcc.h **** 
  39:Drivers/CMSIS/Include/cmsis_gcc.h **** /* CMSIS compiler specific defines */
  40:Drivers/CMSIS/Include/cmsis_gcc.h **** #ifndef   __ASM
  41:Drivers/CMSIS/Include/cmsis_gcc.h ****   #define __ASM                                  __asm
  42:Drivers/CMSIS/Include/cmsis_gcc.h **** #endif
  43:Drivers/CMSIS/Include/cmsis_gcc.h **** #ifndef   __INLINE
  44:Drivers/CMSIS/Include/cmsis_gcc.h ****   #define __INLINE                               inline
  45:Drivers/CMSIS/Include/cmsis_gcc.h **** #endif
  46:Drivers/CMSIS/Include/cmsis_gcc.h **** #ifndef   __STATIC_INLINE
  47:Drivers/CMSIS/Include/cmsis_gcc.h ****   #define __STATIC_INLINE                        static inline
  48:Drivers/CMSIS/Include/cmsis_gcc.h **** #endif
  49:Drivers/CMSIS/Include/cmsis_gcc.h **** #ifndef   __STATIC_FORCEINLINE
  50:Drivers/CMSIS/Include/cmsis_gcc.h ****   #define __STATIC_FORCEINLINE                   __attribute__((always_inline)) static inline
  51:Drivers/CMSIS/Include/cmsis_gcc.h **** #endif
  52:Drivers/CMSIS/Include/cmsis_gcc.h **** #ifndef   __NO_RETURN
  53:Drivers/CMSIS/Include/cmsis_gcc.h ****   #define __NO_RETURN                            __attribute__((__noreturn__))
  54:Drivers/CMSIS/Include/cmsis_gcc.h **** #endif
  55:Drivers/CMSIS/Include/cmsis_gcc.h **** #ifndef   __USED
  56:Drivers/CMSIS/Include/cmsis_gcc.h ****   #define __USED                                 __attribute__((used))
  57:Drivers/CMSIS/Include/cmsis_gcc.h **** #endif
  58:Drivers/CMSIS/Include/cmsis_gcc.h **** #ifndef   __WEAK
  59:Drivers/CMSIS/Include/cmsis_gcc.h ****   #define __WEAK                                 __attribute__((weak))
  60:Drivers/CMSIS/Include/cmsis_gcc.h **** #endif
  61:Drivers/CMSIS/Include/cmsis_gcc.h **** #ifndef   __PACKED
ARM GAS  C:\Users\24120\AppData\Local\Temp\ccaaYZuv.s 			page 65


  62:Drivers/CMSIS/Include/cmsis_gcc.h ****   #define __PACKED                               __attribute__((packed, aligned(1)))
  63:Drivers/CMSIS/Include/cmsis_gcc.h **** #endif
  64:Drivers/CMSIS/Include/cmsis_gcc.h **** #ifndef   __PACKED_STRUCT
  65:Drivers/CMSIS/Include/cmsis_gcc.h ****   #define __PACKED_STRUCT                        struct __attribute__((packed, aligned(1)))
  66:Drivers/CMSIS/Include/cmsis_gcc.h **** #endif
  67:Drivers/CMSIS/Include/cmsis_gcc.h **** #ifndef   __PACKED_UNION
  68:Drivers/CMSIS/Include/cmsis_gcc.h ****   #define __PACKED_UNION                         union __attribute__((packed, aligned(1)))
  69:Drivers/CMSIS/Include/cmsis_gcc.h **** #endif
  70:Drivers/CMSIS/Include/cmsis_gcc.h **** #ifndef   __UNALIGNED_UINT32        /* deprecated */
  71:Drivers/CMSIS/Include/cmsis_gcc.h ****   #pragma GCC diagnostic push
  72:Drivers/CMSIS/Include/cmsis_gcc.h ****   #pragma GCC diagnostic ignored "-Wpacked"
  73:Drivers/CMSIS/Include/cmsis_gcc.h ****   #pragma GCC diagnostic ignored "-Wattributes"
  74:Drivers/CMSIS/Include/cmsis_gcc.h ****   struct __attribute__((packed)) T_UINT32 { uint32_t v; };
  75:Drivers/CMSIS/Include/cmsis_gcc.h ****   #pragma GCC diagnostic pop
  76:Drivers/CMSIS/Include/cmsis_gcc.h ****   #define __UNALIGNED_UINT32(x)                  (((struct T_UINT32 *)(x))->v)
  77:Drivers/CMSIS/Include/cmsis_gcc.h **** #endif
  78:Drivers/CMSIS/Include/cmsis_gcc.h **** #ifndef   __UNALIGNED_UINT16_WRITE
  79:Drivers/CMSIS/Include/cmsis_gcc.h ****   #pragma GCC diagnostic push
  80:Drivers/CMSIS/Include/cmsis_gcc.h ****   #pragma GCC diagnostic ignored "-Wpacked"
  81:Drivers/CMSIS/Include/cmsis_gcc.h ****   #pragma GCC diagnostic ignored "-Wattributes"
  82:Drivers/CMSIS/Include/cmsis_gcc.h ****   __PACKED_STRUCT T_UINT16_WRITE { uint16_t v; };
  83:Drivers/CMSIS/Include/cmsis_gcc.h ****   #pragma GCC diagnostic pop
  84:Drivers/CMSIS/Include/cmsis_gcc.h ****   #define __UNALIGNED_UINT16_WRITE(addr, val)    (void)((((struct T_UINT16_WRITE *)(void *)(addr))-
  85:Drivers/CMSIS/Include/cmsis_gcc.h **** #endif
  86:Drivers/CMSIS/Include/cmsis_gcc.h **** #ifndef   __UNALIGNED_UINT16_READ
  87:Drivers/CMSIS/Include/cmsis_gcc.h ****   #pragma GCC diagnostic push
  88:Drivers/CMSIS/Include/cmsis_gcc.h ****   #pragma GCC diagnostic ignored "-Wpacked"
  89:Drivers/CMSIS/Include/cmsis_gcc.h ****   #pragma GCC diagnostic ignored "-Wattributes"
  90:Drivers/CMSIS/Include/cmsis_gcc.h ****   __PACKED_STRUCT T_UINT16_READ { uint16_t v; };
  91:Drivers/CMSIS/Include/cmsis_gcc.h ****   #pragma GCC diagnostic pop
  92:Drivers/CMSIS/Include/cmsis_gcc.h ****   #define __UNALIGNED_UINT16_READ(addr)          (((const struct T_UINT16_READ *)(const void *)(add
  93:Drivers/CMSIS/Include/cmsis_gcc.h **** #endif
  94:Drivers/CMSIS/Include/cmsis_gcc.h **** #ifndef   __UNALIGNED_UINT32_WRITE
  95:Drivers/CMSIS/Include/cmsis_gcc.h ****   #pragma GCC diagnostic push
  96:Drivers/CMSIS/Include/cmsis_gcc.h ****   #pragma GCC diagnostic ignored "-Wpacked"
  97:Drivers/CMSIS/Include/cmsis_gcc.h ****   #pragma GCC diagnostic ignored "-Wattributes"
  98:Drivers/CMSIS/Include/cmsis_gcc.h ****   __PACKED_STRUCT T_UINT32_WRITE { uint32_t v; };
  99:Drivers/CMSIS/Include/cmsis_gcc.h ****   #pragma GCC diagnostic pop
 100:Drivers/CMSIS/Include/cmsis_gcc.h ****   #define __UNALIGNED_UINT32_WRITE(addr, val)    (void)((((struct T_UINT32_WRITE *)(void *)(addr))-
 101:Drivers/CMSIS/Include/cmsis_gcc.h **** #endif
 102:Drivers/CMSIS/Include/cmsis_gcc.h **** #ifndef   __UNALIGNED_UINT32_READ
 103:Drivers/CMSIS/Include/cmsis_gcc.h ****   #pragma GCC diagnostic push
 104:Drivers/CMSIS/Include/cmsis_gcc.h ****   #pragma GCC diagnostic ignored "-Wpacked"
 105:Drivers/CMSIS/Include/cmsis_gcc.h ****   #pragma GCC diagnostic ignored "-Wattributes"
 106:Drivers/CMSIS/Include/cmsis_gcc.h ****   __PACKED_STRUCT T_UINT32_READ { uint32_t v; };
 107:Drivers/CMSIS/Include/cmsis_gcc.h ****   #pragma GCC diagnostic pop
 108:Drivers/CMSIS/Include/cmsis_gcc.h ****   #define __UNALIGNED_UINT32_READ(addr)          (((const struct T_UINT32_READ *)(const void *)(add
 109:Drivers/CMSIS/Include/cmsis_gcc.h **** #endif
 110:Drivers/CMSIS/Include/cmsis_gcc.h **** #ifndef   __ALIGNED
 111:Drivers/CMSIS/Include/cmsis_gcc.h ****   #define __ALIGNED(x)                           __attribute__((aligned(x)))
 112:Drivers/CMSIS/Include/cmsis_gcc.h **** #endif
 113:Drivers/CMSIS/Include/cmsis_gcc.h **** #ifndef   __RESTRICT
 114:Drivers/CMSIS/Include/cmsis_gcc.h ****   #define __RESTRICT                             __restrict
 115:Drivers/CMSIS/Include/cmsis_gcc.h **** #endif
 116:Drivers/CMSIS/Include/cmsis_gcc.h **** #ifndef   __COMPILER_BARRIER
 117:Drivers/CMSIS/Include/cmsis_gcc.h ****   #define __COMPILER_BARRIER()                   __ASM volatile("":::"memory")
 118:Drivers/CMSIS/Include/cmsis_gcc.h **** #endif
ARM GAS  C:\Users\24120\AppData\Local\Temp\ccaaYZuv.s 			page 66


 119:Drivers/CMSIS/Include/cmsis_gcc.h **** 
 120:Drivers/CMSIS/Include/cmsis_gcc.h **** /* #########################  Startup and Lowlevel Init  ######################## */
 121:Drivers/CMSIS/Include/cmsis_gcc.h **** 
 122:Drivers/CMSIS/Include/cmsis_gcc.h **** #ifndef __PROGRAM_START
 123:Drivers/CMSIS/Include/cmsis_gcc.h **** 
 124:Drivers/CMSIS/Include/cmsis_gcc.h **** /**
 125:Drivers/CMSIS/Include/cmsis_gcc.h ****   \brief   Initializes data and bss sections
 126:Drivers/CMSIS/Include/cmsis_gcc.h ****   \details This default implementations initialized all data and additional bss
 127:Drivers/CMSIS/Include/cmsis_gcc.h ****            sections relying on .copy.table and .zero.table specified properly
 128:Drivers/CMSIS/Include/cmsis_gcc.h ****            in the used linker script.
 129:Drivers/CMSIS/Include/cmsis_gcc.h **** 
 130:Drivers/CMSIS/Include/cmsis_gcc.h ****  */
 131:Drivers/CMSIS/Include/cmsis_gcc.h **** __STATIC_FORCEINLINE __NO_RETURN void __cmsis_start(void)
 132:Drivers/CMSIS/Include/cmsis_gcc.h **** {
 133:Drivers/CMSIS/Include/cmsis_gcc.h ****   extern void _start(void) __NO_RETURN;
 134:Drivers/CMSIS/Include/cmsis_gcc.h **** 
 135:Drivers/CMSIS/Include/cmsis_gcc.h ****   typedef struct {
 136:Drivers/CMSIS/Include/cmsis_gcc.h ****     uint32_t const* src;
 137:Drivers/CMSIS/Include/cmsis_gcc.h ****     uint32_t* dest;
 138:Drivers/CMSIS/Include/cmsis_gcc.h ****     uint32_t  wlen;
 139:Drivers/CMSIS/Include/cmsis_gcc.h ****   } __copy_table_t;
 140:Drivers/CMSIS/Include/cmsis_gcc.h **** 
 141:Drivers/CMSIS/Include/cmsis_gcc.h ****   typedef struct {
 142:Drivers/CMSIS/Include/cmsis_gcc.h ****     uint32_t* dest;
 143:Drivers/CMSIS/Include/cmsis_gcc.h ****     uint32_t  wlen;
 144:Drivers/CMSIS/Include/cmsis_gcc.h ****   } __zero_table_t;
 145:Drivers/CMSIS/Include/cmsis_gcc.h **** 
 146:Drivers/CMSIS/Include/cmsis_gcc.h ****   extern const __copy_table_t __copy_table_start__;
 147:Drivers/CMSIS/Include/cmsis_gcc.h ****   extern const __copy_table_t __copy_table_end__;
 148:Drivers/CMSIS/Include/cmsis_gcc.h ****   extern const __zero_table_t __zero_table_start__;
 149:Drivers/CMSIS/Include/cmsis_gcc.h ****   extern const __zero_table_t __zero_table_end__;
 150:Drivers/CMSIS/Include/cmsis_gcc.h **** 
 151:Drivers/CMSIS/Include/cmsis_gcc.h ****   for (__copy_table_t const* pTable = &__copy_table_start__; pTable < &__copy_table_end__; ++pTable
 152:Drivers/CMSIS/Include/cmsis_gcc.h ****     for(uint32_t i=0u; i<pTable->wlen; ++i) {
 153:Drivers/CMSIS/Include/cmsis_gcc.h ****       pTable->dest[i] = pTable->src[i];
 154:Drivers/CMSIS/Include/cmsis_gcc.h ****     }
 155:Drivers/CMSIS/Include/cmsis_gcc.h ****   }
 156:Drivers/CMSIS/Include/cmsis_gcc.h **** 
 157:Drivers/CMSIS/Include/cmsis_gcc.h ****   for (__zero_table_t const* pTable = &__zero_table_start__; pTable < &__zero_table_end__; ++pTable
 158:Drivers/CMSIS/Include/cmsis_gcc.h ****     for(uint32_t i=0u; i<pTable->wlen; ++i) {
 159:Drivers/CMSIS/Include/cmsis_gcc.h ****       pTable->dest[i] = 0u;
 160:Drivers/CMSIS/Include/cmsis_gcc.h ****     }
 161:Drivers/CMSIS/Include/cmsis_gcc.h ****   }
 162:Drivers/CMSIS/Include/cmsis_gcc.h **** 
 163:Drivers/CMSIS/Include/cmsis_gcc.h ****   _start();
 164:Drivers/CMSIS/Include/cmsis_gcc.h **** }
 165:Drivers/CMSIS/Include/cmsis_gcc.h **** 
 166:Drivers/CMSIS/Include/cmsis_gcc.h **** #define __PROGRAM_START           __cmsis_start
 167:Drivers/CMSIS/Include/cmsis_gcc.h **** #endif
 168:Drivers/CMSIS/Include/cmsis_gcc.h **** 
 169:Drivers/CMSIS/Include/cmsis_gcc.h **** #ifndef __INITIAL_SP
 170:Drivers/CMSIS/Include/cmsis_gcc.h **** #define __INITIAL_SP              __StackTop
 171:Drivers/CMSIS/Include/cmsis_gcc.h **** #endif
 172:Drivers/CMSIS/Include/cmsis_gcc.h **** 
 173:Drivers/CMSIS/Include/cmsis_gcc.h **** #ifndef __STACK_LIMIT
 174:Drivers/CMSIS/Include/cmsis_gcc.h **** #define __STACK_LIMIT             __StackLimit
 175:Drivers/CMSIS/Include/cmsis_gcc.h **** #endif
ARM GAS  C:\Users\24120\AppData\Local\Temp\ccaaYZuv.s 			page 67


 176:Drivers/CMSIS/Include/cmsis_gcc.h **** 
 177:Drivers/CMSIS/Include/cmsis_gcc.h **** #ifndef __VECTOR_TABLE
 178:Drivers/CMSIS/Include/cmsis_gcc.h **** #define __VECTOR_TABLE            __Vectors
 179:Drivers/CMSIS/Include/cmsis_gcc.h **** #endif
 180:Drivers/CMSIS/Include/cmsis_gcc.h **** 
 181:Drivers/CMSIS/Include/cmsis_gcc.h **** #ifndef __VECTOR_TABLE_ATTRIBUTE
 182:Drivers/CMSIS/Include/cmsis_gcc.h **** #define __VECTOR_TABLE_ATTRIBUTE  __attribute__((used, section(".vectors")))
 183:Drivers/CMSIS/Include/cmsis_gcc.h **** #endif
 184:Drivers/CMSIS/Include/cmsis_gcc.h **** 
 185:Drivers/CMSIS/Include/cmsis_gcc.h **** #if defined (__ARM_FEATURE_CMSE) && (__ARM_FEATURE_CMSE == 3U)
 186:Drivers/CMSIS/Include/cmsis_gcc.h **** #ifndef __STACK_SEAL
 187:Drivers/CMSIS/Include/cmsis_gcc.h **** #define __STACK_SEAL              __StackSeal
 188:Drivers/CMSIS/Include/cmsis_gcc.h **** #endif
 189:Drivers/CMSIS/Include/cmsis_gcc.h **** 
 190:Drivers/CMSIS/Include/cmsis_gcc.h **** #ifndef __TZ_STACK_SEAL_SIZE
 191:Drivers/CMSIS/Include/cmsis_gcc.h **** #define __TZ_STACK_SEAL_SIZE      8U
 192:Drivers/CMSIS/Include/cmsis_gcc.h **** #endif
 193:Drivers/CMSIS/Include/cmsis_gcc.h **** 
 194:Drivers/CMSIS/Include/cmsis_gcc.h **** #ifndef __TZ_STACK_SEAL_VALUE
 195:Drivers/CMSIS/Include/cmsis_gcc.h **** #define __TZ_STACK_SEAL_VALUE     0xFEF5EDA5FEF5EDA5ULL
 196:Drivers/CMSIS/Include/cmsis_gcc.h **** #endif
 197:Drivers/CMSIS/Include/cmsis_gcc.h **** 
 198:Drivers/CMSIS/Include/cmsis_gcc.h **** 
 199:Drivers/CMSIS/Include/cmsis_gcc.h **** __STATIC_FORCEINLINE void __TZ_set_STACKSEAL_S (uint32_t* stackTop) {
 200:Drivers/CMSIS/Include/cmsis_gcc.h ****   *((uint64_t *)stackTop) = __TZ_STACK_SEAL_VALUE;
 201:Drivers/CMSIS/Include/cmsis_gcc.h **** }
 202:Drivers/CMSIS/Include/cmsis_gcc.h **** #endif
 203:Drivers/CMSIS/Include/cmsis_gcc.h **** 
 204:Drivers/CMSIS/Include/cmsis_gcc.h **** 
 205:Drivers/CMSIS/Include/cmsis_gcc.h **** /* ##########################  Core Instruction Access  ######################### */
 206:Drivers/CMSIS/Include/cmsis_gcc.h **** /** \defgroup CMSIS_Core_InstructionInterface CMSIS Core Instruction Interface
 207:Drivers/CMSIS/Include/cmsis_gcc.h ****   Access to dedicated instructions
 208:Drivers/CMSIS/Include/cmsis_gcc.h ****   @{
 209:Drivers/CMSIS/Include/cmsis_gcc.h **** */
 210:Drivers/CMSIS/Include/cmsis_gcc.h **** 
 211:Drivers/CMSIS/Include/cmsis_gcc.h **** /* Define macros for porting to both thumb1 and thumb2.
 212:Drivers/CMSIS/Include/cmsis_gcc.h ****  * For thumb1, use low register (r0-r7), specified by constraint "l"
 213:Drivers/CMSIS/Include/cmsis_gcc.h ****  * Otherwise, use general registers, specified by constraint "r" */
 214:Drivers/CMSIS/Include/cmsis_gcc.h **** #if defined (__thumb__) && !defined (__thumb2__)
 215:Drivers/CMSIS/Include/cmsis_gcc.h **** #define __CMSIS_GCC_OUT_REG(r) "=l" (r)
 216:Drivers/CMSIS/Include/cmsis_gcc.h **** #define __CMSIS_GCC_RW_REG(r) "+l" (r)
 217:Drivers/CMSIS/Include/cmsis_gcc.h **** #define __CMSIS_GCC_USE_REG(r) "l" (r)
 218:Drivers/CMSIS/Include/cmsis_gcc.h **** #else
 219:Drivers/CMSIS/Include/cmsis_gcc.h **** #define __CMSIS_GCC_OUT_REG(r) "=r" (r)
 220:Drivers/CMSIS/Include/cmsis_gcc.h **** #define __CMSIS_GCC_RW_REG(r) "+r" (r)
 221:Drivers/CMSIS/Include/cmsis_gcc.h **** #define __CMSIS_GCC_USE_REG(r) "r" (r)
 222:Drivers/CMSIS/Include/cmsis_gcc.h **** #endif
 223:Drivers/CMSIS/Include/cmsis_gcc.h **** 
 224:Drivers/CMSIS/Include/cmsis_gcc.h **** /**
 225:Drivers/CMSIS/Include/cmsis_gcc.h ****   \brief   No Operation
 226:Drivers/CMSIS/Include/cmsis_gcc.h ****   \details No Operation does nothing. This instruction can be used for code alignment purposes.
 227:Drivers/CMSIS/Include/cmsis_gcc.h ****  */
 228:Drivers/CMSIS/Include/cmsis_gcc.h **** #define __NOP()                             __ASM volatile ("nop")
 229:Drivers/CMSIS/Include/cmsis_gcc.h **** 
 230:Drivers/CMSIS/Include/cmsis_gcc.h **** /**
 231:Drivers/CMSIS/Include/cmsis_gcc.h ****   \brief   Wait For Interrupt
 232:Drivers/CMSIS/Include/cmsis_gcc.h ****   \details Wait For Interrupt is a hint instruction that suspends execution until one of a number o
ARM GAS  C:\Users\24120\AppData\Local\Temp\ccaaYZuv.s 			page 68


 233:Drivers/CMSIS/Include/cmsis_gcc.h ****  */
 234:Drivers/CMSIS/Include/cmsis_gcc.h **** #define __WFI()                             __ASM volatile ("wfi":::"memory")
 235:Drivers/CMSIS/Include/cmsis_gcc.h **** 
 236:Drivers/CMSIS/Include/cmsis_gcc.h **** 
 237:Drivers/CMSIS/Include/cmsis_gcc.h **** /**
 238:Drivers/CMSIS/Include/cmsis_gcc.h ****   \brief   Wait For Event
 239:Drivers/CMSIS/Include/cmsis_gcc.h ****   \details Wait For Event is a hint instruction that permits the processor to enter
 240:Drivers/CMSIS/Include/cmsis_gcc.h ****            a low-power state until one of a number of events occurs.
 241:Drivers/CMSIS/Include/cmsis_gcc.h ****  */
 242:Drivers/CMSIS/Include/cmsis_gcc.h **** #define __WFE()                             __ASM volatile ("wfe":::"memory")
 243:Drivers/CMSIS/Include/cmsis_gcc.h **** 
 244:Drivers/CMSIS/Include/cmsis_gcc.h **** 
 245:Drivers/CMSIS/Include/cmsis_gcc.h **** /**
 246:Drivers/CMSIS/Include/cmsis_gcc.h ****   \brief   Send Event
 247:Drivers/CMSIS/Include/cmsis_gcc.h ****   \details Send Event is a hint instruction. It causes an event to be signaled to the CPU.
 248:Drivers/CMSIS/Include/cmsis_gcc.h ****  */
 249:Drivers/CMSIS/Include/cmsis_gcc.h **** #define __SEV()                             __ASM volatile ("sev")
 250:Drivers/CMSIS/Include/cmsis_gcc.h **** 
 251:Drivers/CMSIS/Include/cmsis_gcc.h **** 
 252:Drivers/CMSIS/Include/cmsis_gcc.h **** /**
 253:Drivers/CMSIS/Include/cmsis_gcc.h ****   \brief   Instruction Synchronization Barrier
 254:Drivers/CMSIS/Include/cmsis_gcc.h ****   \details Instruction Synchronization Barrier flushes the pipeline in the processor,
 255:Drivers/CMSIS/Include/cmsis_gcc.h ****            so that all instructions following the ISB are fetched from cache or memory,
 256:Drivers/CMSIS/Include/cmsis_gcc.h ****            after the instruction has been completed.
 257:Drivers/CMSIS/Include/cmsis_gcc.h ****  */
 258:Drivers/CMSIS/Include/cmsis_gcc.h **** __STATIC_FORCEINLINE void __ISB(void)
 259:Drivers/CMSIS/Include/cmsis_gcc.h **** {
 260:Drivers/CMSIS/Include/cmsis_gcc.h ****   __ASM volatile ("isb 0xF":::"memory");
 261:Drivers/CMSIS/Include/cmsis_gcc.h **** }
 262:Drivers/CMSIS/Include/cmsis_gcc.h **** 
 263:Drivers/CMSIS/Include/cmsis_gcc.h **** 
 264:Drivers/CMSIS/Include/cmsis_gcc.h **** /**
 265:Drivers/CMSIS/Include/cmsis_gcc.h ****   \brief   Data Synchronization Barrier
 266:Drivers/CMSIS/Include/cmsis_gcc.h ****   \details Acts as a special kind of Data Memory Barrier.
 267:Drivers/CMSIS/Include/cmsis_gcc.h ****            It completes when all explicit memory accesses before this instruction complete.
 268:Drivers/CMSIS/Include/cmsis_gcc.h ****  */
 269:Drivers/CMSIS/Include/cmsis_gcc.h **** __STATIC_FORCEINLINE void __DSB(void)
 270:Drivers/CMSIS/Include/cmsis_gcc.h **** {
 271:Drivers/CMSIS/Include/cmsis_gcc.h ****   __ASM volatile ("dsb 0xF":::"memory");
 272:Drivers/CMSIS/Include/cmsis_gcc.h **** }
 273:Drivers/CMSIS/Include/cmsis_gcc.h **** 
 274:Drivers/CMSIS/Include/cmsis_gcc.h **** 
 275:Drivers/CMSIS/Include/cmsis_gcc.h **** /**
 276:Drivers/CMSIS/Include/cmsis_gcc.h ****   \brief   Data Memory Barrier
 277:Drivers/CMSIS/Include/cmsis_gcc.h ****   \details Ensures the apparent order of the explicit memory operations before
 278:Drivers/CMSIS/Include/cmsis_gcc.h ****            and after the instruction, without ensuring their completion.
 279:Drivers/CMSIS/Include/cmsis_gcc.h ****  */
 280:Drivers/CMSIS/Include/cmsis_gcc.h **** __STATIC_FORCEINLINE void __DMB(void)
 281:Drivers/CMSIS/Include/cmsis_gcc.h **** {
 282:Drivers/CMSIS/Include/cmsis_gcc.h ****   __ASM volatile ("dmb 0xF":::"memory");
 283:Drivers/CMSIS/Include/cmsis_gcc.h **** }
 284:Drivers/CMSIS/Include/cmsis_gcc.h **** 
 285:Drivers/CMSIS/Include/cmsis_gcc.h **** 
 286:Drivers/CMSIS/Include/cmsis_gcc.h **** /**
 287:Drivers/CMSIS/Include/cmsis_gcc.h ****   \brief   Reverse byte order (32 bit)
 288:Drivers/CMSIS/Include/cmsis_gcc.h ****   \details Reverses the byte order in unsigned integer value. For example, 0x12345678 becomes 0x785
 289:Drivers/CMSIS/Include/cmsis_gcc.h ****   \param [in]    value  Value to reverse
ARM GAS  C:\Users\24120\AppData\Local\Temp\ccaaYZuv.s 			page 69


 290:Drivers/CMSIS/Include/cmsis_gcc.h ****   \return               Reversed value
 291:Drivers/CMSIS/Include/cmsis_gcc.h ****  */
 292:Drivers/CMSIS/Include/cmsis_gcc.h **** __STATIC_FORCEINLINE uint32_t __REV(uint32_t value)
 293:Drivers/CMSIS/Include/cmsis_gcc.h **** {
 294:Drivers/CMSIS/Include/cmsis_gcc.h **** #if (__GNUC__ > 4) || (__GNUC__ == 4 && __GNUC_MINOR__ >= 5)
 295:Drivers/CMSIS/Include/cmsis_gcc.h ****   return __builtin_bswap32(value);
 296:Drivers/CMSIS/Include/cmsis_gcc.h **** #else
 297:Drivers/CMSIS/Include/cmsis_gcc.h ****   uint32_t result;
 298:Drivers/CMSIS/Include/cmsis_gcc.h **** 
 299:Drivers/CMSIS/Include/cmsis_gcc.h ****   __ASM ("rev %0, %1" : __CMSIS_GCC_OUT_REG (result) : __CMSIS_GCC_USE_REG (value) );
 300:Drivers/CMSIS/Include/cmsis_gcc.h ****   return result;
 301:Drivers/CMSIS/Include/cmsis_gcc.h **** #endif
 302:Drivers/CMSIS/Include/cmsis_gcc.h **** }
 303:Drivers/CMSIS/Include/cmsis_gcc.h **** 
 304:Drivers/CMSIS/Include/cmsis_gcc.h **** 
 305:Drivers/CMSIS/Include/cmsis_gcc.h **** /**
 306:Drivers/CMSIS/Include/cmsis_gcc.h ****   \brief   Reverse byte order (16 bit)
 307:Drivers/CMSIS/Include/cmsis_gcc.h ****   \details Reverses the byte order within each halfword of a word. For example, 0x12345678 becomes 
 308:Drivers/CMSIS/Include/cmsis_gcc.h ****   \param [in]    value  Value to reverse
 309:Drivers/CMSIS/Include/cmsis_gcc.h ****   \return               Reversed value
 310:Drivers/CMSIS/Include/cmsis_gcc.h ****  */
 311:Drivers/CMSIS/Include/cmsis_gcc.h **** __STATIC_FORCEINLINE uint32_t __REV16(uint32_t value)
 312:Drivers/CMSIS/Include/cmsis_gcc.h **** {
 313:Drivers/CMSIS/Include/cmsis_gcc.h ****   uint32_t result;
 314:Drivers/CMSIS/Include/cmsis_gcc.h **** 
 315:Drivers/CMSIS/Include/cmsis_gcc.h ****   __ASM ("rev16 %0, %1" : __CMSIS_GCC_OUT_REG (result) : __CMSIS_GCC_USE_REG (value) );
 316:Drivers/CMSIS/Include/cmsis_gcc.h ****   return result;
 317:Drivers/CMSIS/Include/cmsis_gcc.h **** }
 318:Drivers/CMSIS/Include/cmsis_gcc.h **** 
 319:Drivers/CMSIS/Include/cmsis_gcc.h **** 
 320:Drivers/CMSIS/Include/cmsis_gcc.h **** /**
 321:Drivers/CMSIS/Include/cmsis_gcc.h ****   \brief   Reverse byte order (16 bit)
 322:Drivers/CMSIS/Include/cmsis_gcc.h ****   \details Reverses the byte order in a 16-bit value and returns the signed 16-bit result. For exam
 323:Drivers/CMSIS/Include/cmsis_gcc.h ****   \param [in]    value  Value to reverse
 324:Drivers/CMSIS/Include/cmsis_gcc.h ****   \return               Reversed value
 325:Drivers/CMSIS/Include/cmsis_gcc.h ****  */
 326:Drivers/CMSIS/Include/cmsis_gcc.h **** __STATIC_FORCEINLINE int16_t __REVSH(int16_t value)
 327:Drivers/CMSIS/Include/cmsis_gcc.h **** {
 328:Drivers/CMSIS/Include/cmsis_gcc.h **** #if (__GNUC__ > 4) || (__GNUC__ == 4 && __GNUC_MINOR__ >= 8)
 329:Drivers/CMSIS/Include/cmsis_gcc.h ****   return (int16_t)__builtin_bswap16(value);
 330:Drivers/CMSIS/Include/cmsis_gcc.h **** #else
 331:Drivers/CMSIS/Include/cmsis_gcc.h ****   int16_t result;
 332:Drivers/CMSIS/Include/cmsis_gcc.h **** 
 333:Drivers/CMSIS/Include/cmsis_gcc.h ****   __ASM ("revsh %0, %1" : __CMSIS_GCC_OUT_REG (result) : __CMSIS_GCC_USE_REG (value) );
 334:Drivers/CMSIS/Include/cmsis_gcc.h ****   return result;
 335:Drivers/CMSIS/Include/cmsis_gcc.h **** #endif
 336:Drivers/CMSIS/Include/cmsis_gcc.h **** }
 337:Drivers/CMSIS/Include/cmsis_gcc.h **** 
 338:Drivers/CMSIS/Include/cmsis_gcc.h **** 
 339:Drivers/CMSIS/Include/cmsis_gcc.h **** /**
 340:Drivers/CMSIS/Include/cmsis_gcc.h ****   \brief   Rotate Right in unsigned value (32 bit)
 341:Drivers/CMSIS/Include/cmsis_gcc.h ****   \details Rotate Right (immediate) provides the value of the contents of a register rotated by a v
 342:Drivers/CMSIS/Include/cmsis_gcc.h ****   \param [in]    op1  Value to rotate
 343:Drivers/CMSIS/Include/cmsis_gcc.h ****   \param [in]    op2  Number of Bits to rotate
 344:Drivers/CMSIS/Include/cmsis_gcc.h ****   \return               Rotated value
 345:Drivers/CMSIS/Include/cmsis_gcc.h ****  */
 346:Drivers/CMSIS/Include/cmsis_gcc.h **** __STATIC_FORCEINLINE uint32_t __ROR(uint32_t op1, uint32_t op2)
ARM GAS  C:\Users\24120\AppData\Local\Temp\ccaaYZuv.s 			page 70


 347:Drivers/CMSIS/Include/cmsis_gcc.h **** {
 348:Drivers/CMSIS/Include/cmsis_gcc.h ****   op2 %= 32U;
 349:Drivers/CMSIS/Include/cmsis_gcc.h ****   if (op2 == 0U)
 350:Drivers/CMSIS/Include/cmsis_gcc.h ****   {
 351:Drivers/CMSIS/Include/cmsis_gcc.h ****     return op1;
 352:Drivers/CMSIS/Include/cmsis_gcc.h ****   }
 353:Drivers/CMSIS/Include/cmsis_gcc.h ****   return (op1 >> op2) | (op1 << (32U - op2));
 354:Drivers/CMSIS/Include/cmsis_gcc.h **** }
 355:Drivers/CMSIS/Include/cmsis_gcc.h **** 
 356:Drivers/CMSIS/Include/cmsis_gcc.h **** 
 357:Drivers/CMSIS/Include/cmsis_gcc.h **** /**
 358:Drivers/CMSIS/Include/cmsis_gcc.h ****   \brief   Breakpoint
 359:Drivers/CMSIS/Include/cmsis_gcc.h ****   \details Causes the processor to enter Debug state.
 360:Drivers/CMSIS/Include/cmsis_gcc.h ****            Debug tools can use this to investigate system state when the instruction at a particula
 361:Drivers/CMSIS/Include/cmsis_gcc.h ****   \param [in]    value  is ignored by the processor.
 362:Drivers/CMSIS/Include/cmsis_gcc.h ****                  If required, a debugger can use it to store additional information about the break
 363:Drivers/CMSIS/Include/cmsis_gcc.h ****  */
 364:Drivers/CMSIS/Include/cmsis_gcc.h **** #define __BKPT(value)                       __ASM volatile ("bkpt "#value)
 365:Drivers/CMSIS/Include/cmsis_gcc.h **** 
 366:Drivers/CMSIS/Include/cmsis_gcc.h **** 
 367:Drivers/CMSIS/Include/cmsis_gcc.h **** /**
 368:Drivers/CMSIS/Include/cmsis_gcc.h ****   \brief   Reverse bit order of value
 369:Drivers/CMSIS/Include/cmsis_gcc.h ****   \details Reverses the bit order of the given value.
 370:Drivers/CMSIS/Include/cmsis_gcc.h ****   \param [in]    value  Value to reverse
 371:Drivers/CMSIS/Include/cmsis_gcc.h ****   \return               Reversed value
 372:Drivers/CMSIS/Include/cmsis_gcc.h ****  */
 373:Drivers/CMSIS/Include/cmsis_gcc.h **** __STATIC_FORCEINLINE uint32_t __RBIT(uint32_t value)
 374:Drivers/CMSIS/Include/cmsis_gcc.h **** {
 375:Drivers/CMSIS/Include/cmsis_gcc.h ****   uint32_t result;
 376:Drivers/CMSIS/Include/cmsis_gcc.h **** 
 377:Drivers/CMSIS/Include/cmsis_gcc.h **** #if ((defined (__ARM_ARCH_7M__      ) && (__ARM_ARCH_7M__      == 1)) || \
 378:Drivers/CMSIS/Include/cmsis_gcc.h ****      (defined (__ARM_ARCH_7EM__     ) && (__ARM_ARCH_7EM__     == 1)) || \
 379:Drivers/CMSIS/Include/cmsis_gcc.h ****      (defined (__ARM_ARCH_8M_MAIN__ ) && (__ARM_ARCH_8M_MAIN__ == 1))    )
 380:Drivers/CMSIS/Include/cmsis_gcc.h ****    __ASM ("rbit %0, %1" : "=r" (result) : "r" (value) );
 381:Drivers/CMSIS/Include/cmsis_gcc.h **** #else
 382:Drivers/CMSIS/Include/cmsis_gcc.h ****   uint32_t s = (4U /*sizeof(v)*/ * 8U) - 1U; /* extra shift needed at end */
 383:Drivers/CMSIS/Include/cmsis_gcc.h **** 
 384:Drivers/CMSIS/Include/cmsis_gcc.h ****   result = value;                      /* r will be reversed bits of v; first get LSB of v */
 385:Drivers/CMSIS/Include/cmsis_gcc.h ****   for (value >>= 1U; value != 0U; value >>= 1U)
 386:Drivers/CMSIS/Include/cmsis_gcc.h ****   {
 387:Drivers/CMSIS/Include/cmsis_gcc.h ****     result <<= 1U;
 388:Drivers/CMSIS/Include/cmsis_gcc.h ****     result |= value & 1U;
 389:Drivers/CMSIS/Include/cmsis_gcc.h ****     s--;
 390:Drivers/CMSIS/Include/cmsis_gcc.h ****   }
 391:Drivers/CMSIS/Include/cmsis_gcc.h ****   result <<= s;                        /* shift when v's highest bits are zero */
 392:Drivers/CMSIS/Include/cmsis_gcc.h **** #endif
 393:Drivers/CMSIS/Include/cmsis_gcc.h ****   return result;
 394:Drivers/CMSIS/Include/cmsis_gcc.h **** }
 395:Drivers/CMSIS/Include/cmsis_gcc.h **** 
 396:Drivers/CMSIS/Include/cmsis_gcc.h **** 
 397:Drivers/CMSIS/Include/cmsis_gcc.h **** /**
 398:Drivers/CMSIS/Include/cmsis_gcc.h ****   \brief   Count leading zeros
 399:Drivers/CMSIS/Include/cmsis_gcc.h ****   \details Counts the number of leading zeros of a data value.
 400:Drivers/CMSIS/Include/cmsis_gcc.h ****   \param [in]  value  Value to count the leading zeros
 401:Drivers/CMSIS/Include/cmsis_gcc.h ****   \return             number of leading zeros in value
 402:Drivers/CMSIS/Include/cmsis_gcc.h ****  */
 403:Drivers/CMSIS/Include/cmsis_gcc.h **** __STATIC_FORCEINLINE uint8_t __CLZ(uint32_t value)
ARM GAS  C:\Users\24120\AppData\Local\Temp\ccaaYZuv.s 			page 71


 404:Drivers/CMSIS/Include/cmsis_gcc.h **** {
 405:Drivers/CMSIS/Include/cmsis_gcc.h ****   /* Even though __builtin_clz produces a CLZ instruction on ARM, formally
 406:Drivers/CMSIS/Include/cmsis_gcc.h ****      __builtin_clz(0) is undefined behaviour, so handle this case specially.
 407:Drivers/CMSIS/Include/cmsis_gcc.h ****      This guarantees ARM-compatible results if happening to compile on a non-ARM
 408:Drivers/CMSIS/Include/cmsis_gcc.h ****      target, and ensures the compiler doesn't decide to activate any
 409:Drivers/CMSIS/Include/cmsis_gcc.h ****      optimisations using the logic "value was passed to __builtin_clz, so it
 410:Drivers/CMSIS/Include/cmsis_gcc.h ****      is non-zero".
 411:Drivers/CMSIS/Include/cmsis_gcc.h ****      ARM GCC 7.3 and possibly earlier will optimise this test away, leaving a
 412:Drivers/CMSIS/Include/cmsis_gcc.h ****      single CLZ instruction.
 413:Drivers/CMSIS/Include/cmsis_gcc.h ****    */
 414:Drivers/CMSIS/Include/cmsis_gcc.h ****   if (value == 0U)
 415:Drivers/CMSIS/Include/cmsis_gcc.h ****   {
 416:Drivers/CMSIS/Include/cmsis_gcc.h ****     return 32U;
 417:Drivers/CMSIS/Include/cmsis_gcc.h ****   }
 418:Drivers/CMSIS/Include/cmsis_gcc.h ****   return __builtin_clz(value);
 419:Drivers/CMSIS/Include/cmsis_gcc.h **** }
 420:Drivers/CMSIS/Include/cmsis_gcc.h **** 
 421:Drivers/CMSIS/Include/cmsis_gcc.h **** 
 422:Drivers/CMSIS/Include/cmsis_gcc.h **** #if ((defined (__ARM_ARCH_7M__      ) && (__ARM_ARCH_7M__      == 1)) || \
 423:Drivers/CMSIS/Include/cmsis_gcc.h ****      (defined (__ARM_ARCH_7EM__     ) && (__ARM_ARCH_7EM__     == 1)) || \
 424:Drivers/CMSIS/Include/cmsis_gcc.h ****      (defined (__ARM_ARCH_8M_MAIN__ ) && (__ARM_ARCH_8M_MAIN__ == 1)) || \
 425:Drivers/CMSIS/Include/cmsis_gcc.h ****      (defined (__ARM_ARCH_8M_BASE__ ) && (__ARM_ARCH_8M_BASE__ == 1))    )
 426:Drivers/CMSIS/Include/cmsis_gcc.h **** /**
 427:Drivers/CMSIS/Include/cmsis_gcc.h ****   \brief   LDR Exclusive (8 bit)
 428:Drivers/CMSIS/Include/cmsis_gcc.h ****   \details Executes a exclusive LDR instruction for 8 bit value.
 429:Drivers/CMSIS/Include/cmsis_gcc.h ****   \param [in]    ptr  Pointer to data
 430:Drivers/CMSIS/Include/cmsis_gcc.h ****   \return             value of type uint8_t at (*ptr)
 431:Drivers/CMSIS/Include/cmsis_gcc.h ****  */
 432:Drivers/CMSIS/Include/cmsis_gcc.h **** __STATIC_FORCEINLINE uint8_t __LDREXB(volatile uint8_t *addr)
 433:Drivers/CMSIS/Include/cmsis_gcc.h **** {
 434:Drivers/CMSIS/Include/cmsis_gcc.h ****     uint32_t result;
 435:Drivers/CMSIS/Include/cmsis_gcc.h **** 
 436:Drivers/CMSIS/Include/cmsis_gcc.h **** #if (__GNUC__ > 4) || (__GNUC__ == 4 && __GNUC_MINOR__ >= 8)
 437:Drivers/CMSIS/Include/cmsis_gcc.h ****    __ASM volatile ("ldrexb %0, %1" : "=r" (result) : "Q" (*addr) );
 438:Drivers/CMSIS/Include/cmsis_gcc.h **** #else
 439:Drivers/CMSIS/Include/cmsis_gcc.h ****     /* Prior to GCC 4.8, "Q" will be expanded to [rx, #0] which is not
 440:Drivers/CMSIS/Include/cmsis_gcc.h ****        accepted by assembler. So has to use following less efficient pattern.
 441:Drivers/CMSIS/Include/cmsis_gcc.h ****     */
 442:Drivers/CMSIS/Include/cmsis_gcc.h ****    __ASM volatile ("ldrexb %0, [%1]" : "=r" (result) : "r" (addr) : "memory" );
 443:Drivers/CMSIS/Include/cmsis_gcc.h **** #endif
 444:Drivers/CMSIS/Include/cmsis_gcc.h ****    return ((uint8_t) result);    /* Add explicit type cast here */
 445:Drivers/CMSIS/Include/cmsis_gcc.h **** }
 446:Drivers/CMSIS/Include/cmsis_gcc.h **** 
 447:Drivers/CMSIS/Include/cmsis_gcc.h **** 
 448:Drivers/CMSIS/Include/cmsis_gcc.h **** /**
 449:Drivers/CMSIS/Include/cmsis_gcc.h ****   \brief   LDR Exclusive (16 bit)
 450:Drivers/CMSIS/Include/cmsis_gcc.h ****   \details Executes a exclusive LDR instruction for 16 bit values.
 451:Drivers/CMSIS/Include/cmsis_gcc.h ****   \param [in]    ptr  Pointer to data
 452:Drivers/CMSIS/Include/cmsis_gcc.h ****   \return        value of type uint16_t at (*ptr)
 453:Drivers/CMSIS/Include/cmsis_gcc.h ****  */
 454:Drivers/CMSIS/Include/cmsis_gcc.h **** __STATIC_FORCEINLINE uint16_t __LDREXH(volatile uint16_t *addr)
 455:Drivers/CMSIS/Include/cmsis_gcc.h **** {
 456:Drivers/CMSIS/Include/cmsis_gcc.h ****     uint32_t result;
 457:Drivers/CMSIS/Include/cmsis_gcc.h **** 
 458:Drivers/CMSIS/Include/cmsis_gcc.h **** #if (__GNUC__ > 4) || (__GNUC__ == 4 && __GNUC_MINOR__ >= 8)
 459:Drivers/CMSIS/Include/cmsis_gcc.h ****    __ASM volatile ("ldrexh %0, %1" : "=r" (result) : "Q" (*addr) );
 460:Drivers/CMSIS/Include/cmsis_gcc.h **** #else
ARM GAS  C:\Users\24120\AppData\Local\Temp\ccaaYZuv.s 			page 72


 461:Drivers/CMSIS/Include/cmsis_gcc.h ****     /* Prior to GCC 4.8, "Q" will be expanded to [rx, #0] which is not
 462:Drivers/CMSIS/Include/cmsis_gcc.h ****        accepted by assembler. So has to use following less efficient pattern.
 463:Drivers/CMSIS/Include/cmsis_gcc.h ****     */
 464:Drivers/CMSIS/Include/cmsis_gcc.h ****    __ASM volatile ("ldrexh %0, [%1]" : "=r" (result) : "r" (addr) : "memory" );
 465:Drivers/CMSIS/Include/cmsis_gcc.h **** #endif
 466:Drivers/CMSIS/Include/cmsis_gcc.h ****    return ((uint16_t) result);    /* Add explicit type cast here */
 467:Drivers/CMSIS/Include/cmsis_gcc.h **** }
 468:Drivers/CMSIS/Include/cmsis_gcc.h **** 
 469:Drivers/CMSIS/Include/cmsis_gcc.h **** 
 470:Drivers/CMSIS/Include/cmsis_gcc.h **** /**
 471:Drivers/CMSIS/Include/cmsis_gcc.h ****   \brief   LDR Exclusive (32 bit)
 472:Drivers/CMSIS/Include/cmsis_gcc.h ****   \details Executes a exclusive LDR instruction for 32 bit values.
 473:Drivers/CMSIS/Include/cmsis_gcc.h ****   \param [in]    ptr  Pointer to data
 474:Drivers/CMSIS/Include/cmsis_gcc.h ****   \return        value of type uint32_t at (*ptr)
 475:Drivers/CMSIS/Include/cmsis_gcc.h ****  */
 476:Drivers/CMSIS/Include/cmsis_gcc.h **** __STATIC_FORCEINLINE uint32_t __LDREXW(volatile uint32_t *addr)
 477:Drivers/CMSIS/Include/cmsis_gcc.h **** {
 478:Drivers/CMSIS/Include/cmsis_gcc.h ****     uint32_t result;
 479:Drivers/CMSIS/Include/cmsis_gcc.h **** 
 480:Drivers/CMSIS/Include/cmsis_gcc.h ****    __ASM volatile ("ldrex %0, %1" : "=r" (result) : "Q" (*addr) );
 481:Drivers/CMSIS/Include/cmsis_gcc.h ****    return(result);
 482:Drivers/CMSIS/Include/cmsis_gcc.h **** }
 483:Drivers/CMSIS/Include/cmsis_gcc.h **** 
 484:Drivers/CMSIS/Include/cmsis_gcc.h **** 
 485:Drivers/CMSIS/Include/cmsis_gcc.h **** /**
 486:Drivers/CMSIS/Include/cmsis_gcc.h ****   \brief   STR Exclusive (8 bit)
 487:Drivers/CMSIS/Include/cmsis_gcc.h ****   \details Executes a exclusive STR instruction for 8 bit values.
 488:Drivers/CMSIS/Include/cmsis_gcc.h ****   \param [in]  value  Value to store
 489:Drivers/CMSIS/Include/cmsis_gcc.h ****   \param [in]    ptr  Pointer to location
 490:Drivers/CMSIS/Include/cmsis_gcc.h ****   \return          0  Function succeeded
 491:Drivers/CMSIS/Include/cmsis_gcc.h ****   \return          1  Function failed
 492:Drivers/CMSIS/Include/cmsis_gcc.h ****  */
 493:Drivers/CMSIS/Include/cmsis_gcc.h **** __STATIC_FORCEINLINE uint32_t __STREXB(uint8_t value, volatile uint8_t *addr)
 494:Drivers/CMSIS/Include/cmsis_gcc.h **** {
 495:Drivers/CMSIS/Include/cmsis_gcc.h ****    uint32_t result;
 496:Drivers/CMSIS/Include/cmsis_gcc.h **** 
 497:Drivers/CMSIS/Include/cmsis_gcc.h ****    __ASM volatile ("strexb %0, %2, %1" : "=&r" (result), "=Q" (*addr) : "r" ((uint32_t)value) );
 498:Drivers/CMSIS/Include/cmsis_gcc.h ****    return(result);
 499:Drivers/CMSIS/Include/cmsis_gcc.h **** }
 500:Drivers/CMSIS/Include/cmsis_gcc.h **** 
 501:Drivers/CMSIS/Include/cmsis_gcc.h **** 
 502:Drivers/CMSIS/Include/cmsis_gcc.h **** /**
 503:Drivers/CMSIS/Include/cmsis_gcc.h ****   \brief   STR Exclusive (16 bit)
 504:Drivers/CMSIS/Include/cmsis_gcc.h ****   \details Executes a exclusive STR instruction for 16 bit values.
 505:Drivers/CMSIS/Include/cmsis_gcc.h ****   \param [in]  value  Value to store
 506:Drivers/CMSIS/Include/cmsis_gcc.h ****   \param [in]    ptr  Pointer to location
 507:Drivers/CMSIS/Include/cmsis_gcc.h ****   \return          0  Function succeeded
 508:Drivers/CMSIS/Include/cmsis_gcc.h ****   \return          1  Function failed
 509:Drivers/CMSIS/Include/cmsis_gcc.h ****  */
 510:Drivers/CMSIS/Include/cmsis_gcc.h **** __STATIC_FORCEINLINE uint32_t __STREXH(uint16_t value, volatile uint16_t *addr)
 511:Drivers/CMSIS/Include/cmsis_gcc.h **** {
 512:Drivers/CMSIS/Include/cmsis_gcc.h ****    uint32_t result;
 513:Drivers/CMSIS/Include/cmsis_gcc.h **** 
 514:Drivers/CMSIS/Include/cmsis_gcc.h ****    __ASM volatile ("strexh %0, %2, %1" : "=&r" (result), "=Q" (*addr) : "r" ((uint32_t)value) );
 515:Drivers/CMSIS/Include/cmsis_gcc.h ****    return(result);
 516:Drivers/CMSIS/Include/cmsis_gcc.h **** }
 517:Drivers/CMSIS/Include/cmsis_gcc.h **** 
ARM GAS  C:\Users\24120\AppData\Local\Temp\ccaaYZuv.s 			page 73


 518:Drivers/CMSIS/Include/cmsis_gcc.h **** 
 519:Drivers/CMSIS/Include/cmsis_gcc.h **** /**
 520:Drivers/CMSIS/Include/cmsis_gcc.h ****   \brief   STR Exclusive (32 bit)
 521:Drivers/CMSIS/Include/cmsis_gcc.h ****   \details Executes a exclusive STR instruction for 32 bit values.
 522:Drivers/CMSIS/Include/cmsis_gcc.h ****   \param [in]  value  Value to store
 523:Drivers/CMSIS/Include/cmsis_gcc.h ****   \param [in]    ptr  Pointer to location
 524:Drivers/CMSIS/Include/cmsis_gcc.h ****   \return          0  Function succeeded
 525:Drivers/CMSIS/Include/cmsis_gcc.h ****   \return          1  Function failed
 526:Drivers/CMSIS/Include/cmsis_gcc.h ****  */
 527:Drivers/CMSIS/Include/cmsis_gcc.h **** __STATIC_FORCEINLINE uint32_t __STREXW(uint32_t value, volatile uint32_t *addr)
 528:Drivers/CMSIS/Include/cmsis_gcc.h **** {
 529:Drivers/CMSIS/Include/cmsis_gcc.h ****    uint32_t result;
 530:Drivers/CMSIS/Include/cmsis_gcc.h **** 
 531:Drivers/CMSIS/Include/cmsis_gcc.h ****    __ASM volatile ("strex %0, %2, %1" : "=&r" (result), "=Q" (*addr) : "r" (value) );
 532:Drivers/CMSIS/Include/cmsis_gcc.h ****    return(result);
 533:Drivers/CMSIS/Include/cmsis_gcc.h **** }
 534:Drivers/CMSIS/Include/cmsis_gcc.h **** 
 535:Drivers/CMSIS/Include/cmsis_gcc.h **** 
 536:Drivers/CMSIS/Include/cmsis_gcc.h **** /**
 537:Drivers/CMSIS/Include/cmsis_gcc.h ****   \brief   Remove the exclusive lock
 538:Drivers/CMSIS/Include/cmsis_gcc.h ****   \details Removes the exclusive lock which is created by LDREX.
 539:Drivers/CMSIS/Include/cmsis_gcc.h ****  */
 540:Drivers/CMSIS/Include/cmsis_gcc.h **** __STATIC_FORCEINLINE void __CLREX(void)
 541:Drivers/CMSIS/Include/cmsis_gcc.h **** {
 542:Drivers/CMSIS/Include/cmsis_gcc.h ****   __ASM volatile ("clrex" ::: "memory");
 543:Drivers/CMSIS/Include/cmsis_gcc.h **** }
 544:Drivers/CMSIS/Include/cmsis_gcc.h **** 
 545:Drivers/CMSIS/Include/cmsis_gcc.h **** #endif /* ((defined (__ARM_ARCH_7M__      ) && (__ARM_ARCH_7M__      == 1)) || \
 546:Drivers/CMSIS/Include/cmsis_gcc.h ****            (defined (__ARM_ARCH_7EM__     ) && (__ARM_ARCH_7EM__     == 1)) || \
 547:Drivers/CMSIS/Include/cmsis_gcc.h ****            (defined (__ARM_ARCH_8M_MAIN__ ) && (__ARM_ARCH_8M_MAIN__ == 1)) || \
 548:Drivers/CMSIS/Include/cmsis_gcc.h ****            (defined (__ARM_ARCH_8M_BASE__ ) && (__ARM_ARCH_8M_BASE__ == 1))    ) */
 549:Drivers/CMSIS/Include/cmsis_gcc.h **** 
 550:Drivers/CMSIS/Include/cmsis_gcc.h **** 
 551:Drivers/CMSIS/Include/cmsis_gcc.h **** #if ((defined (__ARM_ARCH_7M__      ) && (__ARM_ARCH_7M__      == 1)) || \
 552:Drivers/CMSIS/Include/cmsis_gcc.h ****      (defined (__ARM_ARCH_7EM__     ) && (__ARM_ARCH_7EM__     == 1)) || \
 553:Drivers/CMSIS/Include/cmsis_gcc.h ****      (defined (__ARM_ARCH_8M_MAIN__ ) && (__ARM_ARCH_8M_MAIN__ == 1))    )
 554:Drivers/CMSIS/Include/cmsis_gcc.h **** /**
 555:Drivers/CMSIS/Include/cmsis_gcc.h ****   \brief   Signed Saturate
 556:Drivers/CMSIS/Include/cmsis_gcc.h ****   \details Saturates a signed value.
 557:Drivers/CMSIS/Include/cmsis_gcc.h ****   \param [in]  ARG1  Value to be saturated
 558:Drivers/CMSIS/Include/cmsis_gcc.h ****   \param [in]  ARG2  Bit position to saturate to (1..32)
 559:Drivers/CMSIS/Include/cmsis_gcc.h ****   \return             Saturated value
 560:Drivers/CMSIS/Include/cmsis_gcc.h ****  */
 561:Drivers/CMSIS/Include/cmsis_gcc.h **** #define __SSAT(ARG1, ARG2) \
 562:Drivers/CMSIS/Include/cmsis_gcc.h **** __extension__ \
 563:Drivers/CMSIS/Include/cmsis_gcc.h **** ({                          \
 564:Drivers/CMSIS/Include/cmsis_gcc.h ****   int32_t __RES, __ARG1 = (ARG1); \
 565:Drivers/CMSIS/Include/cmsis_gcc.h ****   __ASM volatile ("ssat %0, %1, %2" : "=r" (__RES) :  "I" (ARG2), "r" (__ARG1) : "cc" ); \
 566:Drivers/CMSIS/Include/cmsis_gcc.h ****   __RES; \
 567:Drivers/CMSIS/Include/cmsis_gcc.h ****  })
 568:Drivers/CMSIS/Include/cmsis_gcc.h **** 
 569:Drivers/CMSIS/Include/cmsis_gcc.h **** 
 570:Drivers/CMSIS/Include/cmsis_gcc.h **** /**
 571:Drivers/CMSIS/Include/cmsis_gcc.h ****   \brief   Unsigned Saturate
 572:Drivers/CMSIS/Include/cmsis_gcc.h ****   \details Saturates an unsigned value.
 573:Drivers/CMSIS/Include/cmsis_gcc.h ****   \param [in]  ARG1  Value to be saturated
 574:Drivers/CMSIS/Include/cmsis_gcc.h ****   \param [in]  ARG2  Bit position to saturate to (0..31)
ARM GAS  C:\Users\24120\AppData\Local\Temp\ccaaYZuv.s 			page 74


 575:Drivers/CMSIS/Include/cmsis_gcc.h ****   \return             Saturated value
 576:Drivers/CMSIS/Include/cmsis_gcc.h ****  */
 577:Drivers/CMSIS/Include/cmsis_gcc.h **** #define __USAT(ARG1, ARG2) \
 578:Drivers/CMSIS/Include/cmsis_gcc.h **** __extension__ \
 579:Drivers/CMSIS/Include/cmsis_gcc.h **** ({                          \
 580:Drivers/CMSIS/Include/cmsis_gcc.h ****   uint32_t __RES, __ARG1 = (ARG1); \
 581:Drivers/CMSIS/Include/cmsis_gcc.h ****   __ASM volatile ("usat %0, %1, %2" : "=r" (__RES) :  "I" (ARG2), "r" (__ARG1) : "cc" ); \
 582:Drivers/CMSIS/Include/cmsis_gcc.h ****   __RES; \
 583:Drivers/CMSIS/Include/cmsis_gcc.h ****  })
 584:Drivers/CMSIS/Include/cmsis_gcc.h **** 
 585:Drivers/CMSIS/Include/cmsis_gcc.h **** 
 586:Drivers/CMSIS/Include/cmsis_gcc.h **** /**
 587:Drivers/CMSIS/Include/cmsis_gcc.h ****   \brief   Rotate Right with Extend (32 bit)
 588:Drivers/CMSIS/Include/cmsis_gcc.h ****   \details Moves each bit of a bitstring right by one bit.
 589:Drivers/CMSIS/Include/cmsis_gcc.h ****            The carry input is shifted in at the left end of the bitstring.
 590:Drivers/CMSIS/Include/cmsis_gcc.h ****   \param [in]    value  Value to rotate
 591:Drivers/CMSIS/Include/cmsis_gcc.h ****   \return               Rotated value
 592:Drivers/CMSIS/Include/cmsis_gcc.h ****  */
 593:Drivers/CMSIS/Include/cmsis_gcc.h **** __STATIC_FORCEINLINE uint32_t __RRX(uint32_t value)
 594:Drivers/CMSIS/Include/cmsis_gcc.h **** {
 595:Drivers/CMSIS/Include/cmsis_gcc.h ****   uint32_t result;
 596:Drivers/CMSIS/Include/cmsis_gcc.h **** 
 597:Drivers/CMSIS/Include/cmsis_gcc.h ****   __ASM volatile ("rrx %0, %1" : __CMSIS_GCC_OUT_REG (result) : __CMSIS_GCC_USE_REG (value) );
 598:Drivers/CMSIS/Include/cmsis_gcc.h ****   return(result);
 599:Drivers/CMSIS/Include/cmsis_gcc.h **** }
 600:Drivers/CMSIS/Include/cmsis_gcc.h **** 
 601:Drivers/CMSIS/Include/cmsis_gcc.h **** 
 602:Drivers/CMSIS/Include/cmsis_gcc.h **** /**
 603:Drivers/CMSIS/Include/cmsis_gcc.h ****   \brief   LDRT Unprivileged (8 bit)
 604:Drivers/CMSIS/Include/cmsis_gcc.h ****   \details Executes a Unprivileged LDRT instruction for 8 bit value.
 605:Drivers/CMSIS/Include/cmsis_gcc.h ****   \param [in]    ptr  Pointer to data
 606:Drivers/CMSIS/Include/cmsis_gcc.h ****   \return             value of type uint8_t at (*ptr)
 607:Drivers/CMSIS/Include/cmsis_gcc.h ****  */
 608:Drivers/CMSIS/Include/cmsis_gcc.h **** __STATIC_FORCEINLINE uint8_t __LDRBT(volatile uint8_t *ptr)
 609:Drivers/CMSIS/Include/cmsis_gcc.h **** {
 610:Drivers/CMSIS/Include/cmsis_gcc.h ****     uint32_t result;
 611:Drivers/CMSIS/Include/cmsis_gcc.h **** 
 612:Drivers/CMSIS/Include/cmsis_gcc.h **** #if (__GNUC__ > 4) || (__GNUC__ == 4 && __GNUC_MINOR__ >= 8)
 613:Drivers/CMSIS/Include/cmsis_gcc.h ****    __ASM volatile ("ldrbt %0, %1" : "=r" (result) : "Q" (*ptr) );
 614:Drivers/CMSIS/Include/cmsis_gcc.h **** #else
 615:Drivers/CMSIS/Include/cmsis_gcc.h ****     /* Prior to GCC 4.8, "Q" will be expanded to [rx, #0] which is not
 616:Drivers/CMSIS/Include/cmsis_gcc.h ****        accepted by assembler. So has to use following less efficient pattern.
 617:Drivers/CMSIS/Include/cmsis_gcc.h ****     */
 618:Drivers/CMSIS/Include/cmsis_gcc.h ****    __ASM volatile ("ldrbt %0, [%1]" : "=r" (result) : "r" (ptr) : "memory" );
 619:Drivers/CMSIS/Include/cmsis_gcc.h **** #endif
 620:Drivers/CMSIS/Include/cmsis_gcc.h ****    return ((uint8_t) result);    /* Add explicit type cast here */
 621:Drivers/CMSIS/Include/cmsis_gcc.h **** }
 622:Drivers/CMSIS/Include/cmsis_gcc.h **** 
 623:Drivers/CMSIS/Include/cmsis_gcc.h **** 
 624:Drivers/CMSIS/Include/cmsis_gcc.h **** /**
 625:Drivers/CMSIS/Include/cmsis_gcc.h ****   \brief   LDRT Unprivileged (16 bit)
 626:Drivers/CMSIS/Include/cmsis_gcc.h ****   \details Executes a Unprivileged LDRT instruction for 16 bit values.
 627:Drivers/CMSIS/Include/cmsis_gcc.h ****   \param [in]    ptr  Pointer to data
 628:Drivers/CMSIS/Include/cmsis_gcc.h ****   \return        value of type uint16_t at (*ptr)
 629:Drivers/CMSIS/Include/cmsis_gcc.h ****  */
 630:Drivers/CMSIS/Include/cmsis_gcc.h **** __STATIC_FORCEINLINE uint16_t __LDRHT(volatile uint16_t *ptr)
 631:Drivers/CMSIS/Include/cmsis_gcc.h **** {
ARM GAS  C:\Users\24120\AppData\Local\Temp\ccaaYZuv.s 			page 75


 632:Drivers/CMSIS/Include/cmsis_gcc.h ****     uint32_t result;
 633:Drivers/CMSIS/Include/cmsis_gcc.h **** 
 634:Drivers/CMSIS/Include/cmsis_gcc.h **** #if (__GNUC__ > 4) || (__GNUC__ == 4 && __GNUC_MINOR__ >= 8)
 635:Drivers/CMSIS/Include/cmsis_gcc.h ****    __ASM volatile ("ldrht %0, %1" : "=r" (result) : "Q" (*ptr) );
 636:Drivers/CMSIS/Include/cmsis_gcc.h **** #else
 637:Drivers/CMSIS/Include/cmsis_gcc.h ****     /* Prior to GCC 4.8, "Q" will be expanded to [rx, #0] which is not
 638:Drivers/CMSIS/Include/cmsis_gcc.h ****        accepted by assembler. So has to use following less efficient pattern.
 639:Drivers/CMSIS/Include/cmsis_gcc.h ****     */
 640:Drivers/CMSIS/Include/cmsis_gcc.h ****    __ASM volatile ("ldrht %0, [%1]" : "=r" (result) : "r" (ptr) : "memory" );
 641:Drivers/CMSIS/Include/cmsis_gcc.h **** #endif
 642:Drivers/CMSIS/Include/cmsis_gcc.h ****    return ((uint16_t) result);    /* Add explicit type cast here */
 643:Drivers/CMSIS/Include/cmsis_gcc.h **** }
 644:Drivers/CMSIS/Include/cmsis_gcc.h **** 
 645:Drivers/CMSIS/Include/cmsis_gcc.h **** 
 646:Drivers/CMSIS/Include/cmsis_gcc.h **** /**
 647:Drivers/CMSIS/Include/cmsis_gcc.h ****   \brief   LDRT Unprivileged (32 bit)
 648:Drivers/CMSIS/Include/cmsis_gcc.h ****   \details Executes a Unprivileged LDRT instruction for 32 bit values.
 649:Drivers/CMSIS/Include/cmsis_gcc.h ****   \param [in]    ptr  Pointer to data
 650:Drivers/CMSIS/Include/cmsis_gcc.h ****   \return        value of type uint32_t at (*ptr)
 651:Drivers/CMSIS/Include/cmsis_gcc.h ****  */
 652:Drivers/CMSIS/Include/cmsis_gcc.h **** __STATIC_FORCEINLINE uint32_t __LDRT(volatile uint32_t *ptr)
 653:Drivers/CMSIS/Include/cmsis_gcc.h **** {
 654:Drivers/CMSIS/Include/cmsis_gcc.h ****     uint32_t result;
 655:Drivers/CMSIS/Include/cmsis_gcc.h **** 
 656:Drivers/CMSIS/Include/cmsis_gcc.h ****    __ASM volatile ("ldrt %0, %1" : "=r" (result) : "Q" (*ptr) );
 657:Drivers/CMSIS/Include/cmsis_gcc.h ****    return(result);
 658:Drivers/CMSIS/Include/cmsis_gcc.h **** }
 659:Drivers/CMSIS/Include/cmsis_gcc.h **** 
 660:Drivers/CMSIS/Include/cmsis_gcc.h **** 
 661:Drivers/CMSIS/Include/cmsis_gcc.h **** /**
 662:Drivers/CMSIS/Include/cmsis_gcc.h ****   \brief   STRT Unprivileged (8 bit)
 663:Drivers/CMSIS/Include/cmsis_gcc.h ****   \details Executes a Unprivileged STRT instruction for 8 bit values.
 664:Drivers/CMSIS/Include/cmsis_gcc.h ****   \param [in]  value  Value to store
 665:Drivers/CMSIS/Include/cmsis_gcc.h ****   \param [in]    ptr  Pointer to location
 666:Drivers/CMSIS/Include/cmsis_gcc.h ****  */
 667:Drivers/CMSIS/Include/cmsis_gcc.h **** __STATIC_FORCEINLINE void __STRBT(uint8_t value, volatile uint8_t *ptr)
 668:Drivers/CMSIS/Include/cmsis_gcc.h **** {
 669:Drivers/CMSIS/Include/cmsis_gcc.h ****    __ASM volatile ("strbt %1, %0" : "=Q" (*ptr) : "r" ((uint32_t)value) );
 670:Drivers/CMSIS/Include/cmsis_gcc.h **** }
 671:Drivers/CMSIS/Include/cmsis_gcc.h **** 
 672:Drivers/CMSIS/Include/cmsis_gcc.h **** 
 673:Drivers/CMSIS/Include/cmsis_gcc.h **** /**
 674:Drivers/CMSIS/Include/cmsis_gcc.h ****   \brief   STRT Unprivileged (16 bit)
 675:Drivers/CMSIS/Include/cmsis_gcc.h ****   \details Executes a Unprivileged STRT instruction for 16 bit values.
 676:Drivers/CMSIS/Include/cmsis_gcc.h ****   \param [in]  value  Value to store
 677:Drivers/CMSIS/Include/cmsis_gcc.h ****   \param [in]    ptr  Pointer to location
 678:Drivers/CMSIS/Include/cmsis_gcc.h ****  */
 679:Drivers/CMSIS/Include/cmsis_gcc.h **** __STATIC_FORCEINLINE void __STRHT(uint16_t value, volatile uint16_t *ptr)
 680:Drivers/CMSIS/Include/cmsis_gcc.h **** {
 681:Drivers/CMSIS/Include/cmsis_gcc.h ****    __ASM volatile ("strht %1, %0" : "=Q" (*ptr) : "r" ((uint32_t)value) );
 682:Drivers/CMSIS/Include/cmsis_gcc.h **** }
 683:Drivers/CMSIS/Include/cmsis_gcc.h **** 
 684:Drivers/CMSIS/Include/cmsis_gcc.h **** 
 685:Drivers/CMSIS/Include/cmsis_gcc.h **** /**
 686:Drivers/CMSIS/Include/cmsis_gcc.h ****   \brief   STRT Unprivileged (32 bit)
 687:Drivers/CMSIS/Include/cmsis_gcc.h ****   \details Executes a Unprivileged STRT instruction for 32 bit values.
 688:Drivers/CMSIS/Include/cmsis_gcc.h ****   \param [in]  value  Value to store
ARM GAS  C:\Users\24120\AppData\Local\Temp\ccaaYZuv.s 			page 76


 689:Drivers/CMSIS/Include/cmsis_gcc.h ****   \param [in]    ptr  Pointer to location
 690:Drivers/CMSIS/Include/cmsis_gcc.h ****  */
 691:Drivers/CMSIS/Include/cmsis_gcc.h **** __STATIC_FORCEINLINE void __STRT(uint32_t value, volatile uint32_t *ptr)
 692:Drivers/CMSIS/Include/cmsis_gcc.h **** {
 693:Drivers/CMSIS/Include/cmsis_gcc.h ****    __ASM volatile ("strt %1, %0" : "=Q" (*ptr) : "r" (value) );
 694:Drivers/CMSIS/Include/cmsis_gcc.h **** }
 695:Drivers/CMSIS/Include/cmsis_gcc.h **** 
 696:Drivers/CMSIS/Include/cmsis_gcc.h **** #else  /* ((defined (__ARM_ARCH_7M__      ) && (__ARM_ARCH_7M__      == 1)) || \
 697:Drivers/CMSIS/Include/cmsis_gcc.h ****            (defined (__ARM_ARCH_7EM__     ) && (__ARM_ARCH_7EM__     == 1)) || \
 698:Drivers/CMSIS/Include/cmsis_gcc.h ****            (defined (__ARM_ARCH_8M_MAIN__ ) && (__ARM_ARCH_8M_MAIN__ == 1))    ) */
 699:Drivers/CMSIS/Include/cmsis_gcc.h **** 
 700:Drivers/CMSIS/Include/cmsis_gcc.h **** /**
 701:Drivers/CMSIS/Include/cmsis_gcc.h ****   \brief   Signed Saturate
 702:Drivers/CMSIS/Include/cmsis_gcc.h ****   \details Saturates a signed value.
 703:Drivers/CMSIS/Include/cmsis_gcc.h ****   \param [in]  value  Value to be saturated
 704:Drivers/CMSIS/Include/cmsis_gcc.h ****   \param [in]    sat  Bit position to saturate to (1..32)
 705:Drivers/CMSIS/Include/cmsis_gcc.h ****   \return             Saturated value
 706:Drivers/CMSIS/Include/cmsis_gcc.h ****  */
 707:Drivers/CMSIS/Include/cmsis_gcc.h **** __STATIC_FORCEINLINE int32_t __SSAT(int32_t val, uint32_t sat)
 708:Drivers/CMSIS/Include/cmsis_gcc.h **** {
 709:Drivers/CMSIS/Include/cmsis_gcc.h ****   if ((sat >= 1U) && (sat <= 32U))
 710:Drivers/CMSIS/Include/cmsis_gcc.h ****   {
 711:Drivers/CMSIS/Include/cmsis_gcc.h ****     const int32_t max = (int32_t)((1U << (sat - 1U)) - 1U);
 712:Drivers/CMSIS/Include/cmsis_gcc.h ****     const int32_t min = -1 - max ;
 713:Drivers/CMSIS/Include/cmsis_gcc.h ****     if (val > max)
 714:Drivers/CMSIS/Include/cmsis_gcc.h ****     {
 715:Drivers/CMSIS/Include/cmsis_gcc.h ****       return max;
 716:Drivers/CMSIS/Include/cmsis_gcc.h ****     }
 717:Drivers/CMSIS/Include/cmsis_gcc.h ****     else if (val < min)
 718:Drivers/CMSIS/Include/cmsis_gcc.h ****     {
 719:Drivers/CMSIS/Include/cmsis_gcc.h ****       return min;
 720:Drivers/CMSIS/Include/cmsis_gcc.h ****     }
 721:Drivers/CMSIS/Include/cmsis_gcc.h ****   }
 722:Drivers/CMSIS/Include/cmsis_gcc.h ****   return val;
 723:Drivers/CMSIS/Include/cmsis_gcc.h **** }
 724:Drivers/CMSIS/Include/cmsis_gcc.h **** 
 725:Drivers/CMSIS/Include/cmsis_gcc.h **** /**
 726:Drivers/CMSIS/Include/cmsis_gcc.h ****   \brief   Unsigned Saturate
 727:Drivers/CMSIS/Include/cmsis_gcc.h ****   \details Saturates an unsigned value.
 728:Drivers/CMSIS/Include/cmsis_gcc.h ****   \param [in]  value  Value to be saturated
 729:Drivers/CMSIS/Include/cmsis_gcc.h ****   \param [in]    sat  Bit position to saturate to (0..31)
 730:Drivers/CMSIS/Include/cmsis_gcc.h ****   \return             Saturated value
 731:Drivers/CMSIS/Include/cmsis_gcc.h ****  */
 732:Drivers/CMSIS/Include/cmsis_gcc.h **** __STATIC_FORCEINLINE uint32_t __USAT(int32_t val, uint32_t sat)
 733:Drivers/CMSIS/Include/cmsis_gcc.h **** {
 734:Drivers/CMSIS/Include/cmsis_gcc.h ****   if (sat <= 31U)
 735:Drivers/CMSIS/Include/cmsis_gcc.h ****   {
 736:Drivers/CMSIS/Include/cmsis_gcc.h ****     const uint32_t max = ((1U << sat) - 1U);
 737:Drivers/CMSIS/Include/cmsis_gcc.h ****     if (val > (int32_t)max)
 738:Drivers/CMSIS/Include/cmsis_gcc.h ****     {
 739:Drivers/CMSIS/Include/cmsis_gcc.h ****       return max;
 740:Drivers/CMSIS/Include/cmsis_gcc.h ****     }
 741:Drivers/CMSIS/Include/cmsis_gcc.h ****     else if (val < 0)
 742:Drivers/CMSIS/Include/cmsis_gcc.h ****     {
 743:Drivers/CMSIS/Include/cmsis_gcc.h ****       return 0U;
 744:Drivers/CMSIS/Include/cmsis_gcc.h ****     }
 745:Drivers/CMSIS/Include/cmsis_gcc.h ****   }
ARM GAS  C:\Users\24120\AppData\Local\Temp\ccaaYZuv.s 			page 77


 746:Drivers/CMSIS/Include/cmsis_gcc.h ****   return (uint32_t)val;
 747:Drivers/CMSIS/Include/cmsis_gcc.h **** }
 748:Drivers/CMSIS/Include/cmsis_gcc.h **** 
 749:Drivers/CMSIS/Include/cmsis_gcc.h **** #endif /* ((defined (__ARM_ARCH_7M__      ) && (__ARM_ARCH_7M__      == 1)) || \
 750:Drivers/CMSIS/Include/cmsis_gcc.h ****            (defined (__ARM_ARCH_7EM__     ) && (__ARM_ARCH_7EM__     == 1)) || \
 751:Drivers/CMSIS/Include/cmsis_gcc.h ****            (defined (__ARM_ARCH_8M_MAIN__ ) && (__ARM_ARCH_8M_MAIN__ == 1))    ) */
 752:Drivers/CMSIS/Include/cmsis_gcc.h **** 
 753:Drivers/CMSIS/Include/cmsis_gcc.h **** 
 754:Drivers/CMSIS/Include/cmsis_gcc.h **** #if ((defined (__ARM_ARCH_8M_MAIN__ ) && (__ARM_ARCH_8M_MAIN__ == 1)) || \
 755:Drivers/CMSIS/Include/cmsis_gcc.h ****      (defined (__ARM_ARCH_8M_BASE__ ) && (__ARM_ARCH_8M_BASE__ == 1))    )
 756:Drivers/CMSIS/Include/cmsis_gcc.h **** /**
 757:Drivers/CMSIS/Include/cmsis_gcc.h ****   \brief   Load-Acquire (8 bit)
 758:Drivers/CMSIS/Include/cmsis_gcc.h ****   \details Executes a LDAB instruction for 8 bit value.
 759:Drivers/CMSIS/Include/cmsis_gcc.h ****   \param [in]    ptr  Pointer to data
 760:Drivers/CMSIS/Include/cmsis_gcc.h ****   \return             value of type uint8_t at (*ptr)
 761:Drivers/CMSIS/Include/cmsis_gcc.h ****  */
 762:Drivers/CMSIS/Include/cmsis_gcc.h **** __STATIC_FORCEINLINE uint8_t __LDAB(volatile uint8_t *ptr)
 763:Drivers/CMSIS/Include/cmsis_gcc.h **** {
 764:Drivers/CMSIS/Include/cmsis_gcc.h ****     uint32_t result;
 765:Drivers/CMSIS/Include/cmsis_gcc.h **** 
 766:Drivers/CMSIS/Include/cmsis_gcc.h ****    __ASM volatile ("ldab %0, %1" : "=r" (result) : "Q" (*ptr) : "memory" );
 767:Drivers/CMSIS/Include/cmsis_gcc.h ****    return ((uint8_t) result);
 768:Drivers/CMSIS/Include/cmsis_gcc.h **** }
 769:Drivers/CMSIS/Include/cmsis_gcc.h **** 
 770:Drivers/CMSIS/Include/cmsis_gcc.h **** 
 771:Drivers/CMSIS/Include/cmsis_gcc.h **** /**
 772:Drivers/CMSIS/Include/cmsis_gcc.h ****   \brief   Load-Acquire (16 bit)
 773:Drivers/CMSIS/Include/cmsis_gcc.h ****   \details Executes a LDAH instruction for 16 bit values.
 774:Drivers/CMSIS/Include/cmsis_gcc.h ****   \param [in]    ptr  Pointer to data
 775:Drivers/CMSIS/Include/cmsis_gcc.h ****   \return        value of type uint16_t at (*ptr)
 776:Drivers/CMSIS/Include/cmsis_gcc.h ****  */
 777:Drivers/CMSIS/Include/cmsis_gcc.h **** __STATIC_FORCEINLINE uint16_t __LDAH(volatile uint16_t *ptr)
 778:Drivers/CMSIS/Include/cmsis_gcc.h **** {
 779:Drivers/CMSIS/Include/cmsis_gcc.h ****     uint32_t result;
 780:Drivers/CMSIS/Include/cmsis_gcc.h **** 
 781:Drivers/CMSIS/Include/cmsis_gcc.h ****    __ASM volatile ("ldah %0, %1" : "=r" (result) : "Q" (*ptr) : "memory" );
 782:Drivers/CMSIS/Include/cmsis_gcc.h ****    return ((uint16_t) result);
 783:Drivers/CMSIS/Include/cmsis_gcc.h **** }
 784:Drivers/CMSIS/Include/cmsis_gcc.h **** 
 785:Drivers/CMSIS/Include/cmsis_gcc.h **** 
 786:Drivers/CMSIS/Include/cmsis_gcc.h **** /**
 787:Drivers/CMSIS/Include/cmsis_gcc.h ****   \brief   Load-Acquire (32 bit)
 788:Drivers/CMSIS/Include/cmsis_gcc.h ****   \details Executes a LDA instruction for 32 bit values.
 789:Drivers/CMSIS/Include/cmsis_gcc.h ****   \param [in]    ptr  Pointer to data
 790:Drivers/CMSIS/Include/cmsis_gcc.h ****   \return        value of type uint32_t at (*ptr)
 791:Drivers/CMSIS/Include/cmsis_gcc.h ****  */
 792:Drivers/CMSIS/Include/cmsis_gcc.h **** __STATIC_FORCEINLINE uint32_t __LDA(volatile uint32_t *ptr)
 793:Drivers/CMSIS/Include/cmsis_gcc.h **** {
 794:Drivers/CMSIS/Include/cmsis_gcc.h ****     uint32_t result;
 795:Drivers/CMSIS/Include/cmsis_gcc.h **** 
 796:Drivers/CMSIS/Include/cmsis_gcc.h ****    __ASM volatile ("lda %0, %1" : "=r" (result) : "Q" (*ptr) : "memory" );
 797:Drivers/CMSIS/Include/cmsis_gcc.h ****    return(result);
 798:Drivers/CMSIS/Include/cmsis_gcc.h **** }
 799:Drivers/CMSIS/Include/cmsis_gcc.h **** 
 800:Drivers/CMSIS/Include/cmsis_gcc.h **** 
 801:Drivers/CMSIS/Include/cmsis_gcc.h **** /**
 802:Drivers/CMSIS/Include/cmsis_gcc.h ****   \brief   Store-Release (8 bit)
ARM GAS  C:\Users\24120\AppData\Local\Temp\ccaaYZuv.s 			page 78


 803:Drivers/CMSIS/Include/cmsis_gcc.h ****   \details Executes a STLB instruction for 8 bit values.
 804:Drivers/CMSIS/Include/cmsis_gcc.h ****   \param [in]  value  Value to store
 805:Drivers/CMSIS/Include/cmsis_gcc.h ****   \param [in]    ptr  Pointer to location
 806:Drivers/CMSIS/Include/cmsis_gcc.h ****  */
 807:Drivers/CMSIS/Include/cmsis_gcc.h **** __STATIC_FORCEINLINE void __STLB(uint8_t value, volatile uint8_t *ptr)
 808:Drivers/CMSIS/Include/cmsis_gcc.h **** {
 809:Drivers/CMSIS/Include/cmsis_gcc.h ****    __ASM volatile ("stlb %1, %0" : "=Q" (*ptr) : "r" ((uint32_t)value) : "memory" );
 810:Drivers/CMSIS/Include/cmsis_gcc.h **** }
 811:Drivers/CMSIS/Include/cmsis_gcc.h **** 
 812:Drivers/CMSIS/Include/cmsis_gcc.h **** 
 813:Drivers/CMSIS/Include/cmsis_gcc.h **** /**
 814:Drivers/CMSIS/Include/cmsis_gcc.h ****   \brief   Store-Release (16 bit)
 815:Drivers/CMSIS/Include/cmsis_gcc.h ****   \details Executes a STLH instruction for 16 bit values.
 816:Drivers/CMSIS/Include/cmsis_gcc.h ****   \param [in]  value  Value to store
 817:Drivers/CMSIS/Include/cmsis_gcc.h ****   \param [in]    ptr  Pointer to location
 818:Drivers/CMSIS/Include/cmsis_gcc.h ****  */
 819:Drivers/CMSIS/Include/cmsis_gcc.h **** __STATIC_FORCEINLINE void __STLH(uint16_t value, volatile uint16_t *ptr)
 820:Drivers/CMSIS/Include/cmsis_gcc.h **** {
 821:Drivers/CMSIS/Include/cmsis_gcc.h ****    __ASM volatile ("stlh %1, %0" : "=Q" (*ptr) : "r" ((uint32_t)value) : "memory" );
 822:Drivers/CMSIS/Include/cmsis_gcc.h **** }
 823:Drivers/CMSIS/Include/cmsis_gcc.h **** 
 824:Drivers/CMSIS/Include/cmsis_gcc.h **** 
 825:Drivers/CMSIS/Include/cmsis_gcc.h **** /**
 826:Drivers/CMSIS/Include/cmsis_gcc.h ****   \brief   Store-Release (32 bit)
 827:Drivers/CMSIS/Include/cmsis_gcc.h ****   \details Executes a STL instruction for 32 bit values.
 828:Drivers/CMSIS/Include/cmsis_gcc.h ****   \param [in]  value  Value to store
 829:Drivers/CMSIS/Include/cmsis_gcc.h ****   \param [in]    ptr  Pointer to location
 830:Drivers/CMSIS/Include/cmsis_gcc.h ****  */
 831:Drivers/CMSIS/Include/cmsis_gcc.h **** __STATIC_FORCEINLINE void __STL(uint32_t value, volatile uint32_t *ptr)
 832:Drivers/CMSIS/Include/cmsis_gcc.h **** {
 833:Drivers/CMSIS/Include/cmsis_gcc.h ****    __ASM volatile ("stl %1, %0" : "=Q" (*ptr) : "r" ((uint32_t)value) : "memory" );
 834:Drivers/CMSIS/Include/cmsis_gcc.h **** }
 835:Drivers/CMSIS/Include/cmsis_gcc.h **** 
 836:Drivers/CMSIS/Include/cmsis_gcc.h **** 
 837:Drivers/CMSIS/Include/cmsis_gcc.h **** /**
 838:Drivers/CMSIS/Include/cmsis_gcc.h ****   \brief   Load-Acquire Exclusive (8 bit)
 839:Drivers/CMSIS/Include/cmsis_gcc.h ****   \details Executes a LDAB exclusive instruction for 8 bit value.
 840:Drivers/CMSIS/Include/cmsis_gcc.h ****   \param [in]    ptr  Pointer to data
 841:Drivers/CMSIS/Include/cmsis_gcc.h ****   \return             value of type uint8_t at (*ptr)
 842:Drivers/CMSIS/Include/cmsis_gcc.h ****  */
 843:Drivers/CMSIS/Include/cmsis_gcc.h **** __STATIC_FORCEINLINE uint8_t __LDAEXB(volatile uint8_t *ptr)
 844:Drivers/CMSIS/Include/cmsis_gcc.h **** {
 845:Drivers/CMSIS/Include/cmsis_gcc.h ****     uint32_t result;
 846:Drivers/CMSIS/Include/cmsis_gcc.h **** 
 847:Drivers/CMSIS/Include/cmsis_gcc.h ****    __ASM volatile ("ldaexb %0, %1" : "=r" (result) : "Q" (*ptr) : "memory" );
 848:Drivers/CMSIS/Include/cmsis_gcc.h ****    return ((uint8_t) result);
 849:Drivers/CMSIS/Include/cmsis_gcc.h **** }
 850:Drivers/CMSIS/Include/cmsis_gcc.h **** 
 851:Drivers/CMSIS/Include/cmsis_gcc.h **** 
 852:Drivers/CMSIS/Include/cmsis_gcc.h **** /**
 853:Drivers/CMSIS/Include/cmsis_gcc.h ****   \brief   Load-Acquire Exclusive (16 bit)
 854:Drivers/CMSIS/Include/cmsis_gcc.h ****   \details Executes a LDAH exclusive instruction for 16 bit values.
 855:Drivers/CMSIS/Include/cmsis_gcc.h ****   \param [in]    ptr  Pointer to data
 856:Drivers/CMSIS/Include/cmsis_gcc.h ****   \return        value of type uint16_t at (*ptr)
 857:Drivers/CMSIS/Include/cmsis_gcc.h ****  */
 858:Drivers/CMSIS/Include/cmsis_gcc.h **** __STATIC_FORCEINLINE uint16_t __LDAEXH(volatile uint16_t *ptr)
 859:Drivers/CMSIS/Include/cmsis_gcc.h **** {
ARM GAS  C:\Users\24120\AppData\Local\Temp\ccaaYZuv.s 			page 79


 860:Drivers/CMSIS/Include/cmsis_gcc.h ****     uint32_t result;
 861:Drivers/CMSIS/Include/cmsis_gcc.h **** 
 862:Drivers/CMSIS/Include/cmsis_gcc.h ****    __ASM volatile ("ldaexh %0, %1" : "=r" (result) : "Q" (*ptr) : "memory" );
 863:Drivers/CMSIS/Include/cmsis_gcc.h ****    return ((uint16_t) result);
 864:Drivers/CMSIS/Include/cmsis_gcc.h **** }
 865:Drivers/CMSIS/Include/cmsis_gcc.h **** 
 866:Drivers/CMSIS/Include/cmsis_gcc.h **** 
 867:Drivers/CMSIS/Include/cmsis_gcc.h **** /**
 868:Drivers/CMSIS/Include/cmsis_gcc.h ****   \brief   Load-Acquire Exclusive (32 bit)
 869:Drivers/CMSIS/Include/cmsis_gcc.h ****   \details Executes a LDA exclusive instruction for 32 bit values.
 870:Drivers/CMSIS/Include/cmsis_gcc.h ****   \param [in]    ptr  Pointer to data
 871:Drivers/CMSIS/Include/cmsis_gcc.h ****   \return        value of type uint32_t at (*ptr)
 872:Drivers/CMSIS/Include/cmsis_gcc.h ****  */
 873:Drivers/CMSIS/Include/cmsis_gcc.h **** __STATIC_FORCEINLINE uint32_t __LDAEX(volatile uint32_t *ptr)
 874:Drivers/CMSIS/Include/cmsis_gcc.h **** {
 875:Drivers/CMSIS/Include/cmsis_gcc.h ****     uint32_t result;
 876:Drivers/CMSIS/Include/cmsis_gcc.h **** 
 877:Drivers/CMSIS/Include/cmsis_gcc.h ****    __ASM volatile ("ldaex %0, %1" : "=r" (result) : "Q" (*ptr) : "memory" );
 878:Drivers/CMSIS/Include/cmsis_gcc.h ****    return(result);
 879:Drivers/CMSIS/Include/cmsis_gcc.h **** }
 880:Drivers/CMSIS/Include/cmsis_gcc.h **** 
 881:Drivers/CMSIS/Include/cmsis_gcc.h **** 
 882:Drivers/CMSIS/Include/cmsis_gcc.h **** /**
 883:Drivers/CMSIS/Include/cmsis_gcc.h ****   \brief   Store-Release Exclusive (8 bit)
 884:Drivers/CMSIS/Include/cmsis_gcc.h ****   \details Executes a STLB exclusive instruction for 8 bit values.
 885:Drivers/CMSIS/Include/cmsis_gcc.h ****   \param [in]  value  Value to store
 886:Drivers/CMSIS/Include/cmsis_gcc.h ****   \param [in]    ptr  Pointer to location
 887:Drivers/CMSIS/Include/cmsis_gcc.h ****   \return          0  Function succeeded
 888:Drivers/CMSIS/Include/cmsis_gcc.h ****   \return          1  Function failed
 889:Drivers/CMSIS/Include/cmsis_gcc.h ****  */
 890:Drivers/CMSIS/Include/cmsis_gcc.h **** __STATIC_FORCEINLINE uint32_t __STLEXB(uint8_t value, volatile uint8_t *ptr)
 891:Drivers/CMSIS/Include/cmsis_gcc.h **** {
 892:Drivers/CMSIS/Include/cmsis_gcc.h ****    uint32_t result;
 893:Drivers/CMSIS/Include/cmsis_gcc.h **** 
 894:Drivers/CMSIS/Include/cmsis_gcc.h ****    __ASM volatile ("stlexb %0, %2, %1" : "=&r" (result), "=Q" (*ptr) : "r" ((uint32_t)value) : "mem
 895:Drivers/CMSIS/Include/cmsis_gcc.h ****    return(result);
 896:Drivers/CMSIS/Include/cmsis_gcc.h **** }
 897:Drivers/CMSIS/Include/cmsis_gcc.h **** 
 898:Drivers/CMSIS/Include/cmsis_gcc.h **** 
 899:Drivers/CMSIS/Include/cmsis_gcc.h **** /**
 900:Drivers/CMSIS/Include/cmsis_gcc.h ****   \brief   Store-Release Exclusive (16 bit)
 901:Drivers/CMSIS/Include/cmsis_gcc.h ****   \details Executes a STLH exclusive instruction for 16 bit values.
 902:Drivers/CMSIS/Include/cmsis_gcc.h ****   \param [in]  value  Value to store
 903:Drivers/CMSIS/Include/cmsis_gcc.h ****   \param [in]    ptr  Pointer to location
 904:Drivers/CMSIS/Include/cmsis_gcc.h ****   \return          0  Function succeeded
 905:Drivers/CMSIS/Include/cmsis_gcc.h ****   \return          1  Function failed
 906:Drivers/CMSIS/Include/cmsis_gcc.h ****  */
 907:Drivers/CMSIS/Include/cmsis_gcc.h **** __STATIC_FORCEINLINE uint32_t __STLEXH(uint16_t value, volatile uint16_t *ptr)
 908:Drivers/CMSIS/Include/cmsis_gcc.h **** {
 909:Drivers/CMSIS/Include/cmsis_gcc.h ****    uint32_t result;
 910:Drivers/CMSIS/Include/cmsis_gcc.h **** 
 911:Drivers/CMSIS/Include/cmsis_gcc.h ****    __ASM volatile ("stlexh %0, %2, %1" : "=&r" (result), "=Q" (*ptr) : "r" ((uint32_t)value) : "mem
 912:Drivers/CMSIS/Include/cmsis_gcc.h ****    return(result);
 913:Drivers/CMSIS/Include/cmsis_gcc.h **** }
 914:Drivers/CMSIS/Include/cmsis_gcc.h **** 
 915:Drivers/CMSIS/Include/cmsis_gcc.h **** 
 916:Drivers/CMSIS/Include/cmsis_gcc.h **** /**
ARM GAS  C:\Users\24120\AppData\Local\Temp\ccaaYZuv.s 			page 80


 917:Drivers/CMSIS/Include/cmsis_gcc.h ****   \brief   Store-Release Exclusive (32 bit)
 918:Drivers/CMSIS/Include/cmsis_gcc.h ****   \details Executes a STL exclusive instruction for 32 bit values.
 919:Drivers/CMSIS/Include/cmsis_gcc.h ****   \param [in]  value  Value to store
 920:Drivers/CMSIS/Include/cmsis_gcc.h ****   \param [in]    ptr  Pointer to location
 921:Drivers/CMSIS/Include/cmsis_gcc.h ****   \return          0  Function succeeded
 922:Drivers/CMSIS/Include/cmsis_gcc.h ****   \return          1  Function failed
 923:Drivers/CMSIS/Include/cmsis_gcc.h ****  */
 924:Drivers/CMSIS/Include/cmsis_gcc.h **** __STATIC_FORCEINLINE uint32_t __STLEX(uint32_t value, volatile uint32_t *ptr)
 925:Drivers/CMSIS/Include/cmsis_gcc.h **** {
 926:Drivers/CMSIS/Include/cmsis_gcc.h ****    uint32_t result;
 927:Drivers/CMSIS/Include/cmsis_gcc.h **** 
 928:Drivers/CMSIS/Include/cmsis_gcc.h ****    __ASM volatile ("stlex %0, %2, %1" : "=&r" (result), "=Q" (*ptr) : "r" ((uint32_t)value) : "memo
 929:Drivers/CMSIS/Include/cmsis_gcc.h ****    return(result);
 930:Drivers/CMSIS/Include/cmsis_gcc.h **** }
 931:Drivers/CMSIS/Include/cmsis_gcc.h **** 
 932:Drivers/CMSIS/Include/cmsis_gcc.h **** #endif /* ((defined (__ARM_ARCH_8M_MAIN__ ) && (__ARM_ARCH_8M_MAIN__ == 1)) || \
 933:Drivers/CMSIS/Include/cmsis_gcc.h ****            (defined (__ARM_ARCH_8M_BASE__ ) && (__ARM_ARCH_8M_BASE__ == 1))    ) */
 934:Drivers/CMSIS/Include/cmsis_gcc.h **** 
 935:Drivers/CMSIS/Include/cmsis_gcc.h **** /*@}*/ /* end of group CMSIS_Core_InstructionInterface */
 936:Drivers/CMSIS/Include/cmsis_gcc.h **** 
 937:Drivers/CMSIS/Include/cmsis_gcc.h **** 
 938:Drivers/CMSIS/Include/cmsis_gcc.h **** /* ###########################  Core Function Access  ########################### */
 939:Drivers/CMSIS/Include/cmsis_gcc.h **** /** \ingroup  CMSIS_Core_FunctionInterface
 940:Drivers/CMSIS/Include/cmsis_gcc.h ****     \defgroup CMSIS_Core_RegAccFunctions CMSIS Core Register Access Functions
 941:Drivers/CMSIS/Include/cmsis_gcc.h ****   @{
 942:Drivers/CMSIS/Include/cmsis_gcc.h ****  */
 943:Drivers/CMSIS/Include/cmsis_gcc.h **** 
 944:Drivers/CMSIS/Include/cmsis_gcc.h **** /**
 945:Drivers/CMSIS/Include/cmsis_gcc.h ****   \brief   Enable IRQ Interrupts
 946:Drivers/CMSIS/Include/cmsis_gcc.h ****   \details Enables IRQ interrupts by clearing special-purpose register PRIMASK.
 947:Drivers/CMSIS/Include/cmsis_gcc.h ****            Can only be executed in Privileged modes.
 948:Drivers/CMSIS/Include/cmsis_gcc.h ****  */
 949:Drivers/CMSIS/Include/cmsis_gcc.h **** __STATIC_FORCEINLINE void __enable_irq(void)
 950:Drivers/CMSIS/Include/cmsis_gcc.h **** {
 951:Drivers/CMSIS/Include/cmsis_gcc.h ****   __ASM volatile ("cpsie i" : : : "memory");
 952:Drivers/CMSIS/Include/cmsis_gcc.h **** }
 953:Drivers/CMSIS/Include/cmsis_gcc.h **** 
 954:Drivers/CMSIS/Include/cmsis_gcc.h **** 
 955:Drivers/CMSIS/Include/cmsis_gcc.h **** /**
 956:Drivers/CMSIS/Include/cmsis_gcc.h ****   \brief   Disable IRQ Interrupts
 957:Drivers/CMSIS/Include/cmsis_gcc.h ****   \details Disables IRQ interrupts by setting special-purpose register PRIMASK.
 958:Drivers/CMSIS/Include/cmsis_gcc.h ****            Can only be executed in Privileged modes.
 959:Drivers/CMSIS/Include/cmsis_gcc.h ****  */
 960:Drivers/CMSIS/Include/cmsis_gcc.h **** __STATIC_FORCEINLINE void __disable_irq(void)
 2429              		.loc 2 960 27 view .LVU668
 2430              	.LBB69:
 961:Drivers/CMSIS/Include/cmsis_gcc.h **** {
 962:Drivers/CMSIS/Include/cmsis_gcc.h ****   __ASM volatile ("cpsid i" : : : "memory");
 2431              		.loc 2 962 3 view .LVU669
 2432              		.syntax unified
 2433              	@ 962 "Drivers/CMSIS/Include/cmsis_gcc.h" 1
 2434 0000 72B6     		cpsid i
 2435              	@ 0 "" 2
 2436              		.thumb
 2437              		.syntax unified
 2438              	.LBE69:
 2439              	.LBE68:
ARM GAS  C:\Users\24120\AppData\Local\Temp\ccaaYZuv.s 			page 81


 353:BSP/NFC.c     ****     s_readerLocked = 1;
 2440              		.loc 1 353 5 view .LVU670
 353:BSP/NFC.c     ****     s_readerLocked = 1;
 2441              		.loc 1 353 9 is_stmt 0 view .LVU671
 2442 0002 054B     		ldr	r3, .L189
 2443 0004 1B78     		ldrb	r3, [r3]	@ zero_extendqisi2
 353:BSP/NFC.c     ****     s_readerLocked = 1;
 2444              		.loc 1 353 8 view .LVU672
 2445 0006 23B9     		cbnz	r3, .L188
 354:BSP/NFC.c     ****     __enable_irq();
 2446              		.loc 1 354 5 is_stmt 1 view .LVU673
 354:BSP/NFC.c     ****     __enable_irq();
 2447              		.loc 1 354 20 is_stmt 0 view .LVU674
 2448 0008 0120     		movs	r0, #1
 2449 000a 034B     		ldr	r3, .L189
 2450 000c 1870     		strb	r0, [r3]
 355:BSP/NFC.c     ****     return 1;
 2451              		.loc 1 355 5 is_stmt 1 view .LVU675
 2452              	.LBB70:
 2453              	.LBI70:
 949:Drivers/CMSIS/Include/cmsis_gcc.h **** {
 2454              		.loc 2 949 27 view .LVU676
 2455              	.LBB71:
 951:Drivers/CMSIS/Include/cmsis_gcc.h **** }
 2456              		.loc 2 951 3 view .LVU677
 2457              		.syntax unified
 2458              	@ 951 "Drivers/CMSIS/Include/cmsis_gcc.h" 1
 2459 000e 62B6     		cpsie i
 2460              	@ 0 "" 2
 2461              		.thumb
 2462              		.syntax unified
 2463              	.LBE71:
 2464              	.LBE70:
 356:BSP/NFC.c     **** }
 2465              		.loc 1 356 5 view .LVU678
 357:BSP/NFC.c     **** void    NFC_UnlockReader(void) { s_readerLocked = 0; }
 2466              		.loc 1 357 1 is_stmt 0 view .LVU679
 2467 0010 7047     		bx	lr
 2468              	.L188:
 353:BSP/NFC.c     ****     s_readerLocked = 1;
 2469              		.loc 1 353 27 is_stmt 1 discriminator 1 view .LVU680
 2470              	.LBB72:
 2471              	.LBI72:
 949:Drivers/CMSIS/Include/cmsis_gcc.h **** {
 2472              		.loc 2 949 27 view .LVU681
 2473              	.LBB73:
 951:Drivers/CMSIS/Include/cmsis_gcc.h **** }
 2474              		.loc 2 951 3 view .LVU682
 2475              		.syntax unified
 2476              	@ 951 "Drivers/CMSIS/Include/cmsis_gcc.h" 1
 2477 0012 62B6     		cpsie i
 2478              	@ 0 "" 2
 2479              		.thumb
 2480              		.syntax unified
 2481              	.LBE73:
 2482              	.LBE72:
 353:BSP/NFC.c     ****     s_readerLocked = 1;
ARM GAS  C:\Users\24120\AppData\Local\Temp\ccaaYZuv.s 			page 82


 2483              		.loc 1 353 43 discriminator 1 view .LVU683
 353:BSP/NFC.c     ****     s_readerLocked = 1;
 2484              		.loc 1 353 50 is_stmt 0 discriminator 1 view .LVU684
 2485 0014 0020     		movs	r0, #0
 353:BSP/NFC.c     ****     s_readerLocked = 1;
 2486              		.loc 1 353 50 view .LVU685
 2487 0016 7047     		bx	lr
 2488              	.L190:
 2489              		.align	2
 2490              	.L189:
 2491 0018 00000000 		.word	s_readerLocked
 2492              		.cfi_endproc
 2493              	.LFE252:
 2495              		.section	.text.NFC_UnlockReader,"ax",%progbits
 2496              		.align	1
 2497              		.global	NFC_UnlockReader
 2498              		.syntax unified
 2499              		.thumb
 2500              		.thumb_func
 2502              	NFC_UnlockReader:
 2503              	.LFB253:
 358:BSP/NFC.c     **** uint8_t NFC_IsReaderLocked(void) { return s_readerLocked; }
 2504              		.loc 1 358 32 is_stmt 1 view -0
 2505              		.cfi_startproc
 2506              		@ args = 0, pretend = 0, frame = 0
 2507              		@ frame_needed = 0, uses_anonymous_args = 0
 2508              		@ link register save eliminated.
 358:BSP/NFC.c     **** uint8_t NFC_IsReaderLocked(void) { return s_readerLocked; }
 2509              		.loc 1 358 34 view .LVU687
 358:BSP/NFC.c     **** uint8_t NFC_IsReaderLocked(void) { return s_readerLocked; }
 2510              		.loc 1 358 49 is_stmt 0 view .LVU688
 2511 0000 014B     		ldr	r3, .L192
 2512 0002 0022     		movs	r2, #0
 2513 0004 1A70     		strb	r2, [r3]
 358:BSP/NFC.c     **** uint8_t NFC_IsReaderLocked(void) { return s_readerLocked; }
 2514              		.loc 1 358 54 view .LVU689
 2515 0006 7047     		bx	lr
 2516              	.L193:
 2517              		.align	2
 2518              	.L192:
 2519 0008 00000000 		.word	s_readerLocked
 2520              		.cfi_endproc
 2521              	.LFE253:
 2523              		.section	.text.NFC_IsReaderLocked,"ax",%progbits
 2524              		.align	1
 2525              		.global	NFC_IsReaderLocked
 2526              		.syntax unified
 2527              		.thumb
 2528              		.thumb_func
 2530              	NFC_IsReaderLocked:
 2531              	.LFB254:
 359:BSP/NFC.c     **** 
 2532              		.loc 1 359 34 is_stmt 1 view -0
 2533              		.cfi_startproc
 2534              		@ args = 0, pretend = 0, frame = 0
 2535              		@ frame_needed = 0, uses_anonymous_args = 0
 2536              		@ link register save eliminated.
ARM GAS  C:\Users\24120\AppData\Local\Temp\ccaaYZuv.s 			page 83


 359:BSP/NFC.c     **** 
 2537              		.loc 1 359 36 view .LVU691
 359:BSP/NFC.c     **** 
 2538              		.loc 1 359 43 is_stmt 0 view .LVU692
 2539 0000 014B     		ldr	r3, .L195
 2540 0002 1878     		ldrb	r0, [r3]	@ zero_extendqisi2
 359:BSP/NFC.c     **** 
 2541              		.loc 1 359 59 view .LVU693
 2542 0004 7047     		bx	lr
 2543              	.L196:
 2544 0006 00BF     		.align	2
 2545              	.L195:
 2546 0008 00000000 		.word	s_readerLocked
 2547              		.cfi_endproc
 2548              	.LFE254:
 2550              		.section	.text.NFC_NotifyCmdDone,"ax",%progbits
 2551              		.align	1
 2552              		.global	NFC_NotifyCmdDone
 2553              		.syntax unified
 2554              		.thumb
 2555              		.thumb_func
 2557              	NFC_NotifyCmdDone:
 2558              	.LFB255:
 366:BSP/NFC.c     **** void NFC_ClearCmdDone(void)  { s_cmdDone = 0; }
 2559              		.loc 1 366 30 is_stmt 1 view -0
 2560              		.cfi_startproc
 2561              		@ args = 0, pretend = 0, frame = 0
 2562              		@ frame_needed = 0, uses_anonymous_args = 0
 2563              		@ link register save eliminated.
 366:BSP/NFC.c     **** void NFC_ClearCmdDone(void)  { s_cmdDone = 0; }
 2564              		.loc 1 366 32 view .LVU695
 366:BSP/NFC.c     **** void NFC_ClearCmdDone(void)  { s_cmdDone = 0; }
 2565              		.loc 1 366 42 is_stmt 0 view .LVU696
 2566 0000 014B     		ldr	r3, .L198
 2567 0002 0122     		movs	r2, #1
 2568 0004 1A70     		strb	r2, [r3]
 366:BSP/NFC.c     **** void NFC_ClearCmdDone(void)  { s_cmdDone = 0; }
 2569              		.loc 1 366 47 view .LVU697
 2570 0006 7047     		bx	lr
 2571              	.L199:
 2572              		.align	2
 2573              	.L198:
 2574 0008 00000000 		.word	s_cmdDone
 2575              		.cfi_endproc
 2576              	.LFE255:
 2578              		.section	.text.NFC_ClearCmdDone,"ax",%progbits
 2579              		.align	1
 2580              		.global	NFC_ClearCmdDone
 2581              		.syntax unified
 2582              		.thumb
 2583              		.thumb_func
 2585              	NFC_ClearCmdDone:
 2586              	.LFB256:
 367:BSP/NFC.c     **** uint8_t NFC_IsCmdDone(void)  { return s_cmdDone; }
 2587              		.loc 1 367 30 is_stmt 1 view -0
 2588              		.cfi_startproc
 2589              		@ args = 0, pretend = 0, frame = 0
ARM GAS  C:\Users\24120\AppData\Local\Temp\ccaaYZuv.s 			page 84


 2590              		@ frame_needed = 0, uses_anonymous_args = 0
 2591              		@ link register save eliminated.
 367:BSP/NFC.c     **** uint8_t NFC_IsCmdDone(void)  { return s_cmdDone; }
 2592              		.loc 1 367 32 view .LVU699
 367:BSP/NFC.c     **** uint8_t NFC_IsCmdDone(void)  { return s_cmdDone; }
 2593              		.loc 1 367 42 is_stmt 0 view .LVU700
 2594 0000 014B     		ldr	r3, .L201
 2595 0002 0022     		movs	r2, #0
 2596 0004 1A70     		strb	r2, [r3]
 367:BSP/NFC.c     **** uint8_t NFC_IsCmdDone(void)  { return s_cmdDone; }
 2597              		.loc 1 367 47 view .LVU701
 2598 0006 7047     		bx	lr
 2599              	.L202:
 2600              		.align	2
 2601              	.L201:
 2602 0008 00000000 		.word	s_cmdDone
 2603              		.cfi_endproc
 2604              	.LFE256:
 2606              		.section	.text.NFC_IsCmdDone,"ax",%progbits
 2607              		.align	1
 2608              		.global	NFC_IsCmdDone
 2609              		.syntax unified
 2610              		.thumb
 2611              		.thumb_func
 2613              	NFC_IsCmdDone:
 2614              	.LFB257:
 368:BSP/NFC.c     **** 
 2615              		.loc 1 368 30 is_stmt 1 view -0
 2616              		.cfi_startproc
 2617              		@ args = 0, pretend = 0, frame = 0
 2618              		@ frame_needed = 0, uses_anonymous_args = 0
 2619              		@ link register save eliminated.
 368:BSP/NFC.c     **** 
 2620              		.loc 1 368 32 view .LVU703
 368:BSP/NFC.c     **** 
 2621              		.loc 1 368 39 is_stmt 0 view .LVU704
 2622 0000 014B     		ldr	r3, .L204
 2623 0002 1878     		ldrb	r0, [r3]	@ zero_extendqisi2
 368:BSP/NFC.c     **** 
 2624              		.loc 1 368 50 view .LVU705
 2625 0004 7047     		bx	lr
 2626              	.L205:
 2627 0006 00BF     		.align	2
 2628              	.L204:
 2629 0008 00000000 		.word	s_cmdDone
 2630              		.cfi_endproc
 2631              	.LFE257:
 2633              		.section	.text.NFC_FlushCmdNotify,"ax",%progbits
 2634              		.align	1
 2635              		.global	NFC_FlushCmdNotify
 2636              		.syntax unified
 2637              		.thumb
 2638              		.thumb_func
