ARM GAS  C:\Users\24120\AppData\Local\Temp\ccIwJxKY.s 			page 1


   1              		.cpu cortex-m4
   2              		.arch armv7e-m
   3              		.fpu fpv4-sp-d16
   4              		.eabi_attribute 27, 1
   5              		.eabi_attribute 28, 1
   6              		.eabi_attribute 20, 1
   7              		.eabi_attribute 21, 1
   8              		.eabi_attribute 23, 3
   9              		.eabi_attribute 24, 1
  10              		.eabi_attribute 25, 1
  11              		.eabi_attribute 26, 1
  12              		.eabi_attribute 30, 1
  13              		.eabi_attribute 34, 1
  14              		.eabi_attribute 18, 4
  15              		.file	"rc522_platform_stm32.c"
  16              		.text
  17              	.Ltext0:
  18              		.cfi_sections	.debug_frame
  19              		.file 1 "BSP/rc522_platform_stm32.c"
  20              		.section	.text.rst_control,"ax",%progbits
  21              		.align	1
  22              		.syntax unified
  23              		.thumb
  24              		.thumb_func
  26              	rst_control:
  27              	.LVL0:
  28              	.LFB244:
   1:BSP/rc522_platform_stm32.c **** /**
   2:BSP/rc522_platform_stm32.c ****  * @file    rc522_platform_stm32.c
   3:BSP/rc522_platform_stm32.c ****  * @brief   RC522 STM32 ه¹³هڈ°é€‚é…چه±?
   4:BSP/rc522_platform_stm32.c ****  * @details وœ?و–‡ن»¶وڈگن¾›é’ˆه?? STM32F4 ç³»هˆ— (HAL ه؛?) çڑ„ه¹³هڈ? IO وژ¥هڈ£ه®‍çژ°م€?
   5:BSP/rc522_platform_stm32.c ****  *          ن½؟ç”¨ CubeMX ç”ںوˆگçڑ? GPIO ه¼•è„ڑه®ڑن¹‰ï¼Œé€ڑè؟‡è½?ن»¶و¨،و‹? SPI ن¸? RC522 é€ڑè??م€?
   6:BSP/rc522_platform_stm32.c ****  *
   7:BSP/rc522_platform_stm32.c ****  *          ه¼•è„ڑè؟‍وژ¥ (é»کè?¤ï¼Œهڈ?هœ? main.h ن¸?ن؟?و”?):
   8:BSP/rc522_platform_stm32.c ****  *          - NFC_NSS(PE15)  -> ç‰‡é€? (CS)
   9:BSP/rc522_platform_stm32.c ****  *          - NFC_RST(PB15)  -> ه¤چن½چ (RST)
  10:BSP/rc522_platform_stm32.c ****  *          - NFC_MOSI(PA0)  -> MOSI
  11:BSP/rc522_platform_stm32.c ****  *          - NFC_MISO(PB13) -> MISO
  12:BSP/rc522_platform_stm32.c ****  *          - NFC_SCK(PD9)   -> SCK
  13:BSP/rc522_platform_stm32.c ****  *          - NFC_GND(PB10)  -> وژ¥هœ°وژ§هˆ¶ (è¾“ه‡؛ن½ژç”µه¹?)
  14:BSP/rc522_platform_stm32.c ****  *
  15:BSP/rc522_platform_stm32.c ****  *          ن½؟ç”¨و–¹و³•:
  16:BSP/rc522_platform_stm32.c ****  *          1. هœ? CubeMX ن¸?é…چç½®ن¸ٹè؟° GPIO ه¼•è„ڑ (è¾“ه‡؛: NSS, RST, MOSI, SCK; è¾“ه…¥: MISO)
  17:BSP/rc522_platform_stm32.c ****  *          2. è°ƒç”¨ RC522_Platform_Init() ه®Œوˆگهˆ‌ه?‹هŒ–
  18:BSP/rc522_platform_stm32.c ****  *          3. ن¹‹هگژهچ³هڈ¯è°ƒç”¨ rc522.h ن¸?çڑ? API ه‡½و•°
  19:BSP/rc522_platform_stm32.c ****  *
  20:BSP/rc522_platform_stm32.c ****  * @note    ç¼–ç پ: UTF-8
  21:BSP/rc522_platform_stm32.c ****  */
  22:BSP/rc522_platform_stm32.c **** 
  23:BSP/rc522_platform_stm32.c **** #include "rc522.h"
  24:BSP/rc522_platform_stm32.c **** #include "delay_us.h"   /* ¹«¹²خ¢أëرست±·‏خٌ */
  25:BSP/rc522_platform_stm32.c **** #include "FreeRTOS.h"   /* FreeRTOS »ù´،ح·خؤ¼‏£¬ذëشع task.h ض®ا° */
  26:BSP/rc522_platform_stm32.c **** #include "task.h"       /* taskENTER_CRITICAL / taskEXIT_CRITICAL / vTaskDelay */
  27:BSP/rc522_platform_stm32.c **** #include "main.h"       /* °ü؛¬ NFC_XXX_Pin/GPIO_Port ¶¨زه */
  28:BSP/rc522_platform_stm32.c **** 
  29:BSP/rc522_platform_stm32.c **** /* ======================================================
  30:BSP/rc522_platform_stm32.c ****  *  GPIO وژ§هˆ¶ه‡½و•° (RC522_IO_t ه›‍è°ƒه®‍çژ°)
ARM GAS  C:\Users\24120\AppData\Local\Temp\ccIwJxKY.s 			page 2


  31:BSP/rc522_platform_stm32.c ****  * ====================================================== */
  32:BSP/rc522_platform_stm32.c **** 
  33:BSP/rc522_platform_stm32.c **** /**
  34:BSP/rc522_platform_stm32.c ****  * @brief RC522 ç‰‡é€? (CS/NSS) وژ§هˆ¶
  35:BSP/rc522_platform_stm32.c ****  * @param level 0=é€‰ن¸­ (ن½ژç”µه¹?), 1=é‡ٹو”¾ (é«کç”µه¹?)
  36:BSP/rc522_platform_stm32.c ****  */
  37:BSP/rc522_platform_stm32.c **** static void cs_control(uint8_t level)
  38:BSP/rc522_platform_stm32.c **** {
  39:BSP/rc522_platform_stm32.c ****     if (level) {
  40:BSP/rc522_platform_stm32.c ****         HAL_GPIO_WritePin(NFC_NSS_GPIO_Port, NFC_NSS_Pin, GPIO_PIN_SET);
  41:BSP/rc522_platform_stm32.c ****     } else {
  42:BSP/rc522_platform_stm32.c ****         HAL_GPIO_WritePin(NFC_NSS_GPIO_Port, NFC_NSS_Pin, GPIO_PIN_RESET);
  43:BSP/rc522_platform_stm32.c ****     }
  44:BSP/rc522_platform_stm32.c **** }
  45:BSP/rc522_platform_stm32.c **** 
  46:BSP/rc522_platform_stm32.c **** /**
  47:BSP/rc522_platform_stm32.c ****  * @brief RC522 ه¤چن½چ (RST) وژ§هˆ¶
  48:BSP/rc522_platform_stm32.c ****  * @param level 0=ه¤چن½چ (ن½ژç”µه¹?), 1=و­£ه¸¸ه·¥ن½œ (é«کç”µه¹?)
  49:BSP/rc522_platform_stm32.c ****  */
  50:BSP/rc522_platform_stm32.c **** static void rst_control(uint8_t level)
  51:BSP/rc522_platform_stm32.c **** {
  29              		.loc 1 51 1 view -0
  30              		.cfi_startproc
  31              		@ args = 0, pretend = 0, frame = 0
  32              		@ frame_needed = 0, uses_anonymous_args = 0
  33              		.loc 1 51 1 is_stmt 0 view .LVU1
  34 0000 08B5     		push	{r3, lr}
  35              	.LCFI0:
  36              		.cfi_def_cfa_offset 8
  37              		.cfi_offset 3, -8
  38              		.cfi_offset 14, -4
  52:BSP/rc522_platform_stm32.c ****     if (level) {
  39              		.loc 1 52 5 is_stmt 1 view .LVU2
  40              		.loc 1 52 8 is_stmt 0 view .LVU3
  41 0002 30B1     		cbz	r0, .L2
  53:BSP/rc522_platform_stm32.c ****         HAL_GPIO_WritePin(NFC_RST_GPIO_Port, NFC_RST_Pin, GPIO_PIN_SET);
  42              		.loc 1 53 9 is_stmt 1 view .LVU4
  43 0004 0122     		movs	r2, #1
  44 0006 4FF40041 		mov	r1, #32768
  45 000a 0548     		ldr	r0, .L5
  46              	.LVL1:
  47              		.loc 1 53 9 is_stmt 0 view .LVU5
  48 000c FFF7FEFF 		bl	HAL_GPIO_WritePin
  49              	.LVL2:
  50              	.L1:
  54:BSP/rc522_platform_stm32.c ****     } else {
  55:BSP/rc522_platform_stm32.c ****         HAL_GPIO_WritePin(NFC_RST_GPIO_Port, NFC_RST_Pin, GPIO_PIN_RESET);
  56:BSP/rc522_platform_stm32.c ****     }
  57:BSP/rc522_platform_stm32.c **** }
  51              		.loc 1 57 1 view .LVU6
  52 0010 08BD     		pop	{r3, pc}
  53              	.LVL3:
  54              	.L2:
  55:BSP/rc522_platform_stm32.c ****     }
  55              		.loc 1 55 9 is_stmt 1 view .LVU7
  56 0012 0022     		movs	r2, #0
  57 0014 4FF40041 		mov	r1, #32768
ARM GAS  C:\Users\24120\AppData\Local\Temp\ccIwJxKY.s 			page 3


  58 0018 0148     		ldr	r0, .L5
  59              	.LVL4:
  55:BSP/rc522_platform_stm32.c ****     }
  60              		.loc 1 55 9 is_stmt 0 view .LVU8
  61 001a FFF7FEFF 		bl	HAL_GPIO_WritePin
  62              	.LVL5:
  63              		.loc 1 57 1 view .LVU9
  64 001e F7E7     		b	.L1
  65              	.L6:
  66              		.align	2
  67              	.L5:
  68 0020 00040240 		.word	1073873920
  69              		.cfi_endproc
  70              	.LFE244:
  72              		.section	.text.cs_control,"ax",%progbits
  73              		.align	1
  74              		.syntax unified
  75              		.thumb
  76              		.thumb_func
  78              	cs_control:
  79              	.LVL6:
  80              	.LFB243:
  38:BSP/rc522_platform_stm32.c ****     if (level) {
  81              		.loc 1 38 1 is_stmt 1 view -0
  82              		.cfi_startproc
  83              		@ args = 0, pretend = 0, frame = 0
  84              		@ frame_needed = 0, uses_anonymous_args = 0
  38:BSP/rc522_platform_stm32.c ****     if (level) {
  85              		.loc 1 38 1 is_stmt 0 view .LVU11
  86 0000 08B5     		push	{r3, lr}
  87              	.LCFI1:
  88              		.cfi_def_cfa_offset 8
  89              		.cfi_offset 3, -8
  90              		.cfi_offset 14, -4
  39:BSP/rc522_platform_stm32.c ****         HAL_GPIO_WritePin(NFC_NSS_GPIO_Port, NFC_NSS_Pin, GPIO_PIN_SET);
  91              		.loc 1 39 5 is_stmt 1 view .LVU12
  39:BSP/rc522_platform_stm32.c ****         HAL_GPIO_WritePin(NFC_NSS_GPIO_Port, NFC_NSS_Pin, GPIO_PIN_SET);
  92              		.loc 1 39 8 is_stmt 0 view .LVU13
  93 0002 30B1     		cbz	r0, .L8
  40:BSP/rc522_platform_stm32.c ****     } else {
  94              		.loc 1 40 9 is_stmt 1 view .LVU14
  95 0004 0122     		movs	r2, #1
  96 0006 4FF40041 		mov	r1, #32768
  97 000a 0548     		ldr	r0, .L11
  98              	.LVL7:
  40:BSP/rc522_platform_stm32.c ****     } else {
  99              		.loc 1 40 9 is_stmt 0 view .LVU15
 100 000c FFF7FEFF 		bl	HAL_GPIO_WritePin
 101              	.LVL8:
 102              	.L7:
  44:BSP/rc522_platform_stm32.c **** 
 103              		.loc 1 44 1 view .LVU16
 104 0010 08BD     		pop	{r3, pc}
 105              	.LVL9:
 106              	.L8:
  42:BSP/rc522_platform_stm32.c ****     }
 107              		.loc 1 42 9 is_stmt 1 view .LVU17
ARM GAS  C:\Users\24120\AppData\Local\Temp\ccIwJxKY.s 			page 4


 108 0012 0022     		movs	r2, #0
 109 0014 4FF40041 		mov	r1, #32768
 110 0018 0148     		ldr	r0, .L11
 111              	.LVL10:
  42:BSP/rc522_platform_stm32.c ****     }
 112              		.loc 1 42 9 is_stmt 0 view .LVU18
 113 001a FFF7FEFF 		bl	HAL_GPIO_WritePin
 114              	.LVL11:
  44:BSP/rc522_platform_stm32.c **** 
 115              		.loc 1 44 1 view .LVU19
 116 001e F7E7     		b	.L7
 117              	.L12:
 118              		.align	2
 119              	.L11:
 120 0020 00100240 		.word	1073876992
 121              		.cfi_endproc
 122              	.LFE243:
 124              		.section	.text.delay_ms,"ax",%progbits
 125              		.align	1
 126              		.syntax unified
 127              		.thumb
 128              		.thumb_func
 130              	delay_ms:
 131              	.LVL12:
 132              	.LFB246:
  58:BSP/rc522_platform_stm32.c **** 
  59:BSP/rc522_platform_stm32.c **** /**
  60:BSP/rc522_platform_stm32.c ****  * @brief SPI ه…¨هڈŒه·¥ه­—èٹ‚ن¼ è¾? (è½?ن»¶و¨،و‹? SPI Mode 0)
  61:BSP/rc522_platform_stm32.c ****  * @param data è¦پهڈ‘é€پçڑ„و•°وچ®ه­—èٹ‚
  62:BSP/rc522_platform_stm32.c ****  * @return وژ¥و”¶هˆ°çڑ„و•°وچ®ه­—èٹ‚
  63:BSP/rc522_platform_stm32.c ****  *
  64:BSP/rc522_platform_stm32.c ****  * @note  SPI Mode 0 (CPOL=0, CPHA=0):
  65:BSP/rc522_platform_stm32.c ****  *        - ç©؛é—²و—? SCK = ن½ژç”µه¹?
  66:BSP/rc522_platform_stm32.c ****  *        - و•°وچ®هœ? SCK ن¸ٹهچ‡و²؟هڈ‘é€? (MOSI و›´و–°)
  67:BSP/rc522_platform_stm32.c ****  *        - و•°وچ®هœ? SCK ن¸‹é™چو²؟وژ¥و”? (MISO é‡‡و ·)
  68:BSP/rc522_platform_stm32.c ****  *
  69:BSP/rc522_platform_stm32.c ****  *        و—¶ه؛ڈ:
  70:BSP/rc522_platform_stm32.c ****  *        for 8 bits:
  71:BSP/rc522_platform_stm32.c ****  *            SCK = LOW
  72:BSP/rc522_platform_stm32.c ****  *            set MOSI (و ¹وچ® data çڑ„وœ€é«کن½چ)
  73:BSP/rc522_platform_stm32.c ****  *            SCK = HIGH
  74:BSP/rc522_platform_stm32.c ****  *            read MISO
  75:BSP/rc522_platform_stm32.c ****  *            data <<= 1
  76:BSP/rc522_platform_stm32.c ****  *            data |= MISO
  77:BSP/rc522_platform_stm32.c ****  *        SCK = LOW (ç»“و‌ںçٹ¶و€?)
  78:BSP/rc522_platform_stm32.c ****  */
  79:BSP/rc522_platform_stm32.c **** static uint8_t spi_transfer_byte(uint8_t data)
  80:BSP/rc522_platform_stm32.c **** {
  81:BSP/rc522_platform_stm32.c ****     uint8_t rx = 0;
  82:BSP/rc522_platform_stm32.c **** 
  83:BSP/rc522_platform_stm32.c ****     /* ن¸´ç•ŒهŒ؛ن؟‌وٹ¤ï¼ڑéک²و??ن»»هٹ،هˆ‡وچ¢ه¯¼è‡´ SCK و—¶ه؛ڈو–?è£?
  84:BSP/rc522_platform_stm32.c ****      * ن¸€ن¸?ه­—èٹ‚ن¼ è¾“ç؛? 32 آµsï¼Œن¸´ç•ŒهŒ؛é•؟ه؛¦هڈ?وژ¥هڈ— */
  85:BSP/rc522_platform_stm32.c ****     taskENTER_CRITICAL();
  86:BSP/rc522_platform_stm32.c **** 
  87:BSP/rc522_platform_stm32.c ****     for (int8_t i = 7; i >= 0; i--) {
  88:BSP/rc522_platform_stm32.c ****         /* SCK ن¸‹é™چو²? -> و‹‰ن½ژ SCK */
  89:BSP/rc522_platform_stm32.c ****         HAL_GPIO_WritePin(NFC_SCK_GPIO_Port, NFC_SCK_Pin, GPIO_PIN_RESET);
ARM GAS  C:\Users\24120\AppData\Local\Temp\ccIwJxKY.s 			page 5


  90:BSP/rc522_platform_stm32.c ****         delay_us(1);
  91:BSP/rc522_platform_stm32.c **** 
  92:BSP/rc522_platform_stm32.c ****         /* è®¾ç½® MOSI و•°وچ®ن½? (MSB ن¼که…ˆ) */
  93:BSP/rc522_platform_stm32.c ****         if (data & 0x80) {
  94:BSP/rc522_platform_stm32.c ****             HAL_GPIO_WritePin(NFC_MOSI_GPIO_Port, NFC_MOSI_Pin, GPIO_PIN_SET);
  95:BSP/rc522_platform_stm32.c ****         } else {
  96:BSP/rc522_platform_stm32.c ****             HAL_GPIO_WritePin(NFC_MOSI_GPIO_Port, NFC_MOSI_Pin, GPIO_PIN_RESET);
  97:BSP/rc522_platform_stm32.c ****         }
  98:BSP/rc522_platform_stm32.c ****         delay_us(1);
  99:BSP/rc522_platform_stm32.c **** 
 100:BSP/rc522_platform_stm32.c ****         /* SCK ن¸ٹهچ‡و²? -> ن»ژوœ؛é‡‡و · MOSI */
 101:BSP/rc522_platform_stm32.c ****         HAL_GPIO_WritePin(NFC_SCK_GPIO_Port, NFC_SCK_Pin, GPIO_PIN_SET);
 102:BSP/rc522_platform_stm32.c ****         delay_us(1);
 103:BSP/rc522_platform_stm32.c **** 
 104:BSP/rc522_platform_stm32.c ****         /* هœ? SCK é«کç”µه¹³و—¶é‡‡و · MISO */
 105:BSP/rc522_platform_stm32.c ****         rx <<= 1;
 106:BSP/rc522_platform_stm32.c ****         if (HAL_GPIO_ReadPin(NFC_MISO_GPIO_Port, NFC_MISO_Pin) == GPIO_PIN_SET) {
 107:BSP/rc522_platform_stm32.c ****             rx |= 0x01;
 108:BSP/rc522_platform_stm32.c ****         }
 109:BSP/rc522_platform_stm32.c ****         delay_us(1);
 110:BSP/rc522_platform_stm32.c **** 
 111:BSP/rc522_platform_stm32.c ****         data <<= 1;
 112:BSP/rc522_platform_stm32.c ****     }
 113:BSP/rc522_platform_stm32.c **** 
 114:BSP/rc522_platform_stm32.c ****     /* ç»“و‌ںçٹ¶و€?: SCK ه›‍هˆ°ن½ژç”µه¹? */
 115:BSP/rc522_platform_stm32.c ****     HAL_GPIO_WritePin(NFC_SCK_GPIO_Port, NFC_SCK_Pin, GPIO_PIN_RESET);
 116:BSP/rc522_platform_stm32.c ****     delay_us(1);
 117:BSP/rc522_platform_stm32.c **** 
 118:BSP/rc522_platform_stm32.c ****     taskEXIT_CRITICAL();
 119:BSP/rc522_platform_stm32.c **** 
 120:BSP/rc522_platform_stm32.c ****     return rx;
 121:BSP/rc522_platform_stm32.c **** }
 122:BSP/rc522_platform_stm32.c **** 
 123:BSP/rc522_platform_stm32.c **** /**
 124:BSP/rc522_platform_stm32.c ****  * @brief ؛ءأëرست± (ت¹سأ FreeRTOS بخخٌرست±, تح·إ CPU ¸ّئنثûبخخٌ)
 125:BSP/rc522_platform_stm32.c ****  * @param ms رست±؛ءأëت‎
 126:BSP/rc522_platform_stm32.c ****  */
 127:BSP/rc522_platform_stm32.c **** static void delay_ms(uint32_t ms)
 128:BSP/rc522_platform_stm32.c **** {
 133              		.loc 1 128 1 is_stmt 1 view -0
 134              		.cfi_startproc
 135              		@ args = 0, pretend = 0, frame = 0
 136              		@ frame_needed = 0, uses_anonymous_args = 0
 137              		.loc 1 128 1 is_stmt 0 view .LVU21
 138 0000 08B5     		push	{r3, lr}
 139              	.LCFI2:
 140              		.cfi_def_cfa_offset 8
 141              		.cfi_offset 3, -8
 142              		.cfi_offset 14, -4
 129:BSP/rc522_platform_stm32.c ****     vTaskDelay(pdMS_TO_TICKS(ms));
 143              		.loc 1 129 5 is_stmt 1 view .LVU22
 144              		.loc 1 129 16 is_stmt 0 view .LVU23
 145 0002 4FF47A73 		mov	r3, #1000
 146 0006 03FB00F0 		mul	r0, r3, r0
 147              	.LVL13:
 148              		.loc 1 129 5 view .LVU24
 149 000a 034B     		ldr	r3, .L15
ARM GAS  C:\Users\24120\AppData\Local\Temp\ccIwJxKY.s 			page 6


 150 000c A3FB0030 		umull	r3, r0, r3, r0
 151 0010 8009     		lsrs	r0, r0, #6
 152 0012 FFF7FEFF 		bl	vTaskDelay
 153              	.LVL14:
 130:BSP/rc522_platform_stm32.c **** }
 154              		.loc 1 130 1 view .LVU25
 155 0016 08BD     		pop	{r3, pc}
 156              	.L16:
 157              		.align	2
 158              	.L15:
 159 0018 D34D6210 		.word	274877907
 160              		.cfi_endproc
 161              	.LFE246:
 163              		.section	.text.spi_transfer_byte,"ax",%progbits
 164              		.align	1
 165              		.syntax unified
 166              		.thumb
 167              		.thumb_func
 169              	spi_transfer_byte:
 170              	.LVL15:
 171              	.LFB245:
  80:BSP/rc522_platform_stm32.c ****     uint8_t rx = 0;
 172              		.loc 1 80 1 is_stmt 1 view -0
 173              		.cfi_startproc
 174              		@ args = 0, pretend = 0, frame = 0
 175              		@ frame_needed = 0, uses_anonymous_args = 0
  80:BSP/rc522_platform_stm32.c ****     uint8_t rx = 0;
 176              		.loc 1 80 1 is_stmt 0 view .LVU27
 177 0000 70B5     		push	{r4, r5, r6, lr}
 178              	.LCFI3:
 179              		.cfi_def_cfa_offset 16
 180              		.cfi_offset 4, -16
 181              		.cfi_offset 5, -12
 182              		.cfi_offset 6, -8
 183              		.cfi_offset 14, -4
 184 0002 0446     		mov	r4, r0
  81:BSP/rc522_platform_stm32.c **** 
 185              		.loc 1 81 5 is_stmt 1 view .LVU28
 186              	.LVL16:
  85:BSP/rc522_platform_stm32.c **** 
 187              		.loc 1 85 5 view .LVU29
 188 0004 FFF7FEFF 		bl	vPortEnterCritical
 189              	.LVL17:
  87:BSP/rc522_platform_stm32.c ****         /* SCK ن¸‹é™چو²? -> و‹‰ن½ژ SCK */
 190              		.loc 1 87 5 view .LVU30
 191              	.LBB2:
  87:BSP/rc522_platform_stm32.c ****         /* SCK ن¸‹é™چو²? -> و‹‰ن½ژ SCK */
 192              		.loc 1 87 10 view .LVU31
  87:BSP/rc522_platform_stm32.c ****         /* SCK ن¸‹é™چو²? -> و‹‰ن½ژ SCK */
 193              		.loc 1 87 17 is_stmt 0 view .LVU32
 194 0008 0725     		movs	r5, #7
 195              	.LBE2:
  81:BSP/rc522_platform_stm32.c **** 
 196              		.loc 1 81 13 view .LVU33
 197 000a 0026     		movs	r6, #0
 198              	.LBB3:
  87:BSP/rc522_platform_stm32.c ****         /* SCK ن¸‹é™چو²? -> و‹‰ن½ژ SCK */
ARM GAS  C:\Users\24120\AppData\Local\Temp\ccIwJxKY.s 			page 7


 199              		.loc 1 87 5 view .LVU34
 200 000c 20E0     		b	.L18
 201              	.LVL18:
 202              	.L26:
  94:BSP/rc522_platform_stm32.c ****         } else {
 203              		.loc 1 94 13 is_stmt 1 view .LVU35
 204 000e 0122     		movs	r2, #1
 205 0010 1146     		mov	r1, r2
 206 0012 2148     		ldr	r0, .L27
 207 0014 FFF7FEFF 		bl	HAL_GPIO_WritePin
 208              	.LVL19:
 209              	.L20:
  98:BSP/rc522_platform_stm32.c **** 
 210              		.loc 1 98 9 view .LVU36
 211 0018 0120     		movs	r0, #1
 212 001a FFF7FEFF 		bl	delay_us
 213              	.LVL20:
 101:BSP/rc522_platform_stm32.c ****         delay_us(1);
 214              		.loc 1 101 9 view .LVU37
 215 001e 0122     		movs	r2, #1
 216 0020 4FF40071 		mov	r1, #512
 217 0024 1D48     		ldr	r0, .L27+4
 218 0026 FFF7FEFF 		bl	HAL_GPIO_WritePin
 219              	.LVL21:
 102:BSP/rc522_platform_stm32.c **** 
 220              		.loc 1 102 9 view .LVU38
 221 002a 0120     		movs	r0, #1
 222 002c FFF7FEFF 		bl	delay_us
 223              	.LVL22:
 105:BSP/rc522_platform_stm32.c ****         if (HAL_GPIO_ReadPin(NFC_MISO_GPIO_Port, NFC_MISO_Pin) == GPIO_PIN_SET) {
 224              		.loc 1 105 9 view .LVU39
 105:BSP/rc522_platform_stm32.c ****         if (HAL_GPIO_ReadPin(NFC_MISO_GPIO_Port, NFC_MISO_Pin) == GPIO_PIN_SET) {
 225              		.loc 1 105 12 is_stmt 0 view .LVU40
 226 0030 7600     		lsls	r6, r6, #1
 227              	.LVL23:
 105:BSP/rc522_platform_stm32.c ****         if (HAL_GPIO_ReadPin(NFC_MISO_GPIO_Port, NFC_MISO_Pin) == GPIO_PIN_SET) {
 228              		.loc 1 105 12 view .LVU41
 229 0032 F6B2     		uxtb	r6, r6
 230              	.LVL24:
 106:BSP/rc522_platform_stm32.c ****             rx |= 0x01;
 231              		.loc 1 106 9 is_stmt 1 view .LVU42
 106:BSP/rc522_platform_stm32.c ****             rx |= 0x01;
 232              		.loc 1 106 13 is_stmt 0 view .LVU43
 233 0034 4FF40051 		mov	r1, #8192
 234 0038 1948     		ldr	r0, .L27+8
 235 003a FFF7FEFF 		bl	HAL_GPIO_ReadPin
 236              	.LVL25:
 106:BSP/rc522_platform_stm32.c ****             rx |= 0x01;
 237              		.loc 1 106 12 discriminator 1 view .LVU44
 238 003e 0128     		cmp	r0, #1
 239 0040 1AD0     		beq	.L24
 240              	.LVL26:
 241              	.L21:
 109:BSP/rc522_platform_stm32.c **** 
 242              		.loc 1 109 9 is_stmt 1 view .LVU45
 243 0042 0120     		movs	r0, #1
 244 0044 FFF7FEFF 		bl	delay_us
ARM GAS  C:\Users\24120\AppData\Local\Temp\ccIwJxKY.s 			page 8


 245              	.LVL27:
 111:BSP/rc522_platform_stm32.c ****     }
 246              		.loc 1 111 9 view .LVU46
 111:BSP/rc522_platform_stm32.c ****     }
 247              		.loc 1 111 14 is_stmt 0 view .LVU47
 248 0048 6400     		lsls	r4, r4, #1
 249              	.LVL28:
 111:BSP/rc522_platform_stm32.c ****     }
 250              		.loc 1 111 14 view .LVU48
 251 004a E4B2     		uxtb	r4, r4
 252              	.LVL29:
  87:BSP/rc522_platform_stm32.c ****         /* SCK ن¸‹é™چو²? -> و‹‰ن½ژ SCK */
 253              		.loc 1 87 33 is_stmt 1 discriminator 2 view .LVU49
 254 004c 013D     		subs	r5, r5, #1
 255              	.LVL30:
  87:BSP/rc522_platform_stm32.c ****         /* SCK ن¸‹é™چو²? -> و‹‰ن½ژ SCK */
 256              		.loc 1 87 33 is_stmt 0 discriminator 2 view .LVU50
 257 004e 6DB2     		sxtb	r5, r5
 258              	.LVL31:
 259              	.L18:
  87:BSP/rc522_platform_stm32.c ****         /* SCK ن¸‹é™چو²? -> و‹‰ن½ژ SCK */
 260              		.loc 1 87 26 is_stmt 1 discriminator 1 view .LVU51
 261 0050 002D     		cmp	r5, #0
 262 0052 14DB     		blt	.L25
  89:BSP/rc522_platform_stm32.c ****         delay_us(1);
 263              		.loc 1 89 9 view .LVU52
 264 0054 0022     		movs	r2, #0
 265 0056 4FF40071 		mov	r1, #512
 266 005a 1048     		ldr	r0, .L27+4
 267 005c FFF7FEFF 		bl	HAL_GPIO_WritePin
 268              	.LVL32:
  90:BSP/rc522_platform_stm32.c **** 
 269              		.loc 1 90 9 view .LVU53
 270 0060 0120     		movs	r0, #1
 271 0062 FFF7FEFF 		bl	delay_us
 272              	.LVL33:
  93:BSP/rc522_platform_stm32.c ****             HAL_GPIO_WritePin(NFC_MOSI_GPIO_Port, NFC_MOSI_Pin, GPIO_PIN_SET);
 273              		.loc 1 93 9 view .LVU54
  93:BSP/rc522_platform_stm32.c ****             HAL_GPIO_WritePin(NFC_MOSI_GPIO_Port, NFC_MOSI_Pin, GPIO_PIN_SET);
 274              		.loc 1 93 12 is_stmt 0 view .LVU55
 275 0066 14F0800F 		tst	r4, #128
 276 006a D0D1     		bne	.L26
  96:BSP/rc522_platform_stm32.c ****         }
 277              		.loc 1 96 13 is_stmt 1 view .LVU56
 278 006c 0022     		movs	r2, #0
 279 006e 0121     		movs	r1, #1
 280 0070 0948     		ldr	r0, .L27
 281 0072 FFF7FEFF 		bl	HAL_GPIO_WritePin
 282              	.LVL34:
 283 0076 CFE7     		b	.L20
 284              	.L24:
 107:BSP/rc522_platform_stm32.c ****         }
 285              		.loc 1 107 13 view .LVU57
 107:BSP/rc522_platform_stm32.c ****         }
 286              		.loc 1 107 16 is_stmt 0 view .LVU58
 287 0078 46F00106 		orr	r6, r6, #1
 288              	.LVL35:
ARM GAS  C:\Users\24120\AppData\Local\Temp\ccIwJxKY.s 			page 9


 107:BSP/rc522_platform_stm32.c ****         }
 289              		.loc 1 107 16 view .LVU59
 290 007c E1E7     		b	.L21
 291              	.LVL36:
 292              	.L25:
 107:BSP/rc522_platform_stm32.c ****         }
 293              		.loc 1 107 16 view .LVU60
 294              	.LBE3:
 115:BSP/rc522_platform_stm32.c ****     delay_us(1);
 295              		.loc 1 115 5 is_stmt 1 view .LVU61
 296 007e 0022     		movs	r2, #0
 297 0080 4FF40071 		mov	r1, #512
 298 0084 0548     		ldr	r0, .L27+4
 299 0086 FFF7FEFF 		bl	HAL_GPIO_WritePin
 300              	.LVL37:
 116:BSP/rc522_platform_stm32.c **** 
 301              		.loc 1 116 5 view .LVU62
 302 008a 0120     		movs	r0, #1
 303 008c FFF7FEFF 		bl	delay_us
 304              	.LVL38:
 118:BSP/rc522_platform_stm32.c **** 
 305              		.loc 1 118 5 view .LVU63
 306 0090 FFF7FEFF 		bl	vPortExitCritical
 307              	.LVL39:
 120:BSP/rc522_platform_stm32.c **** }
 308              		.loc 1 120 5 view .LVU64
 121:BSP/rc522_platform_stm32.c **** 
 309              		.loc 1 121 1 is_stmt 0 view .LVU65
 310 0094 3046     		mov	r0, r6
 311 0096 70BD     		pop	{r4, r5, r6, pc}
 312              	.LVL40:
 313              	.L28:
 121:BSP/rc522_platform_stm32.c **** 
 314              		.loc 1 121 1 view .LVU66
 315              		.align	2
 316              	.L27:
 317 0098 00000240 		.word	1073872896
 318 009c 000C0240 		.word	1073875968
 319 00a0 00040240 		.word	1073873920
 320              		.cfi_endproc
 321              	.LFE245:
 323              		.section	.text.RC522_Platform_Init,"ax",%progbits
 324              		.align	1
 325              		.global	RC522_Platform_Init
 326              		.syntax unified
 327              		.thumb
 328              		.thumb_func
 330              	RC522_Platform_Init:
 331              	.LFB247:
 131:BSP/rc522_platform_stm32.c **** 
 132:BSP/rc522_platform_stm32.c **** /* ======================================================
 133:BSP/rc522_platform_stm32.c ****  *  ه¹³هڈ° IO وژ¥هڈ£ه®‍ن¾‹
 134:BSP/rc522_platform_stm32.c ****  * ====================================================== */
 135:BSP/rc522_platform_stm32.c **** 
 136:BSP/rc522_platform_stm32.c **** /** RC522 ه¹³هڈ° IO وژ¥هڈ£ï¼Œن¾› RC522_Init() ن½؟ç”¨ */
 137:BSP/rc522_platform_stm32.c **** static const RC522_IO_t s_rc522_io = {
 138:BSP/rc522_platform_stm32.c ****     .cs_control   = cs_control,
ARM GAS  C:\Users\24120\AppData\Local\Temp\ccIwJxKY.s 			page 10


 139:BSP/rc522_platform_stm32.c ****     .rst_control  = rst_control,
 140:BSP/rc522_platform_stm32.c ****     .spi_transfer = spi_transfer_byte,
 141:BSP/rc522_platform_stm32.c ****     .delay_us     = delay_us,
 142:BSP/rc522_platform_stm32.c ****     .delay_ms     = delay_ms
 143:BSP/rc522_platform_stm32.c **** };
 144:BSP/rc522_platform_stm32.c **** 
 145:BSP/rc522_platform_stm32.c **** /* ======================================================
 146:BSP/rc522_platform_stm32.c ****  *  ه…?ه¼€ API
 147:BSP/rc522_platform_stm32.c ****  * ====================================================== */
 148:BSP/rc522_platform_stm32.c **** 
 149:BSP/rc522_platform_stm32.c **** /**
 150:BSP/rc522_platform_stm32.c ****  * @brief هˆ‌ه?‹هŒ– RC522 STM32 ه¹³هڈ°
 151:BSP/rc522_platform_stm32.c ****  * @note  و­¤ه‡½و•°ه®Œوˆ?:
 152:BSP/rc522_platform_stm32.c ****  *        1. DWT ه®ڑو—¶ه™¨هˆ‌ه§‹هŒ– (ه¾?ç§’ه»¶و—?)
 153:BSP/rc522_platform_stm32.c ****  *        2. NFC و¨،ه‌—وژ¥هœ°ه¼•è„ڑو‹‰ن½ژ (ه¦‚و‍œوœ‰ه®ڑن¹?)
 154:BSP/rc522_platform_stm32.c ****  *        3. è°ƒç”¨ RC522_Init() هˆ‌ه?‹هŒ– RC522 èٹ?ç‰?
 155:BSP/rc522_platform_stm32.c ****  *
 156:BSP/rc522_platform_stm32.c ****  *        هœ? FreeRTOS ن»»هٹ،ن¸?è°ƒç”¨و­¤ه‡½و•°ه‰چéœ€ç،?ن؟? HAL_Init()
 157:BSP/rc522_platform_stm32.c ****  *        ه’? MX_GPIO_Init() ç­‰ç³»ç»ںهˆ‌ه§‹هŒ–ه·²ه®Œوˆگم€?
 158:BSP/rc522_platform_stm32.c ****  */
 159:BSP/rc522_platform_stm32.c **** void RC522_Platform_Init(void)
 160:BSP/rc522_platform_stm32.c **** {
 332              		.loc 1 160 1 is_stmt 1 view -0
 333              		.cfi_startproc
 334              		@ args = 0, pretend = 0, frame = 0
 335              		@ frame_needed = 0, uses_anonymous_args = 0
 336 0000 08B5     		push	{r3, lr}
 337              	.LCFI4:
 338              		.cfi_def_cfa_offset 8
 339              		.cfi_offset 3, -8
 340              		.cfi_offset 14, -4
 161:BSP/rc522_platform_stm32.c ****     /* هˆ‌ه?‹هŒ–ه…?ه…±ه¾®ç§’ه»¶و—¶وœچهٹ? */
 162:BSP/rc522_platform_stm32.c ****     delay_us_init();
 341              		.loc 1 162 5 view .LVU68
 342 0002 FFF7FEFF 		bl	delay_us_init
 343              	.LVL41:
 163:BSP/rc522_platform_stm32.c **** 
 164:BSP/rc522_platform_stm32.c ****     /* و‹‰ن½ژ NFC_GND ه¼•è„ڑï¼Œن¸؛و¨،ه‌—وڈگن¾›هڈ‚è€ƒهœ° */
 165:BSP/rc522_platform_stm32.c **** #if defined(NFC_GND_Pin) && defined(NFC_GND_GPIO_Port)
 166:BSP/rc522_platform_stm32.c ****     HAL_GPIO_WritePin(NFC_GND_GPIO_Port, NFC_GND_Pin, GPIO_PIN_RESET);
 344              		.loc 1 166 5 view .LVU69
 345 0006 0022     		movs	r2, #0
 346 0008 4FF48061 		mov	r1, #1024
 347 000c 0348     		ldr	r0, .L31
 348 000e FFF7FEFF 		bl	HAL_GPIO_WritePin
 349              	.LVL42:
 167:BSP/rc522_platform_stm32.c **** #endif
 168:BSP/rc522_platform_stm32.c **** 
 169:BSP/rc522_platform_stm32.c ****     /* هˆ‌ه?‹هŒ– RC522 èٹ?ç‰? (ن¼ é€’ه¹³هڈ? IO وژ¥هڈ£) */
 170:BSP/rc522_platform_stm32.c ****     RC522_Init((RC522_IO_t *)&s_rc522_io);
 350              		.loc 1 170 5 view .LVU70
 351 0012 0348     		ldr	r0, .L31+4
 352 0014 FFF7FEFF 		bl	RC522_Init
 353              	.LVL43:
 171:BSP/rc522_platform_stm32.c **** }
 354              		.loc 1 171 1 is_stmt 0 view .LVU71
 355 0018 08BD     		pop	{r3, pc}
ARM GAS  C:\Users\24120\AppData\Local\Temp\ccIwJxKY.s 			page 11


 356              	.L32:
 357 001a 00BF     		.align	2
 358              	.L31:
 359 001c 00040240 		.word	1073873920
 360 0020 00000000 		.word	s_rc522_io
 361              		.cfi_endproc
 362              	.LFE247:
 364              		.section	.rodata.s_rc522_io,"a"
 365              		.align	2
 368              	s_rc522_io:
 369 0000 00000000 		.word	cs_control
 370 0004 00000000 		.word	rst_control
 371 0008 00000000 		.word	spi_transfer_byte
 372 000c 00000000 		.word	delay_us
 373 0010 00000000 		.word	delay_ms
 374              		.text
 375              	.Letext0:
 376              		.file 2 "E:/STM32/Tools/arm-none-eabi-gcc/14.2.1-1.1.1/.content/arm-none-eabi/include/machine/_def
 377              		.file 3 "E:/STM32/Tools/arm-none-eabi-gcc/14.2.1-1.1.1/.content/arm-none-eabi/include/sys/_stdint.
 378              		.file 4 "BSP/rc522.h"
 379              		.file 5 "Middlewares/Third_Party/FreeRTOS/Source/portable/GCC/ARM_CM4F/portmacro.h"
 380              		.file 6 "Drivers/CMSIS/Device/ST/STM32F4xx/Include/stm32f407xx.h"
 381              		.file 7 "Drivers/STM32F4xx_HAL_Driver/Inc/stm32f4xx_hal_gpio.h"
 382              		.file 8 "Middlewares/Third_Party/FreeRTOS/Source/include/task.h"
 383              		.file 9 "BSP/delay_us.h"
ARM GAS  C:\Users\24120\AppData\Local\Temp\ccIwJxKY.s 			page 12

