ARM GAS  C:\Users\24120\AppData\Local\Temp\cc4pJDvy.s 			page 1


   1              		.cpu cortex-m4
   2              		.arch armv7e-m
   3              		.fpu fpv4-sp-d16
   4              		.eabi_attribute 27, 1
   5              		.eabi_attribute 28, 1
   6              		.eabi_attribute 20, 1
   7              		.eabi_attribute 21, 1
   8              		.eabi_attribute 23, 3
   9              		.eabi_attribute 24, 1
  10              		.eabi_attribute 25, 1
  11              		.eabi_attribute 26, 1
  12              		.eabi_attribute 30, 1
  13              		.eabi_attribute 34, 1
  14              		.eabi_attribute 18, 4
  15              		.file	"record.c"
  16              		.text
  17              	.Ltext0:
  18              		.cfi_sections	.debug_frame
  19              		.file 1 "BSP/record.c"
  20              		.section	.text.CRC16_Calc,"ax",%progbits
  21              		.align	1
  22              		.global	CRC16_Calc
  23              		.syntax unified
  24              		.thumb
  25              		.thumb_func
  27              	CRC16_Calc:
  28              	.LVL0:
  29              	.LFB246:
   1:BSP/record.c  **** /**
   2:BSP/record.c  ****  * @file    record.c
   3:BSP/record.c  ****  * @brief   湖縐暮翹湔揣耀輸妗珋
   4:BSP/record.c  ****  */
   5:BSP/record.c  **** 
   6:BSP/record.c  **** #include "record.h"
   7:BSP/record.c  **** #include "w25qxx.h"
   8:BSP/record.c  **** #include "cmsis_os.h"
   9:BSP/record.c  **** #include <stdio.h>
  10:BSP/record.c  **** #include <string.h>
  11:BSP/record.c  **** #include <stddef.h>
  12:BSP/record.c  **** 
  13:BSP/record.c  **** /* ====== 耀輸囀窒曹講 ====== */
  14:BSP/record.c  **** 
  15:BSP/record.c  **** static SysConfig_t    s_sysCfg;
  16:BSP/record.c  **** static RecordHeader_t s_recHead;
  17:BSP/record.c  **** static CardCache_t    s_cardCache[CARD_CACHE_SIZE];
  18:BSP/record.c  **** 
  19:BSP/record.c  **** /* 奪燴埜饜离堍俴奀萵掛 (迵 display 僕砅) */
  20:BSP/record.c  **** static uint16_t s_deviceId   = 1;
  21:BSP/record.c  **** static uint8_t  s_attendMode = 2;
  22:BSP/record.c  **** 
  23:BSP/record.c  **** /* ====== CRC16 (CCITT-FALSE) ====== */
  24:BSP/record.c  **** 
  25:BSP/record.c  **** uint16_t CRC16_Calc(const uint8_t *pData, uint16_t len)
  26:BSP/record.c  **** {
  30              		.loc 1 26 1 view -0
  31              		.cfi_startproc
  32              		@ args = 0, pretend = 0, frame = 0
ARM GAS  C:\Users\24120\AppData\Local\Temp\cc4pJDvy.s 			page 2


  33              		@ frame_needed = 0, uses_anonymous_args = 0
  34              		.loc 1 26 1 is_stmt 0 view .LVU1
  35 0000 00B5     		push	{lr}
  36              	.LCFI0:
  37              		.cfi_def_cfa_offset 4
  38              		.cfi_offset 14, -4
  39 0002 8646     		mov	lr, r0
  27:BSP/record.c  ****     uint16_t crc = 0xFFFF;
  40              		.loc 1 27 5 is_stmt 1 view .LVU2
  41              	.LVL1:
  28:BSP/record.c  ****     uint16_t i, j;
  42              		.loc 1 28 5 view .LVU3
  29:BSP/record.c  ****     for (i = 0; i < len; i++) {
  43              		.loc 1 29 5 view .LVU4
  44              		.loc 1 29 12 is_stmt 0 view .LVU5
  45 0004 4FF0000C 		mov	ip, #0
  27:BSP/record.c  ****     uint16_t crc = 0xFFFF;
  46              		.loc 1 27 14 view .LVU6
  47 0008 4FF6FF70 		movw	r0, #65535
  48              	.LVL2:
  49              		.loc 1 29 5 view .LVU7
  50 000c 12E0     		b	.L2
  51              	.LVL3:
  52              	.L10:
  30:BSP/record.c  ****         crc ^= (uint16_t)pData[i] << 8;
  31:BSP/record.c  ****         for (j = 0; j < 8; j++) {
  32:BSP/record.c  ****             if (crc & 0x8000) crc = (crc << 1) ^ 0x1021;
  53              		.loc 1 32 31 is_stmt 1 discriminator 1 view .LVU8
  54              		.loc 1 32 48 is_stmt 0 discriminator 1 view .LVU9
  55 000e 41F22100 		movw	r0, #4129
  56              	.LVL4:
  57              		.loc 1 32 48 discriminator 1 view .LVU10
  58 0012 80EA4200 		eor	r0, r0, r2, lsl #1
  59              		.loc 1 32 35 discriminator 1 view .LVU11
  60 0016 80B2     		uxth	r0, r0
  61              	.LVL5:
  62              	.L5:
  31:BSP/record.c  ****             if (crc & 0x8000) crc = (crc << 1) ^ 0x1021;
  63              		.loc 1 31 29 is_stmt 1 discriminator 2 view .LVU12
  64 0018 0133     		adds	r3, r3, #1
  65              	.LVL6:
  31:BSP/record.c  ****             if (crc & 0x8000) crc = (crc << 1) ^ 0x1021;
  66              		.loc 1 31 29 is_stmt 0 discriminator 2 view .LVU13
  67 001a 9BB2     		uxth	r3, r3
  68              	.LVL7:
  69              	.L3:
  31:BSP/record.c  ****             if (crc & 0x8000) crc = (crc << 1) ^ 0x1021;
  70              		.loc 1 31 23 is_stmt 1 discriminator 1 view .LVU14
  71 001c 072B     		cmp	r3, #7
  72 001e 05D8     		bhi	.L9
  73              		.loc 1 32 13 view .LVU15
  74              		.loc 1 32 17 is_stmt 0 view .LVU16
  75 0020 02B2     		sxth	r2, r0
  76              		.loc 1 32 16 view .LVU17
  77 0022 002A     		cmp	r2, #0
  78 0024 F3DB     		blt	.L10
  33:BSP/record.c  ****             else              crc = (crc << 1);
ARM GAS  C:\Users\24120\AppData\Local\Temp\cc4pJDvy.s 			page 3


  79              		.loc 1 33 31 is_stmt 1 view .LVU18
  80              		.loc 1 33 35 is_stmt 0 view .LVU19
  81 0026 4000     		lsls	r0, r0, #1
  82              	.LVL8:
  83              		.loc 1 33 35 view .LVU20
  84 0028 80B2     		uxth	r0, r0
  85 002a F5E7     		b	.L5
  86              	.LVL9:
  87              	.L9:
  29:BSP/record.c  ****         crc ^= (uint16_t)pData[i] << 8;
  88              		.loc 1 29 27 is_stmt 1 discriminator 2 view .LVU21
  89 002c 0CF1010C 		add	ip, ip, #1
  90              	.LVL10:
  29:BSP/record.c  ****         crc ^= (uint16_t)pData[i] << 8;
  91              		.loc 1 29 27 is_stmt 0 discriminator 2 view .LVU22
  92 0030 1FFA8CFC 		uxth	ip, ip
  93              	.LVL11:
  94              	.L2:
  29:BSP/record.c  ****         crc ^= (uint16_t)pData[i] << 8;
  95              		.loc 1 29 19 is_stmt 1 discriminator 1 view .LVU23
  96 0034 8C45     		cmp	ip, r1
  97 0036 05D2     		bcs	.L11
  30:BSP/record.c  ****         for (j = 0; j < 8; j++) {
  98              		.loc 1 30 9 view .LVU24
  30:BSP/record.c  ****         for (j = 0; j < 8; j++) {
  99              		.loc 1 30 31 is_stmt 0 view .LVU25
 100 0038 1EF80C30 		ldrb	r3, [lr, ip]	@ zero_extendqisi2
  30:BSP/record.c  ****         for (j = 0; j < 8; j++) {
 101              		.loc 1 30 13 view .LVU26
 102 003c 80EA0320 		eor	r0, r0, r3, lsl #8
 103              	.LVL12:
  31:BSP/record.c  ****             if (crc & 0x8000) crc = (crc << 1) ^ 0x1021;
 104              		.loc 1 31 9 is_stmt 1 view .LVU27
  31:BSP/record.c  ****             if (crc & 0x8000) crc = (crc << 1) ^ 0x1021;
 105              		.loc 1 31 16 is_stmt 0 view .LVU28
 106 0040 0023     		movs	r3, #0
  31:BSP/record.c  ****             if (crc & 0x8000) crc = (crc << 1) ^ 0x1021;
 107              		.loc 1 31 9 view .LVU29
 108 0042 EBE7     		b	.L3
 109              	.LVL13:
 110              	.L11:
  34:BSP/record.c  ****         }
  35:BSP/record.c  ****     }
  36:BSP/record.c  ****     return crc;
 111              		.loc 1 36 5 is_stmt 1 view .LVU30
  37:BSP/record.c  **** }
 112              		.loc 1 37 1 is_stmt 0 view .LVU31
 113 0044 5DF804FB 		ldr	pc, [sp], #4
 114              		.cfi_endproc
 115              	.LFE246:
 117              		.section	.text.Config_Init,"ax",%progbits
 118              		.align	1
 119              		.global	Config_Init
 120              		.syntax unified
 121              		.thumb
 122              		.thumb_func
 124              	Config_Init:
ARM GAS  C:\Users\24120\AppData\Local\Temp\cc4pJDvy.s 			page 4


 125              	.LFB247:
  38:BSP/record.c  **** 
  39:BSP/record.c  **** /* ====== 炵苀饜离 ====== */
  40:BSP/record.c  **** 
  41:BSP/record.c  **** void Config_Init(void) { }
 126              		.loc 1 41 24 is_stmt 1 view -0
 127              		.cfi_startproc
 128              		@ args = 0, pretend = 0, frame = 0
 129              		@ frame_needed = 0, uses_anonymous_args = 0
 130              		@ link register save eliminated.
 131              		.loc 1 41 26 view .LVU33
 132 0000 7047     		bx	lr
 133              		.cfi_endproc
 134              	.LFE247:
 136              		.section	.text.Config_Load,"ax",%progbits
 137              		.align	1
 138              		.global	Config_Load
 139              		.syntax unified
 140              		.thumb
 141              		.thumb_func
 143              	Config_Load:
 144              	.LFB248:
  42:BSP/record.c  **** 
  43:BSP/record.c  **** void Config_Load(void)
  44:BSP/record.c  **** {
 145              		.loc 1 44 1 view -0
 146              		.cfi_startproc
 147              		@ args = 0, pretend = 0, frame = 24
 148              		@ frame_needed = 0, uses_anonymous_args = 0
 149 0000 10B5     		push	{r4, lr}
 150              	.LCFI1:
 151              		.cfi_def_cfa_offset 8
 152              		.cfi_offset 4, -8
 153              		.cfi_offset 14, -4
 154 0002 86B0     		sub	sp, sp, #24
 155              	.LCFI2:
 156              		.cfi_def_cfa_offset 32
  45:BSP/record.c  ****     SysConfig_t cfg;
 157              		.loc 1 45 5 view .LVU35
  46:BSP/record.c  ****     W25QXX_Read((uint8_t*)&cfg, CONFIG_FLASH_ADDR, sizeof(cfg));
 158              		.loc 1 46 5 view .LVU36
 159 0004 1222     		movs	r2, #18
 160 0006 0021     		movs	r1, #0
 161 0008 01A8     		add	r0, sp, #4
 162 000a FFF7FEFF 		bl	W25QXX_Read
 163              	.LVL14:
  47:BSP/record.c  ****     if (cfg.magic == CONFIG_MAGIC) {
 164              		.loc 1 47 5 view .LVU37
 165              		.loc 1 47 12 is_stmt 0 view .LVU38
 166 000e BDF81220 		ldrh	r2, [sp, #18]
 167              		.loc 1 47 8 view .LVU39
 168 0012 44F64663 		movw	r3, #20038
 169 0016 9A42     		cmp	r2, r3
 170 0018 07D1     		bne	.L14
 171              	.LBB2:
  48:BSP/record.c  ****         uint16_t crc = CRC16_Calc((uint8_t*)&cfg, 14);
 172              		.loc 1 48 9 is_stmt 1 view .LVU40
ARM GAS  C:\Users\24120\AppData\Local\Temp\cc4pJDvy.s 			page 5


 173              		.loc 1 48 24 is_stmt 0 view .LVU41
 174 001a 0E21     		movs	r1, #14
 175 001c 01A8     		add	r0, sp, #4
 176 001e FFF7FEFF 		bl	CRC16_Calc
 177              	.LVL15:
  49:BSP/record.c  ****         if (crc == cfg.crc16) {
 178              		.loc 1 49 9 is_stmt 1 view .LVU42
 179              		.loc 1 49 23 is_stmt 0 view .LVU43
 180 0022 BDF81430 		ldrh	r3, [sp, #20]
 181              		.loc 1 49 12 view .LVU44
 182 0026 8342     		cmp	r3, r0
 183 0028 13D0     		beq	.L19
 184              	.LVL16:
 185              	.L14:
 186              		.loc 1 49 12 view .LVU45
 187              	.LBE2:
  50:BSP/record.c  ****             s_deviceId   = cfg.deviceId;
  51:BSP/record.c  ****             s_attendMode = cfg.attendMode;
  52:BSP/record.c  ****             memcpy(&s_sysCfg, &cfg, sizeof(cfg));
  53:BSP/record.c  ****             return;
  54:BSP/record.c  ****         }
  55:BSP/record.c  ****     }
  56:BSP/record.c  ****     /* 郭彸掘爺 */
  57:BSP/record.c  ****     W25QXX_Read((uint8_t*)&cfg, CONFIG_BAK_ADDR, sizeof(cfg));
 188              		.loc 1 57 5 is_stmt 1 view .LVU46
 189 002a 1222     		movs	r2, #18
 190 002c 4FF48051 		mov	r1, #4096
 191 0030 01A8     		add	r0, sp, #4
 192 0032 FFF7FEFF 		bl	W25QXX_Read
 193              	.LVL17:
  58:BSP/record.c  ****     if (cfg.magic == CONFIG_MAGIC) {
 194              		.loc 1 58 5 view .LVU47
 195              		.loc 1 58 12 is_stmt 0 view .LVU48
 196 0036 BDF81220 		ldrh	r2, [sp, #18]
 197              		.loc 1 58 8 view .LVU49
 198 003a 44F64663 		movw	r3, #20038
 199 003e 9A42     		cmp	r2, r3
 200 0040 19D0     		beq	.L20
 201              	.L16:
  59:BSP/record.c  ****         uint16_t crc = CRC16_Calc((uint8_t*)&cfg, 14);
  60:BSP/record.c  ****         if (crc == cfg.crc16) {
  61:BSP/record.c  ****             s_deviceId   = cfg.deviceId;
  62:BSP/record.c  ****             s_attendMode = cfg.attendMode;
  63:BSP/record.c  ****             memcpy(&s_sysCfg, &cfg, sizeof(cfg));
  64:BSP/record.c  ****             return;
  65:BSP/record.c  ****         }
  66:BSP/record.c  ****     }
  67:BSP/record.c  ****     /* 蘇＇硉 */
  68:BSP/record.c  ****     s_deviceId   = 1;
 202              		.loc 1 68 5 is_stmt 1 view .LVU50
 203              		.loc 1 68 18 is_stmt 0 view .LVU51
 204 0042 1A4B     		ldr	r3, .L21
 205 0044 0122     		movs	r2, #1
 206 0046 1A80     		strh	r2, [r3]	@ movhi
  69:BSP/record.c  ****     s_attendMode = 2;
 207              		.loc 1 69 5 is_stmt 1 view .LVU52
 208              		.loc 1 69 18 is_stmt 0 view .LVU53
ARM GAS  C:\Users\24120\AppData\Local\Temp\cc4pJDvy.s 			page 6


 209 0048 194B     		ldr	r3, .L21+4
 210 004a 0222     		movs	r2, #2
 211 004c 1A70     		strb	r2, [r3]
 212              	.L13:
  70:BSP/record.c  **** }
 213              		.loc 1 70 1 view .LVU54
 214 004e 06B0     		add	sp, sp, #24
 215              	.LCFI3:
 216              		.cfi_remember_state
 217              		.cfi_def_cfa_offset 8
 218              		@ sp needed
 219 0050 10BD     		pop	{r4, pc}
 220              	.LVL18:
 221              	.L19:
 222              	.LCFI4:
 223              		.cfi_restore_state
 224              	.LBB3:
  50:BSP/record.c  ****             s_attendMode = cfg.attendMode;
 225              		.loc 1 50 13 is_stmt 1 view .LVU55
  50:BSP/record.c  ****             s_attendMode = cfg.attendMode;
 226              		.loc 1 50 31 is_stmt 0 view .LVU56
 227 0052 BDF80420 		ldrh	r2, [sp, #4]
  50:BSP/record.c  ****             s_attendMode = cfg.attendMode;
 228              		.loc 1 50 26 view .LVU57
 229 0056 154B     		ldr	r3, .L21
 230 0058 1A80     		strh	r2, [r3]	@ movhi
  51:BSP/record.c  ****             memcpy(&s_sysCfg, &cfg, sizeof(cfg));
 231              		.loc 1 51 13 is_stmt 1 view .LVU58
  51:BSP/record.c  ****             memcpy(&s_sysCfg, &cfg, sizeof(cfg));
 232              		.loc 1 51 31 is_stmt 0 view .LVU59
 233 005a 9DF80620 		ldrb	r2, [sp, #6]	@ zero_extendqisi2
  51:BSP/record.c  ****             memcpy(&s_sysCfg, &cfg, sizeof(cfg));
 234              		.loc 1 51 26 view .LVU60
 235 005e 144B     		ldr	r3, .L21+4
 236 0060 1A70     		strb	r2, [r3]
  52:BSP/record.c  ****             return;
 237              		.loc 1 52 13 is_stmt 1 view .LVU61
 238 0062 144C     		ldr	r4, .L21+8
 239 0064 0DF1040C 		add	ip, sp, #4
 240 0068 BCE80F00 		ldmia	ip!, {r0, r1, r2, r3}
 241              	.LVL19:
  52:BSP/record.c  ****             return;
 242              		.loc 1 52 13 is_stmt 0 view .LVU62
 243 006c 0FC4     		stmia	r4!, {r0, r1, r2, r3}
 244 006e DCF80030 		ldr	r3, [ip]
 245 0072 2380     		strh	r3, [r4]	@ movhi
  53:BSP/record.c  ****         }
 246              		.loc 1 53 13 is_stmt 1 view .LVU63
 247 0074 EBE7     		b	.L13
 248              	.LVL20:
 249              	.L20:
  53:BSP/record.c  ****         }
 250              		.loc 1 53 13 is_stmt 0 view .LVU64
 251              	.LBE3:
 252              	.LBB4:
  59:BSP/record.c  ****         if (crc == cfg.crc16) {
 253              		.loc 1 59 9 is_stmt 1 view .LVU65
ARM GAS  C:\Users\24120\AppData\Local\Temp\cc4pJDvy.s 			page 7


  59:BSP/record.c  ****         if (crc == cfg.crc16) {
 254              		.loc 1 59 24 is_stmt 0 view .LVU66
 255 0076 0E21     		movs	r1, #14
 256 0078 01A8     		add	r0, sp, #4
 257 007a FFF7FEFF 		bl	CRC16_Calc
 258              	.LVL21:
  60:BSP/record.c  ****             s_deviceId   = cfg.deviceId;
 259              		.loc 1 60 9 is_stmt 1 view .LVU67
  60:BSP/record.c  ****             s_deviceId   = cfg.deviceId;
 260              		.loc 1 60 23 is_stmt 0 view .LVU68
 261 007e BDF81430 		ldrh	r3, [sp, #20]
  60:BSP/record.c  ****             s_deviceId   = cfg.deviceId;
 262              		.loc 1 60 12 view .LVU69
 263 0082 8342     		cmp	r3, r0
 264 0084 DDD1     		bne	.L16
  61:BSP/record.c  ****             s_attendMode = cfg.attendMode;
 265              		.loc 1 61 13 is_stmt 1 view .LVU70
  61:BSP/record.c  ****             s_attendMode = cfg.attendMode;
 266              		.loc 1 61 31 is_stmt 0 view .LVU71
 267 0086 BDF80420 		ldrh	r2, [sp, #4]
  61:BSP/record.c  ****             s_attendMode = cfg.attendMode;
 268              		.loc 1 61 26 view .LVU72
 269 008a 084B     		ldr	r3, .L21
 270 008c 1A80     		strh	r2, [r3]	@ movhi
  62:BSP/record.c  ****             memcpy(&s_sysCfg, &cfg, sizeof(cfg));
 271              		.loc 1 62 13 is_stmt 1 view .LVU73
  62:BSP/record.c  ****             memcpy(&s_sysCfg, &cfg, sizeof(cfg));
 272              		.loc 1 62 31 is_stmt 0 view .LVU74
 273 008e 9DF80620 		ldrb	r2, [sp, #6]	@ zero_extendqisi2
  62:BSP/record.c  ****             memcpy(&s_sysCfg, &cfg, sizeof(cfg));
 274              		.loc 1 62 26 view .LVU75
 275 0092 074B     		ldr	r3, .L21+4
 276 0094 1A70     		strb	r2, [r3]
  63:BSP/record.c  ****             return;
 277              		.loc 1 63 13 is_stmt 1 view .LVU76
 278 0096 074C     		ldr	r4, .L21+8
 279 0098 0DF1040C 		add	ip, sp, #4
 280 009c BCE80F00 		ldmia	ip!, {r0, r1, r2, r3}
 281              	.LVL22:
  63:BSP/record.c  ****             return;
 282              		.loc 1 63 13 is_stmt 0 view .LVU77
 283 00a0 0FC4     		stmia	r4!, {r0, r1, r2, r3}
 284 00a2 DCF80030 		ldr	r3, [ip]
 285 00a6 2380     		strh	r3, [r4]	@ movhi
  64:BSP/record.c  ****         }
 286              		.loc 1 64 13 is_stmt 1 view .LVU78
 287 00a8 D1E7     		b	.L13
 288              	.L22:
 289 00aa 00BF     		.align	2
 290              	.L21:
 291 00ac 00000000 		.word	s_deviceId
 292 00b0 00000000 		.word	s_attendMode
 293 00b4 00000000 		.word	s_sysCfg
 294              	.LBE4:
 295              		.cfi_endproc
 296              	.LFE248:
 298              		.section	.text.Config_Save,"ax",%progbits
ARM GAS  C:\Users\24120\AppData\Local\Temp\cc4pJDvy.s 			page 8


 299              		.align	1
 300              		.global	Config_Save
 301              		.syntax unified
 302              		.thumb
 303              		.thumb_func
 305              	Config_Save:
 306              	.LFB249:
  71:BSP/record.c  **** 
  72:BSP/record.c  **** void Config_Save(void)
  73:BSP/record.c  **** {
 307              		.loc 1 73 1 view -0
 308              		.cfi_startproc
 309              		@ args = 0, pretend = 0, frame = 0
 310              		@ frame_needed = 0, uses_anonymous_args = 0
 311 0000 38B5     		push	{r3, r4, r5, lr}
 312              	.LCFI5:
 313              		.cfi_def_cfa_offset 16
 314              		.cfi_offset 3, -16
 315              		.cfi_offset 4, -12
 316              		.cfi_offset 5, -8
 317              		.cfi_offset 14, -4
  74:BSP/record.c  ****     s_sysCfg.deviceId   = s_deviceId;
 318              		.loc 1 74 5 view .LVU80
 319              		.loc 1 74 25 is_stmt 0 view .LVU81
 320 0002 104C     		ldr	r4, .L25
 321 0004 104B     		ldr	r3, .L25+4
 322 0006 1B88     		ldrh	r3, [r3]
 323 0008 2380     		strh	r3, [r4]	@ movhi
  75:BSP/record.c  ****     s_sysCfg.attendMode = s_attendMode;
 324              		.loc 1 75 5 is_stmt 1 view .LVU82
 325              		.loc 1 75 25 is_stmt 0 view .LVU83
 326 000a 104B     		ldr	r3, .L25+8
 327 000c 1B78     		ldrb	r3, [r3]	@ zero_extendqisi2
 328 000e A370     		strb	r3, [r4, #2]
  76:BSP/record.c  ****     s_sysCfg.timeOffset = 0;
 329              		.loc 1 76 5 is_stmt 1 view .LVU84
 330              		.loc 1 76 25 is_stmt 0 view .LVU85
 331 0010 0025     		movs	r5, #0
 332 0012 A580     		strh	r5, [r4, #4]	@ movhi
  77:BSP/record.c  ****     s_sysCfg.magic      = CONFIG_MAGIC;
 333              		.loc 1 77 5 is_stmt 1 view .LVU86
 334              		.loc 1 77 25 is_stmt 0 view .LVU87
 335 0014 44F64663 		movw	r3, #20038
 336 0018 E381     		strh	r3, [r4, #14]	@ movhi
  78:BSP/record.c  ****     memset(s_sysCfg.reserved, 0, sizeof(s_sysCfg.reserved));
 337              		.loc 1 78 5 is_stmt 1 view .LVU88
 338 001a C4F80650 		str	r5, [r4, #6]	@ unaligned
 339 001e C4F80950 		str	r5, [r4, #9]	@ unaligned
  79:BSP/record.c  ****     s_sysCfg.crc16 = CRC16_Calc((uint8_t*)&s_sysCfg, 14);
 340              		.loc 1 79 5 view .LVU89
 341              		.loc 1 79 22 is_stmt 0 view .LVU90
 342 0022 0E21     		movs	r1, #14
 343 0024 2046     		mov	r0, r4
 344 0026 FFF7FEFF 		bl	CRC16_Calc
 345              	.LVL23:
 346              		.loc 1 79 20 discriminator 1 view .LVU91
 347 002a 2082     		strh	r0, [r4, #16]	@ movhi
ARM GAS  C:\Users\24120\AppData\Local\Temp\cc4pJDvy.s 			page 9


  80:BSP/record.c  **** 
  81:BSP/record.c  ****     W25QXX_Write((uint8_t*)&s_sysCfg, CONFIG_BAK_ADDR, sizeof(s_sysCfg));
 348              		.loc 1 81 5 is_stmt 1 view .LVU92
 349 002c 1222     		movs	r2, #18
 350 002e 4FF48051 		mov	r1, #4096
 351 0032 2046     		mov	r0, r4
 352 0034 FFF7FEFF 		bl	W25QXX_Write
 353              	.LVL24:
  82:BSP/record.c  ****     W25QXX_Write((uint8_t*)&s_sysCfg, CONFIG_FLASH_ADDR, sizeof(s_sysCfg));
 354              		.loc 1 82 5 view .LVU93
 355 0038 1222     		movs	r2, #18
 356 003a 2946     		mov	r1, r5
 357 003c 2046     		mov	r0, r4
 358 003e FFF7FEFF 		bl	W25QXX_Write
 359              	.LVL25:
  83:BSP/record.c  **** }
 360              		.loc 1 83 1 is_stmt 0 view .LVU94
 361 0042 38BD     		pop	{r3, r4, r5, pc}
 362              	.L26:
 363              		.align	2
 364              	.L25:
 365 0044 00000000 		.word	s_sysCfg
 366 0048 00000000 		.word	s_deviceId
 367 004c 00000000 		.word	s_attendMode
 368              		.cfi_endproc
 369              	.LFE249:
 371              		.section	.text.Config_SetAdmin,"ax",%progbits
 372              		.align	1
 373              		.global	Config_SetAdmin
 374              		.syntax unified
 375              		.thumb
 376              		.thumb_func
 378              	Config_SetAdmin:
 379              	.LVL26:
 380              	.LFB250:
  84:BSP/record.c  **** 
  85:BSP/record.c  **** void Config_SetAdmin(uint16_t deviceId, uint8_t attendMode)
  86:BSP/record.c  **** {
 381              		.loc 1 86 1 is_stmt 1 view -0
 382              		.cfi_startproc
 383              		@ args = 0, pretend = 0, frame = 0
 384              		@ frame_needed = 0, uses_anonymous_args = 0
 385              		@ link register save eliminated.
  87:BSP/record.c  ****     s_deviceId   = deviceId;
 386              		.loc 1 87 5 view .LVU96
 387              		.loc 1 87 18 is_stmt 0 view .LVU97
 388 0000 024B     		ldr	r3, .L28
 389 0002 1880     		strh	r0, [r3]	@ movhi
  88:BSP/record.c  ****     s_attendMode = attendMode;
 390              		.loc 1 88 5 is_stmt 1 view .LVU98
 391              		.loc 1 88 18 is_stmt 0 view .LVU99
 392 0004 024B     		ldr	r3, .L28+4
 393 0006 1970     		strb	r1, [r3]
  89:BSP/record.c  **** }
 394              		.loc 1 89 1 view .LVU100
 395 0008 7047     		bx	lr
 396              	.L29:
ARM GAS  C:\Users\24120\AppData\Local\Temp\cc4pJDvy.s 			page 10


 397 000a 00BF     		.align	2
 398              	.L28:
 399 000c 00000000 		.word	s_deviceId
 400 0010 00000000 		.word	s_attendMode
 401              		.cfi_endproc
 402              	.LFE250:
 404              		.section	.text.Config_GetDeviceId,"ax",%progbits
 405              		.align	1
 406              		.global	Config_GetDeviceId
 407              		.syntax unified
 408              		.thumb
 409              		.thumb_func
 411              	Config_GetDeviceId:
 412              	.LFB251:
  90:BSP/record.c  **** 
  91:BSP/record.c  **** uint16_t Config_GetDeviceId(void)  { return s_deviceId; }
 413              		.loc 1 91 36 is_stmt 1 view -0
 414              		.cfi_startproc
 415              		@ args = 0, pretend = 0, frame = 0
 416              		@ frame_needed = 0, uses_anonymous_args = 0
 417              		@ link register save eliminated.
 418              		.loc 1 91 38 view .LVU102
 419              		.loc 1 91 57 is_stmt 0 view .LVU103
 420 0000 014B     		ldr	r3, .L31
 421 0002 1888     		ldrh	r0, [r3]
 422 0004 7047     		bx	lr
 423              	.L32:
 424 0006 00BF     		.align	2
 425              	.L31:
 426 0008 00000000 		.word	s_deviceId
 427              		.cfi_endproc
 428              	.LFE251:
 430              		.section	.text.Config_GetAttendMode,"ax",%progbits
 431              		.align	1
 432              		.global	Config_GetAttendMode
 433              		.syntax unified
 434              		.thumb
 435              		.thumb_func
 437              	Config_GetAttendMode:
 438              	.LFB252:
  92:BSP/record.c  **** uint8_t  Config_GetAttendMode(void) { return s_attendMode; }
 439              		.loc 1 92 37 is_stmt 1 view -0
 440              		.cfi_startproc
 441              		@ args = 0, pretend = 0, frame = 0
 442              		@ frame_needed = 0, uses_anonymous_args = 0
 443              		@ link register save eliminated.
 444              		.loc 1 92 39 view .LVU105
 445              		.loc 1 92 60 is_stmt 0 view .LVU106
 446 0000 014B     		ldr	r3, .L34
 447 0002 1878     		ldrb	r0, [r3]	@ zero_extendqisi2
 448 0004 7047     		bx	lr
 449              	.L35:
 450 0006 00BF     		.align	2
 451              	.L34:
 452 0008 00000000 		.word	s_attendMode
 453              		.cfi_endproc
 454              	.LFE252:
ARM GAS  C:\Users\24120\AppData\Local\Temp\cc4pJDvy.s 			page 11


 456              		.section	.text.Record_Init,"ax",%progbits
 457              		.align	1
 458              		.global	Record_Init
 459              		.syntax unified
 460              		.thumb
 461              		.thumb_func
 463              	Record_Init:
 464              	.LFB253:
  93:BSP/record.c  **** 
  94:BSP/record.c  **** /* ====== 芃縐暮翹 ====== */
  95:BSP/record.c  **** 
  96:BSP/record.c  **** void Record_Init(void)
  97:BSP/record.c  **** {
 465              		.loc 1 97 1 is_stmt 1 view -0
 466              		.cfi_startproc
 467              		@ args = 0, pretend = 0, frame = 32
 468              		@ frame_needed = 0, uses_anonymous_args = 0
 469 0000 30B5     		push	{r4, r5, lr}
 470              	.LCFI6:
 471              		.cfi_def_cfa_offset 12
 472              		.cfi_offset 4, -12
 473              		.cfi_offset 5, -8
 474              		.cfi_offset 14, -4
 475 0002 89B0     		sub	sp, sp, #36
 476              	.LCFI7:
 477              		.cfi_def_cfa_offset 48
  98:BSP/record.c  ****     RecordHeader_t rh;
 478              		.loc 1 98 5 view .LVU108
  99:BSP/record.c  ****     W25QXX_Read((uint8_t*)&rh, RECHEAD_FLASH_ADDR, sizeof(rh));
 479              		.loc 1 99 5 view .LVU109
 480 0004 2022     		movs	r2, #32
 481 0006 4FF40051 		mov	r1, #8192
 482 000a 6846     		mov	r0, sp
 483 000c FFF7FEFF 		bl	W25QXX_Read
 484              	.LVL27:
 100:BSP/record.c  ****     if (rh.magic == RECHEAD_MAGIC) {
 485              		.loc 1 100 5 view .LVU110
 486              		.loc 1 100 8 is_stmt 0 view .LVU111
 487 0010 009A     		ldr	r2, [sp]
 488 0012 104B     		ldr	r3, .L40
 489 0014 9A42     		cmp	r2, r3
 490 0016 0AD1     		bne	.L37
 101:BSP/record.c  ****         memcpy(&s_recHead, &rh, sizeof(rh));
 491              		.loc 1 101 9 is_stmt 1 view .LVU112
 492 0018 0F4C     		ldr	r4, .L40+4
 493 001a EC46     		mov	ip, sp
 494 001c BCE80F00 		ldmia	ip!, {r0, r1, r2, r3}
 495 0020 0FC4     		stmia	r4!, {r0, r1, r2, r3}
 496 0022 9CE80F00 		ldm	ip, {r0, r1, r2, r3}
 497 0026 84E80F00 		stm	r4, {r0, r1, r2, r3}
 498              	.L36:
 102:BSP/record.c  ****     } else {
 103:BSP/record.c  ****         memset(&s_recHead, 0, sizeof(s_recHead));
 104:BSP/record.c  ****         s_recHead.magic   = RECHEAD_MAGIC;
 105:BSP/record.c  ****         s_recHead.version = 1;
 106:BSP/record.c  ****         W25QXX_Write((uint8_t*)&s_recHead, RECHEAD_FLASH_ADDR, sizeof(s_recHead));
 107:BSP/record.c  ****     }
ARM GAS  C:\Users\24120\AppData\Local\Temp\cc4pJDvy.s 			page 12


 108:BSP/record.c  **** }
 499              		.loc 1 108 1 is_stmt 0 view .LVU113
 500 002a 09B0     		add	sp, sp, #36
 501              	.LCFI8:
 502              		.cfi_remember_state
 503              		.cfi_def_cfa_offset 12
 504              		@ sp needed
 505 002c 30BD     		pop	{r4, r5, pc}
 506              	.L37:
 507              	.LCFI9:
 508              		.cfi_restore_state
 103:BSP/record.c  ****         s_recHead.magic   = RECHEAD_MAGIC;
 509              		.loc 1 103 9 is_stmt 1 view .LVU114
 510 002e 0A4C     		ldr	r4, .L40+4
 511 0030 2025     		movs	r5, #32
 512 0032 2A46     		mov	r2, r5
 513 0034 0021     		movs	r1, #0
 514 0036 2046     		mov	r0, r4
 515 0038 FFF7FEFF 		bl	memset
 516              	.LVL28:
 104:BSP/record.c  ****         s_recHead.version = 1;
 517              		.loc 1 104 9 view .LVU115
 104:BSP/record.c  ****         s_recHead.version = 1;
 518              		.loc 1 104 27 is_stmt 0 view .LVU116
 519 003c 054B     		ldr	r3, .L40
 520 003e 2360     		str	r3, [r4]
 105:BSP/record.c  ****         W25QXX_Write((uint8_t*)&s_recHead, RECHEAD_FLASH_ADDR, sizeof(s_recHead));
 521              		.loc 1 105 9 is_stmt 1 view .LVU117
 105:BSP/record.c  ****         W25QXX_Write((uint8_t*)&s_recHead, RECHEAD_FLASH_ADDR, sizeof(s_recHead));
 522              		.loc 1 105 27 is_stmt 0 view .LVU118
 523 0040 0123     		movs	r3, #1
 524 0042 6382     		strh	r3, [r4, #18]	@ movhi
 106:BSP/record.c  ****     }
 525              		.loc 1 106 9 is_stmt 1 view .LVU119
 526 0044 2A46     		mov	r2, r5
 527 0046 4FF40051 		mov	r1, #8192
 528 004a 2046     		mov	r0, r4
 529 004c FFF7FEFF 		bl	W25QXX_Write
 530              	.LVL29:
 531              		.loc 1 108 1 is_stmt 0 view .LVU120
 532 0050 EBE7     		b	.L36
 533              	.L41:
 534 0052 00BF     		.align	2
 535              	.L40:
 536 0054 6E43464E 		.word	1313227630
 537 0058 00000000 		.word	s_recHead
 538              		.cfi_endproc
 539              	.LFE253:
 541              		.section	.text.Record_Add,"ax",%progbits
 542              		.align	1
 543              		.global	Record_Add
 544              		.syntax unified
 545              		.thumb
 546              		.thumb_func
 548              	Record_Add:
 549              	.LVL30:
 550              	.LFB254:
ARM GAS  C:\Users\24120\AppData\Local\Temp\cc4pJDvy.s 			page 13


 109:BSP/record.c  **** 
 110:BSP/record.c  **** void Record_Add(const SwipeRecord_t *pRec)
 111:BSP/record.c  **** {
 551              		.loc 1 111 1 is_stmt 1 view -0
 552              		.cfi_startproc
 553              		@ args = 0, pretend = 0, frame = 40
 554              		@ frame_needed = 0, uses_anonymous_args = 0
 555              		.loc 1 111 1 is_stmt 0 view .LVU122
 556 0000 F0B5     		push	{r4, r5, r6, r7, lr}
 557              	.LCFI10:
 558              		.cfi_def_cfa_offset 20
 559              		.cfi_offset 4, -20
 560              		.cfi_offset 5, -16
 561              		.cfi_offset 6, -12
 562              		.cfi_offset 7, -8
 563              		.cfi_offset 14, -4
 564 0002 8BB0     		sub	sp, sp, #44
 565              	.LCFI11:
 566              		.cfi_def_cfa_offset 64
 112:BSP/record.c  ****     uint32_t addr = RECORD_FLASH_ADDR + s_recHead.writeOffset;
 567              		.loc 1 112 5 is_stmt 1 view .LVU123
 568              		.loc 1 112 50 is_stmt 0 view .LVU124
 569 0004 214B     		ldr	r3, .L46
 570 0006 5E68     		ldr	r6, [r3, #4]
 571              		.loc 1 112 14 view .LVU125
 572 0008 06F54057 		add	r7, r6, #12288
 573              	.LVL31:
 113:BSP/record.c  ****     SwipeRecord_t rec;
 574              		.loc 1 113 5 is_stmt 1 view .LVU126
 114:BSP/record.c  **** 
 115:BSP/record.c  ****     memcpy(&rec, pRec, sizeof(rec));
 575              		.loc 1 115 5 view .LVU127
 576 000c 8446     		mov	ip, r0
 577 000e 01AD     		add	r5, sp, #4
 578 0010 00F1200E 		add	lr, r0, #32
 579              	.LVL32:
 580              	.L43:
 581              		.loc 1 115 5 is_stmt 0 view .LVU128
 582 0014 2C46     		mov	r4, r5
 583 0016 DCF80000 		ldr	r0, [ip]	@ unaligned
 584 001a DCF80410 		ldr	r1, [ip, #4]	@ unaligned
 585 001e DCF80820 		ldr	r2, [ip, #8]	@ unaligned
 586 0022 DCF80C30 		ldr	r3, [ip, #12]	@ unaligned
 587 0026 0FC4     		stmia	r4!, {r0, r1, r2, r3}
 588 0028 0CF1100C 		add	ip, ip, #16
 589 002c 2546     		mov	r5, r4
 590 002e F445     		cmp	ip, lr
 591 0030 F0D1     		bne	.L43
 592 0032 DCF80000 		ldr	r0, [ip]	@ unaligned
 593 0036 2060     		str	r0, [r4]
 116:BSP/record.c  ****     rec.seqNum = (uint32_t)(s_recHead.writeOffset / RECORD_SIZE) + 1;
 594              		.loc 1 116 5 is_stmt 1 view .LVU129
 595              		.loc 1 116 18 is_stmt 0 view .LVU130
 596 0038 7609     		lsrs	r6, r6, #5
 597              		.loc 1 116 66 view .LVU131
 598 003a 0136     		adds	r6, r6, #1
 599              		.loc 1 116 16 view .LVU132
ARM GAS  C:\Users\24120\AppData\Local\Temp\cc4pJDvy.s 			page 14


 600 003c 0196     		str	r6, [sp, #4]
 117:BSP/record.c  ****     rec.crc16  = CRC16_Calc((uint8_t*)&rec, 30);
 601              		.loc 1 117 5 is_stmt 1 view .LVU133
 602              		.loc 1 117 18 is_stmt 0 view .LVU134
 603 003e 01AC     		add	r4, sp, #4
 604 0040 1E21     		movs	r1, #30
 605 0042 2046     		mov	r0, r4
 606 0044 FFF7FEFF 		bl	CRC16_Calc
 607              	.LVL33:
 608              		.loc 1 117 16 discriminator 1 view .LVU135
 609 0048 ADF82200 		strh	r0, [sp, #34]	@ movhi
 118:BSP/record.c  **** 
 119:BSP/record.c  ****     W25QXX_Write((uint8_t*)&rec, addr, RECORD_SIZE);
 610              		.loc 1 119 5 is_stmt 1 view .LVU136
 611 004c 2022     		movs	r2, #32
 612 004e 3946     		mov	r1, r7
 613 0050 2046     		mov	r0, r4
 614 0052 FFF7FEFF 		bl	W25QXX_Write
 615              	.LVL34:
 120:BSP/record.c  **** 
 121:BSP/record.c  ****     s_recHead.writeOffset += RECORD_SIZE;
 616              		.loc 1 121 5 view .LVU137
 617              		.loc 1 121 14 is_stmt 0 view .LVU138
 618 0056 0D4A     		ldr	r2, .L46
 619 0058 5368     		ldr	r3, [r2, #4]
 620              		.loc 1 121 27 view .LVU139
 621 005a 2033     		adds	r3, r3, #32
 622 005c 5360     		str	r3, [r2, #4]
 122:BSP/record.c  ****     if (s_recHead.writeOffset >= RECORD_AREA_SIZE)
 623              		.loc 1 122 5 is_stmt 1 view .LVU140
 624              		.loc 1 122 8 is_stmt 0 view .LVU141
 625 005e B3F5805F 		cmp	r3, #4096
 626 0062 02D3     		bcc	.L44
 123:BSP/record.c  ****         s_recHead.writeOffset = 0;
 627              		.loc 1 123 9 is_stmt 1 view .LVU142
 628              		.loc 1 123 31 is_stmt 0 view .LVU143
 629 0064 1346     		mov	r3, r2
 630 0066 0022     		movs	r2, #0
 631 0068 5A60     		str	r2, [r3, #4]
 632              	.L44:
 124:BSP/record.c  ****     s_recHead.totalCount++;
 633              		.loc 1 124 5 is_stmt 1 view .LVU144
 634              		.loc 1 124 14 is_stmt 0 view .LVU145
 635 006a 0848     		ldr	r0, .L46
 636 006c 8268     		ldr	r2, [r0, #8]
 637              		.loc 1 124 25 view .LVU146
 638 006e 0132     		adds	r2, r2, #1
 639 0070 8260     		str	r2, [r0, #8]
 125:BSP/record.c  **** 
 126:BSP/record.c  ****     s_recHead.checksum = (uint16_t)(s_recHead.writeOffset ^ s_recHead.totalCount
 640              		.loc 1 126 5 is_stmt 1 view .LVU147
 641              		.loc 1 126 46 is_stmt 0 view .LVU148
 642 0072 4368     		ldr	r3, [r0, #4]
 643              		.loc 1 126 59 view .LVU149
 644 0074 5340     		eors	r3, r3, r2
 645 0076 9BB2     		uxth	r3, r3
 127:BSP/record.c  ****                                     ^ s_recHead.uploadOffset);
ARM GAS  C:\Users\24120\AppData\Local\Temp\cc4pJDvy.s 			page 15


 646              		.loc 1 127 48 view .LVU150
 647 0078 C268     		ldr	r2, [r0, #12]
 126:BSP/record.c  ****                                     ^ s_recHead.uploadOffset);
 648              		.loc 1 126 26 view .LVU151
 649 007a 5340     		eors	r3, r3, r2
 126:BSP/record.c  ****                                     ^ s_recHead.uploadOffset);
 650              		.loc 1 126 24 view .LVU152
 651 007c 0382     		strh	r3, [r0, #16]	@ movhi
 128:BSP/record.c  ****     W25QXX_Write((uint8_t*)&s_recHead, RECHEAD_FLASH_ADDR, sizeof(s_recHead));
 652              		.loc 1 128 5 is_stmt 1 view .LVU153
 653 007e 2022     		movs	r2, #32
 654 0080 4FF40051 		mov	r1, #8192
 655 0084 FFF7FEFF 		bl	W25QXX_Write
 656              	.LVL35:
 129:BSP/record.c  **** }
 657              		.loc 1 129 1 is_stmt 0 view .LVU154
 658 0088 0BB0     		add	sp, sp, #44
 659              	.LCFI12:
 660              		.cfi_def_cfa_offset 20
 661              		@ sp needed
 662 008a F0BD     		pop	{r4, r5, r6, r7, pc}
 663              	.LVL36:
 664              	.L47:
 665              		.loc 1 129 1 view .LVU155
 666              		.align	2
 667              	.L46:
 668 008c 00000000 		.word	s_recHead
 669              		.cfi_endproc
 670              	.LFE254:
 672              		.section	.text.Record_QueryLast,"ax",%progbits
 673              		.align	1
 674              		.global	Record_QueryLast
 675              		.syntax unified
 676              		.thumb
 677              		.thumb_func
 679              	Record_QueryLast:
 680              	.LVL37:
 681              	.LFB255:
 130:BSP/record.c  **** 
 131:BSP/record.c  **** int Record_QueryLast(uint32_t uid, SwipeRecord_t *pOut)
 132:BSP/record.c  **** {
 682              		.loc 1 132 1 is_stmt 1 view -0
 683              		.cfi_startproc
 684              		@ args = 0, pretend = 0, frame = 0
 685              		@ frame_needed = 0, uses_anonymous_args = 0
 686              		.loc 1 132 1 is_stmt 0 view .LVU157
 687 0000 F8B5     		push	{r3, r4, r5, r6, r7, lr}
 688              	.LCFI13:
 689              		.cfi_def_cfa_offset 24
 690              		.cfi_offset 3, -24
 691              		.cfi_offset 4, -20
 692              		.cfi_offset 5, -16
 693              		.cfi_offset 6, -12
 694              		.cfi_offset 7, -8
 695              		.cfi_offset 14, -4
 696 0002 0746     		mov	r7, r0
 697 0004 0C46     		mov	r4, r1
ARM GAS  C:\Users\24120\AppData\Local\Temp\cc4pJDvy.s 			page 16


 133:BSP/record.c  ****     uint32_t off = s_recHead.writeOffset;
 698              		.loc 1 133 5 is_stmt 1 view .LVU158
 699              		.loc 1 133 14 is_stmt 0 view .LVU159
 700 0006 144B     		ldr	r3, .L60
 701 0008 5D68     		ldr	r5, [r3, #4]
 702              	.LVL38:
 134:BSP/record.c  ****     int scanned = 0;
 703              		.loc 1 134 5 is_stmt 1 view .LVU160
 135:BSP/record.c  **** 
 136:BSP/record.c  ****     if (off == 0) off = RECORD_AREA_SIZE;
 704              		.loc 1 136 5 view .LVU161
 705              		.loc 1 136 8 is_stmt 0 view .LVU162
 706 000a 05B3     		cbz	r5, .L55
 707              	.LVL39:
 708              	.L49:
 709              		.loc 1 136 23 discriminator 1 view .LVU163
 710 000c 0026     		movs	r6, #0
 711              	.LVL40:
 712              	.L52:
 137:BSP/record.c  **** 
 138:BSP/record.c  ****     while (scanned < RECORD_MAX_COUNT) {
 713              		.loc 1 138 20 is_stmt 1 view .LVU164
 714 000e 7F2E     		cmp	r6, #127
 715 0010 20DC     		bgt	.L59
 139:BSP/record.c  ****         off = (off >= RECORD_SIZE) ? (off - RECORD_SIZE) : (RECORD_AREA_SIZE - RECORD_SIZE);
 716              		.loc 1 139 9 view .LVU165
 717              		.loc 1 139 58 is_stmt 0 view .LVU166
 718 0012 1F2D     		cmp	r5, #31
 719 0014 18D9     		bls	.L56
 720              		.loc 1 139 58 discriminator 1 view .LVU167
 721 0016 203D     		subs	r5, r5, #32
 722              	.LVL41:
 723              	.L51:
 140:BSP/record.c  ****         W25QXX_Read((uint8_t*)pOut, RECORD_FLASH_ADDR + off, RECORD_SIZE);
 724              		.loc 1 140 9 is_stmt 1 view .LVU168
 725 0018 2022     		movs	r2, #32
 726 001a 05F54051 		add	r1, r5, #12288
 727 001e 2046     		mov	r0, r4
 728 0020 FFF7FEFF 		bl	W25QXX_Read
 729              	.LVL42:
 141:BSP/record.c  ****         scanned++;
 730              		.loc 1 141 9 view .LVU169
 731              		.loc 1 141 16 is_stmt 0 view .LVU170
 732 0024 0136     		adds	r6, r6, #1
 733              	.LVL43:
 142:BSP/record.c  **** 
 143:BSP/record.c  ****         if (pOut->seqNum == 0 || pOut->seqNum == 0xFFFFFFFFU) continue;
 734              		.loc 1 143 9 is_stmt 1 view .LVU171
 735              		.loc 1 143 17 is_stmt 0 view .LVU172
 736 0026 2368     		ldr	r3, [r4]
 737              		.loc 1 143 31 view .LVU173
 738 0028 013B     		subs	r3, r3, #1
 739              		.loc 1 143 12 view .LVU174
 740 002a 13F1030F 		cmn	r3, #3
 741 002e EED8     		bhi	.L52
 742              	.LBB5:
 144:BSP/record.c  ****         {
ARM GAS  C:\Users\24120\AppData\Local\Temp\cc4pJDvy.s 			page 17


 145:BSP/record.c  ****             uint16_t calcCrc = CRC16_Calc((uint8_t*)pOut, 30);
 743              		.loc 1 145 13 is_stmt 1 view .LVU175
 744              		.loc 1 145 32 is_stmt 0 view .LVU176
 745 0030 1E21     		movs	r1, #30
 746 0032 2046     		mov	r0, r4
 747 0034 FFF7FEFF 		bl	CRC16_Calc
 748              	.LVL44:
 146:BSP/record.c  ****             if (calcCrc != pOut->crc16) continue;
 749              		.loc 1 146 13 is_stmt 1 view .LVU177
 750              		.loc 1 146 32 is_stmt 0 view .LVU178
 751 0038 E38B     		ldrh	r3, [r4, #30]
 752              		.loc 1 146 16 view .LVU179
 753 003a 8342     		cmp	r3, r0
 754 003c E7D1     		bne	.L52
 755              	.LBE5:
 147:BSP/record.c  ****         }
 148:BSP/record.c  ****         if (pOut->uid == uid) return 1;
 756              		.loc 1 148 9 is_stmt 1 view .LVU180
 757              		.loc 1 148 17 is_stmt 0 view .LVU181
 758 003e A368     		ldr	r3, [r4, #8]
 759              		.loc 1 148 12 view .LVU182
 760 0040 BB42     		cmp	r3, r7
 761 0042 E4D1     		bne	.L52
 762              		.loc 1 148 38 discriminator 1 view .LVU183
 763 0044 0120     		movs	r0, #1
 764              	.LVL45:
 765              	.L48:
 149:BSP/record.c  ****     }
 150:BSP/record.c  ****     return 0;
 151:BSP/record.c  **** }
 766              		.loc 1 151 1 view .LVU184
 767 0046 F8BD     		pop	{r3, r4, r5, r6, r7, pc}
 768              	.LVL46:
 769              	.L56:
 139:BSP/record.c  ****         W25QXX_Read((uint8_t*)pOut, RECORD_FLASH_ADDR + off, RECORD_SIZE);
 770              		.loc 1 139 58 discriminator 2 view .LVU185
 771 0048 4FF47E65 		mov	r5, #4064
 772              	.LVL47:
 139:BSP/record.c  ****         W25QXX_Read((uint8_t*)pOut, RECORD_FLASH_ADDR + off, RECORD_SIZE);
 773              		.loc 1 139 58 discriminator 2 view .LVU186
 774 004c E4E7     		b	.L51
 775              	.LVL48:
 776              	.L55:
 136:BSP/record.c  **** 
 777              		.loc 1 136 23 discriminator 1 view .LVU187
 778 004e 4FF48055 		mov	r5, #4096
 779              	.LVL49:
 136:BSP/record.c  **** 
 780              		.loc 1 136 23 discriminator 1 view .LVU188
 781 0052 DBE7     		b	.L49
 782              	.LVL50:
 783              	.L59:
 150:BSP/record.c  **** }
 784              		.loc 1 150 12 view .LVU189
 785 0054 0020     		movs	r0, #0
 786 0056 F6E7     		b	.L48
 787              	.L61:
ARM GAS  C:\Users\24120\AppData\Local\Temp\cc4pJDvy.s 			page 18


 788              		.align	2
 789              	.L60:
 790 0058 00000000 		.word	s_recHead
 791              		.cfi_endproc
 792              	.LFE255:
 794              		.section	.rodata.Record_List.str1.4,"aMS",%progbits,1
 795              		.align	2
 796              	.LC0:
 797 0000 4F555400 		.ascii	"OUT\000"
 798              		.align	2
 799              	.LC1:
 800 0004 44555000 		.ascii	"DUP\000"
 801              		.align	2
 802              	.LC2:
 803 0008 4E4F494E 		.ascii	"NOIN\000"
 803      00
 804 000d 000000   		.align	2
 805              	.LC3:
 806 0010 494E5600 		.ascii	"INV\000"
 807              		.align	2
 808              	.LC4:
 809 0014 4C4F5354 		.ascii	"LOST\000"
 809      00
 810 0019 000000   		.align	2
 811              	.LC5:
 812 001c 494E00   		.ascii	"IN\000"
 813 001f 00       		.align	2
 814              	.LC6:
 815 0020 4C495354 		.ascii	"LIST:0\000"
 815      3A3000
 816 0027 00       		.align	2
 817              	.LC7:
 818 0028 4C495354 		.ascii	"LIST:%lu\012\000"
 818      3A256C75 
 818      0A00
 819 0032 0000     		.align	2
 820              	.LC8:
 821 0034 5245433A 		.ascii	"REC:SEQ=%lu|UID=%08lX|SID=%lu|TYPE%u|%04u-%02u-%02u"
 821      5345513D 
 821      256C757C 
 821      5549443D 
 821      2530386C 
 822 0067 20253032 		.ascii	" %02u:%02u:%02u|DEV=%u|OFS=%d|%s\012\000"
 822      753A2530 
 822      32753A25 
 822      3032757C 
 822      4445563D 
 823              		.section	.text.Record_List,"ax",%progbits
 824              		.align	1
 825              		.global	Record_List
 826              		.syntax unified
 827              		.thumb
 828              		.thumb_func
 830              	Record_List:
 831              	.LVL51:
 832              	.LFB256:
 152:BSP/record.c  **** 
ARM GAS  C:\Users\24120\AppData\Local\Temp\cc4pJDvy.s 			page 19


 153:BSP/record.c  **** void Record_List(uint32_t maxCount)
 154:BSP/record.c  **** {
 833              		.loc 1 154 1 is_stmt 1 view -0
 834              		.cfi_startproc
 835              		@ args = 0, pretend = 0, frame = 56
 836              		@ frame_needed = 0, uses_anonymous_args = 0
 837              		.loc 1 154 1 is_stmt 0 view .LVU191
 838 0000 2DE9F04F 		push	{r4, r5, r6, r7, r8, r9, r10, fp, lr}
 839              	.LCFI14:
 840              		.cfi_def_cfa_offset 36
 841              		.cfi_offset 4, -36
 842              		.cfi_offset 5, -32
 843              		.cfi_offset 6, -28
 844              		.cfi_offset 7, -24
 845              		.cfi_offset 8, -20
 846              		.cfi_offset 9, -16
 847              		.cfi_offset 10, -12
 848              		.cfi_offset 11, -8
 849              		.cfi_offset 14, -4
 850 0004 99B0     		sub	sp, sp, #100
 851              	.LCFI15:
 852              		.cfi_def_cfa_offset 136
 155:BSP/record.c  ****     SwipeRecord_t rec;
 853              		.loc 1 155 5 is_stmt 1 view .LVU192
 156:BSP/record.c  ****     uint32_t curOff;
 854              		.loc 1 156 5 view .LVU193
 157:BSP/record.c  ****     uint32_t outputCount = 0;
 855              		.loc 1 157 5 view .LVU194
 856              	.LVL52:
 158:BSP/record.c  **** 
 159:BSP/record.c  ****     uint32_t total = (s_recHead.totalCount < RECORD_MAX_COUNT)
 857              		.loc 1 159 5 view .LVU195
 858              		.loc 1 159 32 is_stmt 0 view .LVU196
 859 0006 494B     		ldr	r3, .L82
 860 0008 9B68     		ldr	r3, [r3, #8]
 861              		.loc 1 159 14 view .LVU197
 862 000a 9A46     		mov	r10, r3
 863 000c 802B     		cmp	r3, #128
 864 000e 28BF     		it	cs
 865 0010 4FF0800A 		movcs	r10, #128
 866              	.LVL53:
 160:BSP/record.c  ****                      ? s_recHead.totalCount : RECORD_MAX_COUNT;
 161:BSP/record.c  **** 
 162:BSP/record.c  ****     if (total == 0) {
 867              		.loc 1 162 5 is_stmt 1 view .LVU198
 868              		.loc 1 162 8 is_stmt 0 view .LVU199
 869 0014 73B1     		cbz	r3, .L81
 163:BSP/record.c  ****         printf("LIST:0\n");
 164:BSP/record.c  ****         return;
 165:BSP/record.c  ****     }
 166:BSP/record.c  **** 
 167:BSP/record.c  ****     if (maxCount == 0 || maxCount > total) maxCount = total;
 870              		.loc 1 167 5 is_stmt 1 view .LVU200
 871              		.loc 1 167 8 is_stmt 0 view .LVU201
 872 0016 10B1     		cbz	r0, .L65
 873              		.loc 1 167 23 discriminator 2 view .LVU202
 874 0018 8245     		cmp	r10, r0
ARM GAS  C:\Users\24120\AppData\Local\Temp\cc4pJDvy.s 			page 20


 875 001a 00D3     		bcc	.L65
 876 001c 8246     		mov	r10, r0
 877              	.LVL54:
 878              	.L65:
 168:BSP/record.c  ****     printf("LIST:%lu\n", (unsigned long)maxCount);
 879              		.loc 1 168 5 is_stmt 1 view .LVU203
 880 001e 5146     		mov	r1, r10
 881 0020 4348     		ldr	r0, .L82+4
 882 0022 FFF7FEFF 		bl	printf
 883              	.LVL55:
 169:BSP/record.c  **** 
 170:BSP/record.c  ****     curOff = s_recHead.writeOffset;
 884              		.loc 1 170 5 view .LVU204
 885              		.loc 1 170 12 is_stmt 0 view .LVU205
 886 0026 414B     		ldr	r3, .L82
 887 0028 D3F80490 		ldr	r9, [r3, #4]
 888              	.LVL56:
 171:BSP/record.c  ****     for (int i = 0; i < RECORD_MAX_COUNT && outputCount < maxCount; i++) {
 889              		.loc 1 171 5 is_stmt 1 view .LVU206
 890              	.LBB6:
 891              		.loc 1 171 10 view .LVU207
 892              		.loc 1 171 14 is_stmt 0 view .LVU208
 893 002c 4FF00008 		mov	r8, #0
 894              	.LBE6:
 157:BSP/record.c  **** 
 895              		.loc 1 157 14 view .LVU209
 896 0030 C346     		mov	fp, r8
 897              	.LBB8:
 898              		.loc 1 171 5 view .LVU210
 899 0032 2EE0     		b	.L66
 900              	.LVL57:
 901              	.L81:
 902              		.loc 1 171 5 view .LVU211
 903              	.LBE8:
 163:BSP/record.c  ****         return;
 904              		.loc 1 163 9 is_stmt 1 view .LVU212
 905 0034 3F48     		ldr	r0, .L82+8
 906              	.LVL58:
 163:BSP/record.c  ****         return;
 907              		.loc 1 163 9 is_stmt 0 view .LVU213
 908 0036 FFF7FEFF 		bl	puts
 909              	.LVL59:
 164:BSP/record.c  ****     }
 910              		.loc 1 164 9 is_stmt 1 view .LVU214
 911              	.L62:
 172:BSP/record.c  ****         curOff = (curOff >= RECORD_SIZE) ? (curOff - RECORD_SIZE)
 173:BSP/record.c  ****                                          : (RECORD_AREA_SIZE - RECORD_SIZE);
 174:BSP/record.c  ****         W25QXX_Read((uint8_t*)&rec, RECORD_FLASH_ADDR + curOff, RECORD_SIZE);
 175:BSP/record.c  **** 
 176:BSP/record.c  ****         if (rec.seqNum == 0 || rec.seqNum == 0xFFFFFFFFU) continue;
 177:BSP/record.c  ****         if (rec.uid == 0) continue;
 178:BSP/record.c  ****         {
 179:BSP/record.c  ****             uint16_t calcCrc = CRC16_Calc((uint8_t*)&rec, 30);
 180:BSP/record.c  ****             if (calcCrc != rec.crc16) continue;
 181:BSP/record.c  ****         }
 182:BSP/record.c  **** 
 183:BSP/record.c  ****         printf("REC:SEQ=%lu|UID=%08lX|SID=%lu|TYPE%u|%04u-%02u-%02u %02u:%02u:%02u|DEV=%u|OFS=%d|%s
ARM GAS  C:\Users\24120\AppData\Local\Temp\cc4pJDvy.s 			page 21


 184:BSP/record.c  ****             (unsigned long)rec.seqNum,
 185:BSP/record.c  ****             (unsigned long)rec.uid,
 186:BSP/record.c  ****             (unsigned long)rec.sid,
 187:BSP/record.c  ****             (unsigned)rec.cardType,
 188:BSP/record.c  ****             (unsigned)(2000U + rec.year), (unsigned)rec.month, (unsigned)rec.day,
 189:BSP/record.c  ****             (unsigned)rec.hour, (unsigned)rec.minute, (unsigned)rec.second,
 190:BSP/record.c  ****             (unsigned)rec.deviceId,
 191:BSP/record.c  ****             (int)(int16_t)rec.timeOffset,
 192:BSP/record.c  ****             rec.status == 0 ? (rec.eventType == 0 ? "IN" : "OUT") :
 193:BSP/record.c  ****             rec.status == 1 ? "DUP" :
 194:BSP/record.c  ****             rec.status == 2 ? "NOIN" :
 195:BSP/record.c  ****             rec.status == 4 ? "LOST" : "INV");
 196:BSP/record.c  ****         outputCount++;
 197:BSP/record.c  ****     }
 198:BSP/record.c  **** }
 912              		.loc 1 198 1 is_stmt 0 view .LVU215
 913 003a 19B0     		add	sp, sp, #100
 914              	.LCFI16:
 915              		.cfi_remember_state
 916              		.cfi_def_cfa_offset 36
 917              		@ sp needed
 918 003c BDE8F08F 		pop	{r4, r5, r6, r7, r8, r9, r10, fp, pc}
 919              	.LVL60:
 920              	.L77:
 921              	.LCFI17:
 922              		.cfi_restore_state
 923              	.LBB9:
 173:BSP/record.c  ****         W25QXX_Read((uint8_t*)&rec, RECORD_FLASH_ADDR + curOff, RECORD_SIZE);
 924              		.loc 1 173 42 discriminator 2 view .LVU216
 925 0040 4FF47E69 		mov	r9, #4064
 926              	.LVL61:
 173:BSP/record.c  ****         W25QXX_Read((uint8_t*)&rec, RECORD_FLASH_ADDR + curOff, RECORD_SIZE);
 927              		.loc 1 173 42 discriminator 2 view .LVU217
 928 0044 2FE0     		b	.L67
 929              	.LVL62:
 930              	.L69:
 192:BSP/record.c  ****             rec.status == 1 ? "DUP" :
 931              		.loc 1 192 16 view .LVU218
 932 0046 3C4A     		ldr	r2, .L82+12
 933 0048 0AE0     		b	.L73
 934              	.L74:
 192:BSP/record.c  ****             rec.status == 1 ? "DUP" :
 935              		.loc 1 192 35 view .LVU219
 936 004a 9DF85220 		ldrb	r2, [sp, #82]	@ zero_extendqisi2
 192:BSP/record.c  ****             rec.status == 1 ? "DUP" :
 937              		.loc 1 192 58 view .LVU220
 938 004e 002A     		cmp	r2, #0
 939 0050 6AD1     		bne	.L79
 192:BSP/record.c  ****             rec.status == 1 ? "DUP" :
 940              		.loc 1 192 58 discriminator 1 view .LVU221
 941 0052 3A4A     		ldr	r2, .L82+16
 942 0054 04E0     		b	.L73
 943              	.L72:
 192:BSP/record.c  ****             rec.status == 1 ? "DUP" :
 944              		.loc 1 192 16 view .LVU222
 945 0056 3A4A     		ldr	r2, .L82+20
 946 0058 02E0     		b	.L73
ARM GAS  C:\Users\24120\AppData\Local\Temp\cc4pJDvy.s 			page 22


 947              	.L70:
 948 005a 3A4A     		ldr	r2, .L82+24
 949 005c 00E0     		b	.L73
 950              	.L78:
 951 005e 3A4A     		ldr	r2, .L82+28
 952              	.L73:
 183:BSP/record.c  ****             (unsigned long)rec.seqNum,
 953              		.loc 1 183 9 discriminator 1 view .LVU223
 954 0060 0992     		str	r2, [sp, #36]
 955 0062 CDF820C0 		str	ip, [sp, #32]
 956 0066 0797     		str	r7, [sp, #28]
 957 0068 0696     		str	r6, [sp, #24]
 958 006a 0590     		str	r0, [sp, #20]
 959 006c 0491     		str	r1, [sp, #16]
 960 006e 0D9A     		ldr	r2, [sp, #52]
 961 0070 0392     		str	r2, [sp, #12]
 962 0072 0C9A     		ldr	r2, [sp, #48]
 963 0074 0292     		str	r2, [sp, #8]
 964 0076 0B9A     		ldr	r2, [sp, #44]
 965 0078 0192     		str	r2, [sp, #4]
 966 007a CDF800E0 		str	lr, [sp]
 967 007e 0A9B     		ldr	r3, [sp, #40]
 968 0080 2A46     		mov	r2, r5
 969 0082 2146     		mov	r1, r4
 970 0084 3148     		ldr	r0, .L82+32
 971 0086 FFF7FEFF 		bl	printf
 972              	.LVL63:
 196:BSP/record.c  ****     }
 973              		.loc 1 196 9 is_stmt 1 view .LVU224
 196:BSP/record.c  ****     }
 974              		.loc 1 196 20 is_stmt 0 view .LVU225
 975 008a 0BF1010B 		add	fp, fp, #1
 976              	.LVL64:
 977              	.L68:
 171:BSP/record.c  ****         curOff = (curOff >= RECORD_SIZE) ? (curOff - RECORD_SIZE)
 978              		.loc 1 171 70 is_stmt 1 discriminator 2 view .LVU226
 979 008e 08F10108 		add	r8, r8, #1
 980              	.LVL65:
 981              	.L66:
 171:BSP/record.c  ****         curOff = (curOff >= RECORD_SIZE) ? (curOff - RECORD_SIZE)
 982              		.loc 1 171 42 discriminator 1 view .LVU227
 983 0092 B8F17F0F 		cmp	r8, #127
 984 0096 D0DC     		bgt	.L62
 171:BSP/record.c  ****         curOff = (curOff >= RECORD_SIZE) ? (curOff - RECORD_SIZE)
 985              		.loc 1 171 42 is_stmt 0 discriminator 3 view .LVU228
 986 0098 DA45     		cmp	r10, fp
 987 009a CED9     		bls	.L62
 172:BSP/record.c  ****                                          : (RECORD_AREA_SIZE - RECORD_SIZE);
 988              		.loc 1 172 9 is_stmt 1 view .LVU229
 173:BSP/record.c  ****         W25QXX_Read((uint8_t*)&rec, RECORD_FLASH_ADDR + curOff, RECORD_SIZE);
 989              		.loc 1 173 42 is_stmt 0 view .LVU230
 990 009c B9F11F0F 		cmp	r9, #31
 991 00a0 CED9     		bls	.L77
 173:BSP/record.c  ****         W25QXX_Read((uint8_t*)&rec, RECORD_FLASH_ADDR + curOff, RECORD_SIZE);
 992              		.loc 1 173 42 discriminator 1 view .LVU231
 993 00a2 A9F12009 		sub	r9, r9, #32
 994              	.LVL66:
ARM GAS  C:\Users\24120\AppData\Local\Temp\cc4pJDvy.s 			page 23


 995              	.L67:
 174:BSP/record.c  **** 
 996              		.loc 1 174 9 is_stmt 1 view .LVU232
 997 00a6 2022     		movs	r2, #32
 998 00a8 09F54051 		add	r1, r9, #12288
 999 00ac 0FA8     		add	r0, sp, #60
 1000 00ae FFF7FEFF 		bl	W25QXX_Read
 1001              	.LVL67:
 176:BSP/record.c  ****         if (rec.uid == 0) continue;
 1002              		.loc 1 176 9 view .LVU233
 176:BSP/record.c  ****         if (rec.uid == 0) continue;
 1003              		.loc 1 176 16 is_stmt 0 view .LVU234
 1004 00b2 0F9C     		ldr	r4, [sp, #60]
 176:BSP/record.c  ****         if (rec.uid == 0) continue;
 1005              		.loc 1 176 29 view .LVU235
 1006 00b4 631E     		subs	r3, r4, #1
 176:BSP/record.c  ****         if (rec.uid == 0) continue;
 1007              		.loc 1 176 12 view .LVU236
 1008 00b6 13F1030F 		cmn	r3, #3
 1009 00ba E8D8     		bhi	.L68
 177:BSP/record.c  ****         {
 1010              		.loc 1 177 9 is_stmt 1 view .LVU237
 177:BSP/record.c  ****         {
 1011              		.loc 1 177 16 is_stmt 0 view .LVU238
 1012 00bc 119D     		ldr	r5, [sp, #68]
 177:BSP/record.c  ****         {
 1013              		.loc 1 177 12 view .LVU239
 1014 00be 002D     		cmp	r5, #0
 1015 00c0 E5D0     		beq	.L68
 1016              	.LBB7:
 179:BSP/record.c  ****             if (calcCrc != rec.crc16) continue;
 1017              		.loc 1 179 13 is_stmt 1 view .LVU240
 179:BSP/record.c  ****             if (calcCrc != rec.crc16) continue;
 1018              		.loc 1 179 32 is_stmt 0 view .LVU241
 1019 00c2 1E21     		movs	r1, #30
 1020 00c4 0FA8     		add	r0, sp, #60
 1021 00c6 FFF7FEFF 		bl	CRC16_Calc
 1022              	.LVL68:
 180:BSP/record.c  ****         }
 1023              		.loc 1 180 13 is_stmt 1 view .LVU242
 180:BSP/record.c  ****         }
 1024              		.loc 1 180 31 is_stmt 0 view .LVU243
 1025 00ca BDF85A30 		ldrh	r3, [sp, #90]
 180:BSP/record.c  ****         }
 1026              		.loc 1 180 16 view .LVU244
 1027 00ce 8342     		cmp	r3, r0
 1028 00d0 DDD1     		bne	.L68
 1029              	.LBE7:
 183:BSP/record.c  ****             (unsigned long)rec.seqNum,
 1030              		.loc 1 183 9 is_stmt 1 view .LVU245
 186:BSP/record.c  ****             (unsigned)rec.cardType,
 1031              		.loc 1 186 31 is_stmt 0 view .LVU246
 1032 00d2 129B     		ldr	r3, [sp, #72]
 1033 00d4 0A93     		str	r3, [sp, #40]
 187:BSP/record.c  ****             (unsigned)(2000U + rec.year), (unsigned)rec.month, (unsigned)rec.day,
 1034              		.loc 1 187 26 view .LVU247
 1035 00d6 9DF85CE0 		ldrb	lr, [sp, #92]	@ zero_extendqisi2
ARM GAS  C:\Users\24120\AppData\Local\Temp\cc4pJDvy.s 			page 24


 188:BSP/record.c  ****             (unsigned)rec.hour, (unsigned)rec.minute, (unsigned)rec.second,
 1036              		.loc 1 188 35 view .LVU248
 1037 00da 9DF84C20 		ldrb	r2, [sp, #76]	@ zero_extendqisi2
 183:BSP/record.c  ****             (unsigned long)rec.seqNum,
 1038              		.loc 1 183 9 view .LVU249
 1039 00de 02F5FA62 		add	r2, r2, #2000
 1040 00e2 0B92     		str	r2, [sp, #44]
 188:BSP/record.c  ****             (unsigned)rec.hour, (unsigned)rec.minute, (unsigned)rec.second,
 1041              		.loc 1 188 56 view .LVU250
 1042 00e4 9DF84D20 		ldrb	r2, [sp, #77]	@ zero_extendqisi2
 1043 00e8 0C92     		str	r2, [sp, #48]
 188:BSP/record.c  ****             (unsigned)rec.hour, (unsigned)rec.minute, (unsigned)rec.second,
 1044              		.loc 1 188 77 view .LVU251
 1045 00ea 9DF84E20 		ldrb	r2, [sp, #78]	@ zero_extendqisi2
 1046 00ee 0D92     		str	r2, [sp, #52]
 189:BSP/record.c  ****             (unsigned)rec.deviceId,
 1047              		.loc 1 189 26 view .LVU252
 1048 00f0 9DF84F10 		ldrb	r1, [sp, #79]	@ zero_extendqisi2
 189:BSP/record.c  ****             (unsigned)rec.deviceId,
 1049              		.loc 1 189 46 view .LVU253
 1050 00f4 9DF85000 		ldrb	r0, [sp, #80]	@ zero_extendqisi2
 1051              	.LVL69:
 189:BSP/record.c  ****             (unsigned)rec.deviceId,
 1052              		.loc 1 189 68 view .LVU254
 1053 00f8 9DF85160 		ldrb	r6, [sp, #81]	@ zero_extendqisi2
 190:BSP/record.c  ****             (int)(int16_t)rec.timeOffset,
 1054              		.loc 1 190 26 view .LVU255
 1055 00fc BDF84070 		ldrh	r7, [sp, #64]
 191:BSP/record.c  ****             rec.status == 0 ? (rec.eventType == 0 ? "IN" : "OUT") :
 1056              		.loc 1 191 18 view .LVU256
 1057 0100 BDF958C0 		ldrsh	ip, [sp, #88]
 192:BSP/record.c  ****             rec.status == 1 ? "DUP" :
 1058              		.loc 1 192 16 view .LVU257
 1059 0104 9DF85320 		ldrb	r2, [sp, #83]	@ zero_extendqisi2
 1060 0108 042A     		cmp	r2, #4
 1061 010a 9CD8     		bhi	.L69
 1062 010c 01A3     		adr	r3, .L71
 1063 010e 53F822F0 		ldr	pc, [r3, r2, lsl #2]
 1064 0112 00BF     		.p2align 2
 1065              	.L71:
 1066 0114 4B000000 		.word	.L74+1
 1067 0118 5F000000 		.word	.L78+1
 1068 011c 57000000 		.word	.L72+1
 1069 0120 47000000 		.word	.L69+1
 1070 0124 5B000000 		.word	.L70+1
 1071              		.p2align 1
 1072              	.L79:
 192:BSP/record.c  ****             rec.status == 1 ? "DUP" :
 1073              		.loc 1 192 58 discriminator 2 view .LVU258
 1074 0128 094A     		ldr	r2, .L82+36
 1075 012a 99E7     		b	.L73
 1076              	.L83:
 1077              		.align	2
 1078              	.L82:
 1079 012c 00000000 		.word	s_recHead
 1080 0130 28000000 		.word	.LC7
 1081 0134 20000000 		.word	.LC6
ARM GAS  C:\Users\24120\AppData\Local\Temp\cc4pJDvy.s 			page 25


 1082 0138 10000000 		.word	.LC3
 1083 013c 1C000000 		.word	.LC5
 1084 0140 08000000 		.word	.LC2
 1085 0144 14000000 		.word	.LC4
 1086 0148 04000000 		.word	.LC1
 1087 014c 34000000 		.word	.LC8
 1088 0150 00000000 		.word	.LC0
 1089              	.LBE9:
 1090              		.cfi_endproc
 1091              	.LFE256:
 1093              		.section	.text.Record_MarkAllUploaded,"ax",%progbits
 1094              		.align	1
 1095              		.global	Record_MarkAllUploaded
 1096              		.syntax unified
 1097              		.thumb
 1098              		.thumb_func
 1100              	Record_MarkAllUploaded:
 1101              	.LFB257:
 199:BSP/record.c  **** 
 200:BSP/record.c  **** void Record_MarkAllUploaded(void)
 201:BSP/record.c  **** {
 1102              		.loc 1 201 1 is_stmt 1 view -0
 1103              		.cfi_startproc
 1104              		@ args = 0, pretend = 0, frame = 0
 1105              		@ frame_needed = 0, uses_anonymous_args = 0
 1106 0000 10B5     		push	{r4, lr}
 1107              	.LCFI18:
 1108              		.cfi_def_cfa_offset 8
 1109              		.cfi_offset 4, -8
 1110              		.cfi_offset 14, -4
 202:BSP/record.c  ****     s_recHead.uploadOffset = s_recHead.totalCount;
 1111              		.loc 1 202 5 view .LVU260
 1112              		.loc 1 202 39 is_stmt 0 view .LVU261
 1113 0002 0A4C     		ldr	r4, .L86
 1114 0004 A368     		ldr	r3, [r4, #8]
 1115              		.loc 1 202 28 view .LVU262
 1116 0006 E360     		str	r3, [r4, #12]
 203:BSP/record.c  ****     /* 隙迡芛窒善 Flash */
 204:BSP/record.c  ****     W25QXX_Erase_Sector(RECHEAD_FLASH_ADDR / 4096);
 1117              		.loc 1 204 5 is_stmt 1 view .LVU263
 1118 0008 0220     		movs	r0, #2
 1119 000a FFF7FEFF 		bl	W25QXX_Erase_Sector
 1120              	.LVL70:
 205:BSP/record.c  ****     s_recHead.checksum = (uint16_t)(s_recHead.writeOffset ^ s_recHead.totalCount
 1121              		.loc 1 205 5 view .LVU264
 1122              		.loc 1 205 46 is_stmt 0 view .LVU265
 1123 000e 6368     		ldr	r3, [r4, #4]
 1124              		.loc 1 205 70 view .LVU266
 1125 0010 A268     		ldr	r2, [r4, #8]
 1126              		.loc 1 205 59 view .LVU267
 1127 0012 5340     		eors	r3, r3, r2
 1128 0014 9BB2     		uxth	r3, r3
 206:BSP/record.c  ****                                     ^ s_recHead.uploadOffset);
 1129              		.loc 1 206 48 view .LVU268
 1130 0016 E268     		ldr	r2, [r4, #12]
 205:BSP/record.c  ****     s_recHead.checksum = (uint16_t)(s_recHead.writeOffset ^ s_recHead.totalCount
 1131              		.loc 1 205 26 view .LVU269
ARM GAS  C:\Users\24120\AppData\Local\Temp\cc4pJDvy.s 			page 26


 1132 0018 5340     		eors	r3, r3, r2
 205:BSP/record.c  ****     s_recHead.checksum = (uint16_t)(s_recHead.writeOffset ^ s_recHead.totalCount
 1133              		.loc 1 205 24 view .LVU270
 1134 001a 2382     		strh	r3, [r4, #16]	@ movhi
 207:BSP/record.c  ****     W25QXX_Write((uint8_t*)&s_recHead, RECHEAD_FLASH_ADDR, sizeof(s_recHead));
 1135              		.loc 1 207 5 is_stmt 1 view .LVU271
 1136 001c 2022     		movs	r2, #32
 1137 001e 4FF40051 		mov	r1, #8192
 1138 0022 2046     		mov	r0, r4
 1139 0024 FFF7FEFF 		bl	W25QXX_Write
 1140              	.LVL71:
 208:BSP/record.c  **** }
 1141              		.loc 1 208 1 is_stmt 0 view .LVU272
 1142 0028 10BD     		pop	{r4, pc}
 1143              	.L87:
 1144 002a 00BF     		.align	2
 1145              	.L86:
 1146 002c 00000000 		.word	s_recHead
 1147              		.cfi_endproc
 1148              	.LFE257:
 1150              		.section	.text.Record_GetUnuploadCount,"ax",%progbits
 1151              		.align	1
 1152              		.global	Record_GetUnuploadCount
 1153              		.syntax unified
 1154              		.thumb
 1155              		.thumb_func
 1157              	Record_GetUnuploadCount:
 1158              	.LFB258:
 209:BSP/record.c  **** 
 210:BSP/record.c  **** uint32_t Record_GetUnuploadCount(void)
 211:BSP/record.c  **** {
 1159              		.loc 1 211 1 is_stmt 1 view -0
 1160              		.cfi_startproc
 1161              		@ args = 0, pretend = 0, frame = 0
 1162              		@ frame_needed = 0, uses_anonymous_args = 0
 1163              		@ link register save eliminated.
 212:BSP/record.c  ****     if (s_recHead.totalCount >= s_recHead.uploadOffset)
 1164              		.loc 1 212 5 view .LVU274
 1165              		.loc 1 212 18 is_stmt 0 view .LVU275
 1166 0000 044B     		ldr	r3, .L92
 1167 0002 9868     		ldr	r0, [r3, #8]
 1168              		.loc 1 212 42 view .LVU276
 1169 0004 DB68     		ldr	r3, [r3, #12]
 1170              		.loc 1 212 8 view .LVU277
 1171 0006 9842     		cmp	r0, r3
 1172 0008 01D2     		bcs	.L91
 213:BSP/record.c  ****         return s_recHead.totalCount - s_recHead.uploadOffset;
 214:BSP/record.c  ****     return 0;
 1173              		.loc 1 214 12 view .LVU278
 1174 000a 0020     		movs	r0, #0
 215:BSP/record.c  **** }
 1175              		.loc 1 215 1 view .LVU279
 1176 000c 7047     		bx	lr
 1177              	.L91:
 213:BSP/record.c  ****         return s_recHead.totalCount - s_recHead.uploadOffset;
 1178              		.loc 1 213 9 is_stmt 1 view .LVU280
 213:BSP/record.c  ****         return s_recHead.totalCount - s_recHead.uploadOffset;
ARM GAS  C:\Users\24120\AppData\Local\Temp\cc4pJDvy.s 			page 27


 1179              		.loc 1 213 37 is_stmt 0 view .LVU281
 1180 000e C01A     		subs	r0, r0, r3
 1181 0010 7047     		bx	lr
 1182              	.L93:
 1183 0012 00BF     		.align	2
 1184              	.L92:
 1185 0014 00000000 		.word	s_recHead
 1186              		.cfi_endproc
 1187              	.LFE258:
 1189              		.section	.rodata.Record_FixAllTimeOffsets.str1.4,"aMS",%progbits,1
 1190              		.align	2
 1191              	.LC9:
 1192 0000 5B526563 		.ascii	"[Record] Fixed %d records, OFS=%d\015\012\000"
 1192      6F72645D 
 1192      20466978 
 1192      65642025 
 1192      64207265 
 1193              		.section	.text.Record_FixAllTimeOffsets,"ax",%progbits
 1194              		.align	1
 1195              		.global	Record_FixAllTimeOffsets
 1196              		.syntax unified
 1197              		.thumb
 1198              		.thumb_func
 1200              	Record_FixAllTimeOffsets:
 1201              	.LVL72:
 1202              	.LFB259:
 216:BSP/record.c  **** 
 217:BSP/record.c  **** void Record_FixAllTimeOffsets(int32_t deltaSecs)
 218:BSP/record.c  **** {
 1203              		.loc 1 218 1 is_stmt 1 view -0
 1204              		.cfi_startproc
 1205              		@ args = 0, pretend = 0, frame = 0
 1206              		@ frame_needed = 0, uses_anonymous_args = 0
 219:BSP/record.c  ****     static uint8_t sectorBuf[RECORD_AREA_SIZE];
 1207              		.loc 1 219 5 view .LVU283
 220:BSP/record.c  ****     uint16_t i;
 1208              		.loc 1 220 5 view .LVU284
 221:BSP/record.c  ****     int fixed = 0;
 1209              		.loc 1 221 5 view .LVU285
 222:BSP/record.c  **** 
 223:BSP/record.c  ****     if (deltaSecs == 0) return;
 1210              		.loc 1 223 5 view .LVU286
 1211              		.loc 1 223 8 is_stmt 0 view .LVU287
 1212 0000 00B9     		cbnz	r0, .L104
 1213 0002 7047     		bx	lr
 1214              	.L104:
 218:BSP/record.c  ****     static uint8_t sectorBuf[RECORD_AREA_SIZE];
 1215              		.loc 1 218 1 view .LVU288
 1216 0004 F8B5     		push	{r3, r4, r5, r6, r7, lr}
 1217              	.LCFI19:
 1218              		.cfi_def_cfa_offset 24
 1219              		.cfi_offset 3, -24
 1220              		.cfi_offset 4, -20
 1221              		.cfi_offset 5, -16
 1222              		.cfi_offset 6, -12
 1223              		.cfi_offset 7, -8
 1224              		.cfi_offset 14, -4
ARM GAS  C:\Users\24120\AppData\Local\Temp\cc4pJDvy.s 			page 28


 1225 0006 0746     		mov	r7, r0
 224:BSP/record.c  **** 
 225:BSP/record.c  ****     W25QXX_Read(sectorBuf, RECORD_FLASH_ADDR, RECORD_AREA_SIZE);
 1226              		.loc 1 225 5 is_stmt 1 view .LVU289
 1227 0008 4FF48052 		mov	r2, #4096
 1228 000c 4FF44051 		mov	r1, #12288
 1229 0010 1E48     		ldr	r0, .L107
 1230              	.LVL73:
 1231              		.loc 1 225 5 is_stmt 0 view .LVU290
 1232 0012 FFF7FEFF 		bl	W25QXX_Read
 1233              	.LVL74:
 226:BSP/record.c  **** 
 227:BSP/record.c  ****     for (i = 0; i < REC_PER_SECTOR; i++) {
 1234              		.loc 1 227 5 is_stmt 1 view .LVU291
 221:BSP/record.c  **** 
 1235              		.loc 1 221 9 is_stmt 0 view .LVU292
 1236 0016 0026     		movs	r6, #0
 1237              		.loc 1 227 12 view .LVU293
 1238 0018 3446     		mov	r4, r6
 1239              		.loc 1 227 5 view .LVU294
 1240 001a 01E0     		b	.L96
 1241              	.LVL75:
 1242              	.L97:
 1243              		.loc 1 227 38 is_stmt 1 discriminator 2 view .LVU295
 1244 001c 0134     		adds	r4, r4, #1
 1245              	.LVL76:
 1246              		.loc 1 227 38 is_stmt 0 discriminator 2 view .LVU296
 1247 001e A4B2     		uxth	r4, r4
 1248              	.LVL77:
 1249              	.L96:
 1250              		.loc 1 227 19 is_stmt 1 discriminator 1 view .LVU297
 1251 0020 7F2C     		cmp	r4, #127
 1252 0022 1FD8     		bhi	.L105
 1253              	.LBB10:
 228:BSP/record.c  ****         SwipeRecord_t *rec = (SwipeRecord_t *)(sectorBuf + i * RECORD_SIZE);
 1254              		.loc 1 228 9 view .LVU298
 1255              		.loc 1 228 62 is_stmt 0 view .LVU299
 1256 0024 6301     		lsls	r3, r4, #5
 1257              		.loc 1 228 24 view .LVU300
 1258 0026 194A     		ldr	r2, .L107
 1259 0028 02EB4415 		add	r5, r2, r4, lsl #5
 1260              	.LVL78:
 229:BSP/record.c  **** 
 230:BSP/record.c  ****         if (rec->seqNum == 0 || rec->seqNum == 0xFFFFFFFFU || rec->uid == 0)
 1261              		.loc 1 230 9 is_stmt 1 view .LVU301
 1262              		.loc 1 230 16 is_stmt 0 view .LVU302
 1263 002c D358     		ldr	r3, [r2, r3]
 1264              		.loc 1 230 30 view .LVU303
 1265 002e 013B     		subs	r3, r3, #1
 1266              		.loc 1 230 12 view .LVU304
 1267 0030 13F1030F 		cmn	r3, #3
 1268 0034 F2D8     		bhi	.L97
 1269              		.loc 1 230 66 discriminator 2 view .LVU305
 1270 0036 AB68     		ldr	r3, [r5, #8]
 1271              		.loc 1 230 60 discriminator 2 view .LVU306
 1272 0038 002B     		cmp	r3, #0
 1273 003a EFD0     		beq	.L97
ARM GAS  C:\Users\24120\AppData\Local\Temp\cc4pJDvy.s 			page 29


 231:BSP/record.c  ****             continue;
 232:BSP/record.c  **** 
 233:BSP/record.c  ****         uint16_t calcCrc = CRC16_Calc((uint8_t*)rec, 30);
 1274              		.loc 1 233 9 is_stmt 1 view .LVU307
 1275              		.loc 1 233 28 is_stmt 0 view .LVU308
 1276 003c 1E21     		movs	r1, #30
 1277 003e 2846     		mov	r0, r5
 1278 0040 FFF7FEFF 		bl	CRC16_Calc
 1279              	.LVL79:
 234:BSP/record.c  ****         if (calcCrc != rec->crc16) continue;
 1280              		.loc 1 234 9 is_stmt 1 view .LVU309
 1281              		.loc 1 234 27 is_stmt 0 view .LVU310
 1282 0044 EB8B     		ldrh	r3, [r5, #30]
 1283              		.loc 1 234 12 view .LVU311
 1284 0046 8342     		cmp	r3, r0
 1285 0048 E8D1     		bne	.L97
 235:BSP/record.c  **** 
 236:BSP/record.c  ****         if (rec->timeOffset != 0xFFFF) continue;
 1286              		.loc 1 236 9 is_stmt 1 view .LVU312
 1287              		.loc 1 236 16 is_stmt 0 view .LVU313
 1288 004a AA8B     		ldrh	r2, [r5, #28]
 1289              		.loc 1 236 12 view .LVU314
 1290 004c 4FF6FF73 		movw	r3, #65535
 1291 0050 9A42     		cmp	r2, r3
 1292 0052 E3D1     		bne	.L97
 237:BSP/record.c  **** 
 238:BSP/record.c  ****         rec->timeOffset = (uint16_t)(int16_t)deltaSecs;
 1293              		.loc 1 238 9 is_stmt 1 view .LVU315
 1294              		.loc 1 238 25 is_stmt 0 view .LVU316
 1295 0054 AF83     		strh	r7, [r5, #28]	@ movhi
 239:BSP/record.c  ****         rec->crc16 = CRC16_Calc((uint8_t*)rec, 30);
 1296              		.loc 1 239 9 is_stmt 1 view .LVU317
 1297              		.loc 1 239 22 is_stmt 0 view .LVU318
 1298 0056 1E21     		movs	r1, #30
 1299 0058 2846     		mov	r0, r5
 1300              	.LVL80:
 1301              		.loc 1 239 22 view .LVU319
 1302 005a FFF7FEFF 		bl	CRC16_Calc
 1303              	.LVL81:
 1304              		.loc 1 239 20 discriminator 1 view .LVU320
 1305 005e E883     		strh	r0, [r5, #30]	@ movhi
 240:BSP/record.c  ****         fixed++;
 1306              		.loc 1 240 9 is_stmt 1 view .LVU321
 1307              		.loc 1 240 14 is_stmt 0 view .LVU322
 1308 0060 0136     		adds	r6, r6, #1
 1309              	.LVL82:
 1310              		.loc 1 240 14 view .LVU323
 1311 0062 DBE7     		b	.L97
 1312              	.LVL83:
 1313              	.L105:
 1314              		.loc 1 240 14 view .LVU324
 1315              	.LBE10:
 241:BSP/record.c  ****     }
 242:BSP/record.c  **** 
 243:BSP/record.c  ****     if (fixed > 0) {
 1316              		.loc 1 243 5 is_stmt 1 view .LVU325
 1317              		.loc 1 243 8 is_stmt 0 view .LVU326
ARM GAS  C:\Users\24120\AppData\Local\Temp\cc4pJDvy.s 			page 30


 1318 0064 002E     		cmp	r6, #0
 1319 0066 05DC     		bgt	.L106
 1320              	.L99:
 244:BSP/record.c  ****         W25QXX_Erase_Sector(RECORD_FLASH_ADDR);
 245:BSP/record.c  ****         W25QXX_Write(sectorBuf, RECORD_FLASH_ADDR, RECORD_AREA_SIZE);
 246:BSP/record.c  ****     }
 247:BSP/record.c  **** 
 248:BSP/record.c  ****     printf("[Record] Fixed %d records, OFS=%d\r\n", fixed, (int)deltaSecs);
 1321              		.loc 1 248 5 is_stmt 1 view .LVU327
 1322 0068 3A46     		mov	r2, r7
 1323 006a 3146     		mov	r1, r6
 1324 006c 0848     		ldr	r0, .L107+4
 1325 006e FFF7FEFF 		bl	printf
 1326              	.LVL84:
 249:BSP/record.c  **** }
 1327              		.loc 1 249 1 is_stmt 0 view .LVU328
 1328 0072 F8BD     		pop	{r3, r4, r5, r6, r7, pc}
 1329              	.LVL85:
 1330              	.L106:
 244:BSP/record.c  ****         W25QXX_Erase_Sector(RECORD_FLASH_ADDR);
 1331              		.loc 1 244 9 is_stmt 1 view .LVU329
 1332 0074 4FF44050 		mov	r0, #12288
 1333 0078 FFF7FEFF 		bl	W25QXX_Erase_Sector
 1334              	.LVL86:
 245:BSP/record.c  ****     }
 1335              		.loc 1 245 9 view .LVU330
 1336 007c 4FF48052 		mov	r2, #4096
 1337 0080 4FF44051 		mov	r1, #12288
 1338 0084 0148     		ldr	r0, .L107
 1339 0086 FFF7FEFF 		bl	W25QXX_Write
 1340              	.LVL87:
 1341 008a EDE7     		b	.L99
 1342              	.L108:
 1343              		.align	2
 1344              	.L107:
 1345 008c 00000000 		.word	sectorBuf.0
 1346 0090 00000000 		.word	.LC9
 1347              		.cfi_endproc
 1348              	.LFE259:
 1350              		.section	.text.Cache_Find,"ax",%progbits
 1351              		.align	1
 1352              		.global	Cache_Find
 1353              		.syntax unified
 1354              		.thumb
 1355              		.thumb_func
 1357              	Cache_Find:
 1358              	.LVL88:
 1359              	.LFB260:
 250:BSP/record.c  **** 
 251:BSP/record.c  **** /* ====== LRU 遣湔 ====== */
 252:BSP/record.c  **** 
 253:BSP/record.c  **** uint8_t Cache_Find(uint32_t cardId, uint32_t *pEnterSecs)
 254:BSP/record.c  **** {
 1360              		.loc 1 254 1 view -0
 1361              		.cfi_startproc
 1362              		@ args = 0, pretend = 0, frame = 0
 1363              		@ frame_needed = 0, uses_anonymous_args = 0
ARM GAS  C:\Users\24120\AppData\Local\Temp\cc4pJDvy.s 			page 31


 1364              		.loc 1 254 1 is_stmt 0 view .LVU332
 1365 0000 70B5     		push	{r4, r5, r6, lr}
 1366              	.LCFI20:
 1367              		.cfi_def_cfa_offset 16
 1368              		.cfi_offset 4, -16
 1369              		.cfi_offset 5, -12
 1370              		.cfi_offset 6, -8
 1371              		.cfi_offset 14, -4
 1372 0002 0546     		mov	r5, r0
 1373 0004 0E46     		mov	r6, r1
 255:BSP/record.c  ****     uint32_t now = osKernelGetTickCount();
 1374              		.loc 1 255 5 is_stmt 1 view .LVU333
 1375              		.loc 1 255 20 is_stmt 0 view .LVU334
 1376 0006 FFF7FEFF 		bl	osKernelGetTickCount
 1377              	.LVL89:
 256:BSP/record.c  ****     int i;
 1378              		.loc 1 256 5 is_stmt 1 view .LVU335
 257:BSP/record.c  ****     if (cardId == 0) return CACHE_MISS;
 1379              		.loc 1 257 5 view .LVU336
 1380              		.loc 1 257 8 is_stmt 0 view .LVU337
 1381 000a C5B1     		cbz	r5, .L115
 258:BSP/record.c  ****     for (i = 0; i < CARD_CACHE_SIZE; i++) {
 1382              		.loc 1 258 12 view .LVU338
 1383 000c 0023     		movs	r3, #0
 1384              	.L111:
 1385              	.LVL90:
 1386              		.loc 1 258 19 is_stmt 1 discriminator 1 view .LVU339
 1387 000e 1F2B     		cmp	r3, #31
 1388 0010 13DC     		bgt	.L117
 259:BSP/record.c  ****         if (s_cardCache[i].cardId == cardId) {
 1389              		.loc 1 259 9 view .LVU340
 1390              		.loc 1 259 27 is_stmt 0 view .LVU341
 1391 0012 1A01     		lsls	r2, r3, #4
 1392 0014 0B4C     		ldr	r4, .L119
 1393 0016 A258     		ldr	r2, [r4, r2]
 1394              		.loc 1 259 12 view .LVU342
 1395 0018 AA42     		cmp	r2, r5
 1396 001a 01D0     		beq	.L118
 258:BSP/record.c  ****     for (i = 0; i < CARD_CACHE_SIZE; i++) {
 1397              		.loc 1 258 39 is_stmt 1 discriminator 2 view .LVU343
 1398 001c 0133     		adds	r3, r3, #1
 1399              	.LVL91:
 258:BSP/record.c  ****     for (i = 0; i < CARD_CACHE_SIZE; i++) {
 1400              		.loc 1 258 39 is_stmt 0 discriminator 2 view .LVU344
 1401 001e F6E7     		b	.L111
 1402              	.LVL92:
 1403              	.L118:
 260:BSP/record.c  ****             s_cardCache[i].accessTick = now;
 1404              		.loc 1 260 13 is_stmt 1 view .LVU345
 1405              		.loc 1 260 39 is_stmt 0 view .LVU346
 1406 0020 04EB0312 		add	r2, r4, r3, lsl #4
 1407 0024 D060     		str	r0, [r2, #12]
 261:BSP/record.c  ****             if (pEnterSecs) *pEnterSecs = s_cardCache[i].enterSecs;
 1408              		.loc 1 261 13 is_stmt 1 view .LVU347
 1409              		.loc 1 261 16 is_stmt 0 view .LVU348
 1410 0026 1EB1     		cbz	r6, .L113
 1411              		.loc 1 261 29 is_stmt 1 discriminator 1 view .LVU349
ARM GAS  C:\Users\24120\AppData\Local\Temp\cc4pJDvy.s 			page 32


 1412              		.loc 1 261 57 is_stmt 0 discriminator 1 view .LVU350
 1413 0028 04EB0312 		add	r2, r4, r3, lsl #4
 1414 002c 9268     		ldr	r2, [r2, #8]
 1415              		.loc 1 261 41 discriminator 1 view .LVU351
 1416 002e 3260     		str	r2, [r6]
 1417              	.L113:
 262:BSP/record.c  ****             return s_cardCache[i].eventType;
 1418              		.loc 1 262 13 is_stmt 1 view .LVU352
 1419              		.loc 1 262 34 is_stmt 0 view .LVU353
 1420 0030 044A     		ldr	r2, .L119
 1421 0032 02EB0313 		add	r3, r2, r3, lsl #4
 1422              	.LVL93:
 1423              		.loc 1 262 34 view .LVU354
 1424 0036 1879     		ldrb	r0, [r3, #4]	@ zero_extendqisi2
 1425              	.LVL94:
 1426              	.L110:
 263:BSP/record.c  ****         }
 264:BSP/record.c  ****     }
 265:BSP/record.c  ****     return CACHE_MISS;
 266:BSP/record.c  **** }
 1427              		.loc 1 266 1 view .LVU355
 1428 0038 70BD     		pop	{r4, r5, r6, pc}
 1429              	.LVL95:
 1430              	.L117:
 265:BSP/record.c  **** }
 1431              		.loc 1 265 12 view .LVU356
 1432 003a FF20     		movs	r0, #255
 1433              	.LVL96:
 265:BSP/record.c  **** }
 1434              		.loc 1 265 12 view .LVU357
 1435 003c FCE7     		b	.L110
 1436              	.LVL97:
 1437              	.L115:
 257:BSP/record.c  ****     for (i = 0; i < CARD_CACHE_SIZE; i++) {
 1438              		.loc 1 257 29 discriminator 1 view .LVU358
 1439 003e FF20     		movs	r0, #255
 1440              	.LVL98:
 257:BSP/record.c  ****     for (i = 0; i < CARD_CACHE_SIZE; i++) {
 1441              		.loc 1 257 29 discriminator 1 view .LVU359
 1442 0040 FAE7     		b	.L110
 1443              	.L120:
 1444 0042 00BF     		.align	2
 1445              	.L119:
 1446 0044 00000000 		.word	s_cardCache
 1447              		.cfi_endproc
 1448              	.LFE260:
 1450              		.section	.text.Cache_Update,"ax",%progbits
 1451              		.align	1
 1452              		.global	Cache_Update
 1453              		.syntax unified
 1454              		.thumb
 1455              		.thumb_func
 1457              	Cache_Update:
 1458              	.LVL99:
 1459              	.LFB261:
 267:BSP/record.c  **** 
 268:BSP/record.c  **** void Cache_Update(uint32_t cardId, uint8_t eventType, uint32_t enterSecs)
ARM GAS  C:\Users\24120\AppData\Local\Temp\cc4pJDvy.s 			page 33


 269:BSP/record.c  **** {
 1460              		.loc 1 269 1 is_stmt 1 view -0
 1461              		.cfi_startproc
 1462              		@ args = 0, pretend = 0, frame = 0
 1463              		@ frame_needed = 0, uses_anonymous_args = 0
 1464              		.loc 1 269 1 is_stmt 0 view .LVU361
 1465 0000 F8B5     		push	{r3, r4, r5, r6, r7, lr}
 1466              	.LCFI21:
 1467              		.cfi_def_cfa_offset 24
 1468              		.cfi_offset 3, -24
 1469              		.cfi_offset 4, -20
 1470              		.cfi_offset 5, -16
 1471              		.cfi_offset 6, -12
 1472              		.cfi_offset 7, -8
 1473              		.cfi_offset 14, -4
 1474 0002 0546     		mov	r5, r0
 1475 0004 0F46     		mov	r7, r1
 1476 0006 1646     		mov	r6, r2
 270:BSP/record.c  ****     uint32_t now = osKernelGetTickCount();
 1477              		.loc 1 270 5 is_stmt 1 view .LVU362
 1478              		.loc 1 270 20 is_stmt 0 view .LVU363
 1479 0008 FFF7FEFF 		bl	osKernelGetTickCount
 1480              	.LVL100:
 271:BSP/record.c  ****     int i, target = -1;
 1481              		.loc 1 271 5 is_stmt 1 view .LVU364
 272:BSP/record.c  **** 
 273:BSP/record.c  ****     if (cardId == 0) return;
 1482              		.loc 1 273 5 view .LVU365
 1483              		.loc 1 273 8 is_stmt 0 view .LVU366
 1484 000c 8DB1     		cbz	r5, .L121
 274:BSP/record.c  **** 
 275:BSP/record.c  ****     for (i = 0; i < CARD_CACHE_SIZE; i++) {
 1485              		.loc 1 275 12 view .LVU367
 1486 000e 0023     		movs	r3, #0
 1487              	.L123:
 1488              	.LVL101:
 1489              		.loc 1 275 19 is_stmt 1 discriminator 1 view .LVU368
 1490 0010 1F2B     		cmp	r3, #31
 1491 0012 0FDC     		bgt	.L136
 276:BSP/record.c  ****         if (s_cardCache[i].cardId == cardId) {
 1492              		.loc 1 276 9 view .LVU369
 1493              		.loc 1 276 27 is_stmt 0 view .LVU370
 1494 0014 4FEA031C 		lsl	ip, r3, #4
 1495 0018 1B4C     		ldr	r4, .L141
 1496 001a 54F80C40 		ldr	r4, [r4, ip]
 1497              		.loc 1 276 12 view .LVU371
 1498 001e AC42     		cmp	r4, r5
 1499 0020 01D0     		beq	.L137
 275:BSP/record.c  ****         if (s_cardCache[i].cardId == cardId) {
 1500              		.loc 1 275 39 is_stmt 1 discriminator 2 view .LVU372
 1501 0022 0133     		adds	r3, r3, #1
 1502              	.LVL102:
 275:BSP/record.c  ****         if (s_cardCache[i].cardId == cardId) {
 1503              		.loc 1 275 39 is_stmt 0 discriminator 2 view .LVU373
 1504 0024 F4E7     		b	.L123
 1505              	.LVL103:
 1506              	.L137:
ARM GAS  C:\Users\24120\AppData\Local\Temp\cc4pJDvy.s 			page 34


 277:BSP/record.c  ****             s_cardCache[i].eventType  = eventType;
 1507              		.loc 1 277 13 is_stmt 1 view .LVU374
 1508              		.loc 1 277 39 is_stmt 0 view .LVU375
 1509 0026 184A     		ldr	r2, .L141
 1510 0028 02EB0313 		add	r3, r2, r3, lsl #4
 1511              	.LVL104:
 1512              		.loc 1 277 39 view .LVU376
 1513 002c 1F71     		strb	r7, [r3, #4]
 278:BSP/record.c  ****             s_cardCache[i].enterSecs  = enterSecs;
 1514              		.loc 1 278 13 is_stmt 1 view .LVU377
 1515              		.loc 1 278 39 is_stmt 0 view .LVU378
 1516 002e 9E60     		str	r6, [r3, #8]
 279:BSP/record.c  ****             s_cardCache[i].accessTick = now;
 1517              		.loc 1 279 13 is_stmt 1 view .LVU379
 1518              		.loc 1 279 39 is_stmt 0 view .LVU380
 1519 0030 D860     		str	r0, [r3, #12]
 280:BSP/record.c  ****             return;
 1520              		.loc 1 280 13 is_stmt 1 view .LVU381
 1521              	.LVL105:
 1522              	.L121:
 281:BSP/record.c  ****         }
 282:BSP/record.c  ****     }
 283:BSP/record.c  **** 
 284:BSP/record.c  ****     for (i = 0; i < CARD_CACHE_SIZE; i++) {
 285:BSP/record.c  ****         if (s_cardCache[i].cardId == 0) { target = i; break; }
 286:BSP/record.c  ****     }
 287:BSP/record.c  **** 
 288:BSP/record.c  ****     if (target < 0) {
 289:BSP/record.c  ****         uint32_t oldestTick = 0xFFFFFFFFU;
 290:BSP/record.c  ****         for (i = 0; i < CARD_CACHE_SIZE; i++) {
 291:BSP/record.c  ****             if (s_cardCache[i].accessTick < oldestTick) {
 292:BSP/record.c  ****                 oldestTick = s_cardCache[i].accessTick;
 293:BSP/record.c  ****                 target = i;
 294:BSP/record.c  ****             }
 295:BSP/record.c  ****         }
 296:BSP/record.c  ****     }
 297:BSP/record.c  **** 
 298:BSP/record.c  ****     if (target >= 0) {
 299:BSP/record.c  ****         s_cardCache[target].cardId     = cardId;
 300:BSP/record.c  ****         s_cardCache[target].eventType  = eventType;
 301:BSP/record.c  ****         s_cardCache[target].enterSecs  = enterSecs;
 302:BSP/record.c  ****         s_cardCache[target].accessTick = now;
 303:BSP/record.c  ****     }
 304:BSP/record.c  **** }
 1523              		.loc 1 304 1 is_stmt 0 view .LVU382
 1524 0032 F8BD     		pop	{r3, r4, r5, r6, r7, pc}
 1525              	.LVL106:
 1526              	.L136:
 284:BSP/record.c  ****         if (s_cardCache[i].cardId == 0) { target = i; break; }
 1527              		.loc 1 284 12 view .LVU383
 1528 0034 0022     		movs	r2, #0
 1529              	.LVL107:
 1530              	.L126:
 284:BSP/record.c  ****         if (s_cardCache[i].cardId == 0) { target = i; break; }
 1531              		.loc 1 284 19 is_stmt 1 discriminator 1 view .LVU384
 1532 0036 1F2A     		cmp	r2, #31
 1533 0038 05DC     		bgt	.L138
ARM GAS  C:\Users\24120\AppData\Local\Temp\cc4pJDvy.s 			page 35


 285:BSP/record.c  ****     }
 1534              		.loc 1 285 9 view .LVU385
 285:BSP/record.c  ****     }
 1535              		.loc 1 285 27 is_stmt 0 view .LVU386
 1536 003a 1301     		lsls	r3, r2, #4
 1537 003c 1249     		ldr	r1, .L141
 1538 003e CB58     		ldr	r3, [r1, r3]
 285:BSP/record.c  ****     }
 1539              		.loc 1 285 12 view .LVU387
 1540 0040 1BB1     		cbz	r3, .L127
 284:BSP/record.c  ****         if (s_cardCache[i].cardId == 0) { target = i; break; }
 1541              		.loc 1 284 39 is_stmt 1 discriminator 2 view .LVU388
 1542 0042 0132     		adds	r2, r2, #1
 1543              	.LVL108:
 284:BSP/record.c  ****         if (s_cardCache[i].cardId == 0) { target = i; break; }
 1544              		.loc 1 284 39 is_stmt 0 discriminator 2 view .LVU389
 1545 0044 F7E7     		b	.L126
 1546              	.LVL109:
 1547              	.L138:
 271:BSP/record.c  **** 
 1548              		.loc 1 271 12 view .LVU390
 1549 0046 4FF0FF32 		mov	r2, #-1
 1550              	.LVL110:
 1551              	.L127:
 288:BSP/record.c  ****         uint32_t oldestTick = 0xFFFFFFFFU;
 1552              		.loc 1 288 5 is_stmt 1 view .LVU391
 288:BSP/record.c  ****         uint32_t oldestTick = 0xFFFFFFFFU;
 1553              		.loc 1 288 8 is_stmt 0 view .LVU392
 1554 004a 002A     		cmp	r2, #0
 1555 004c 14DB     		blt	.L139
 1556              	.LVL111:
 1557              	.L130:
 299:BSP/record.c  ****         s_cardCache[target].eventType  = eventType;
 1558              		.loc 1 299 9 is_stmt 1 view .LVU393
 299:BSP/record.c  ****         s_cardCache[target].eventType  = eventType;
 1559              		.loc 1 299 40 is_stmt 0 view .LVU394
 1560 004e 0E4B     		ldr	r3, .L141
 1561 0050 1101     		lsls	r1, r2, #4
 1562 0052 03EB0212 		add	r2, r3, r2, lsl #4
 1563 0056 5D50     		str	r5, [r3, r1]
 300:BSP/record.c  ****         s_cardCache[target].enterSecs  = enterSecs;
 1564              		.loc 1 300 9 is_stmt 1 view .LVU395
 300:BSP/record.c  ****         s_cardCache[target].enterSecs  = enterSecs;
 1565              		.loc 1 300 40 is_stmt 0 view .LVU396
 1566 0058 1771     		strb	r7, [r2, #4]
 301:BSP/record.c  ****         s_cardCache[target].accessTick = now;
 1567              		.loc 1 301 9 is_stmt 1 view .LVU397
 301:BSP/record.c  ****         s_cardCache[target].accessTick = now;
 1568              		.loc 1 301 40 is_stmt 0 view .LVU398
 1569 005a 9660     		str	r6, [r2, #8]
 302:BSP/record.c  ****     }
 1570              		.loc 1 302 9 is_stmt 1 view .LVU399
 302:BSP/record.c  ****     }
 1571              		.loc 1 302 40 is_stmt 0 view .LVU400
 1572 005c D060     		str	r0, [r2, #12]
 1573 005e E8E7     		b	.L121
 1574              	.LVL112:
ARM GAS  C:\Users\24120\AppData\Local\Temp\cc4pJDvy.s 			page 36


 1575              	.L131:
 1576              	.LBB11:
 290:BSP/record.c  ****             if (s_cardCache[i].accessTick < oldestTick) {
 1577              		.loc 1 290 43 is_stmt 1 discriminator 2 view .LVU401
 1578 0060 0133     		adds	r3, r3, #1
 1579              	.LVL113:
 1580              	.L129:
 290:BSP/record.c  ****             if (s_cardCache[i].accessTick < oldestTick) {
 1581              		.loc 1 290 23 discriminator 1 view .LVU402
 1582 0062 1F2B     		cmp	r3, #31
 1583 0064 0CDC     		bgt	.L140
 291:BSP/record.c  ****                 oldestTick = s_cardCache[i].accessTick;
 1584              		.loc 1 291 13 view .LVU403
 291:BSP/record.c  ****                 oldestTick = s_cardCache[i].accessTick;
 1585              		.loc 1 291 31 is_stmt 0 view .LVU404
 1586 0066 0849     		ldr	r1, .L141
 1587 0068 01EB0311 		add	r1, r1, r3, lsl #4
 1588 006c C968     		ldr	r1, [r1, #12]
 291:BSP/record.c  ****                 oldestTick = s_cardCache[i].accessTick;
 1589              		.loc 1 291 16 view .LVU405
 1590 006e A142     		cmp	r1, r4
 1591 0070 F6D2     		bcs	.L131
 292:BSP/record.c  ****                 target = i;
 1592              		.loc 1 292 28 view .LVU406
 1593 0072 0C46     		mov	r4, r1
 1594              	.LVL114:
 293:BSP/record.c  ****             }
 1595              		.loc 1 293 24 view .LVU407
 1596 0074 1A46     		mov	r2, r3
 1597              	.LVL115:
 293:BSP/record.c  ****             }
 1598              		.loc 1 293 24 view .LVU408
 1599 0076 F3E7     		b	.L131
 1600              	.LVL116:
 1601              	.L139:
 289:BSP/record.c  ****         for (i = 0; i < CARD_CACHE_SIZE; i++) {
 1602              		.loc 1 289 18 view .LVU409
 1603 0078 4FF0FF34 		mov	r4, #-1
 290:BSP/record.c  ****             if (s_cardCache[i].accessTick < oldestTick) {
 1604              		.loc 1 290 16 view .LVU410
 1605 007c 0023     		movs	r3, #0
 1606 007e F0E7     		b	.L129
 1607              	.LVL117:
 1608              	.L140:
 290:BSP/record.c  ****             if (s_cardCache[i].accessTick < oldestTick) {
 1609              		.loc 1 290 16 view .LVU411
 1610              	.LBE11:
 298:BSP/record.c  ****         s_cardCache[target].cardId     = cardId;
 1611              		.loc 1 298 5 is_stmt 1 view .LVU412
 298:BSP/record.c  ****         s_cardCache[target].cardId     = cardId;
 1612              		.loc 1 298 8 is_stmt 0 view .LVU413
 1613 0080 002A     		cmp	r2, #0
 1614 0082 E4DA     		bge	.L130
 1615 0084 D5E7     		b	.L121
 1616              	.L142:
 1617 0086 00BF     		.align	2
 1618              	.L141:
ARM GAS  C:\Users\24120\AppData\Local\Temp\cc4pJDvy.s 			page 37


 1619 0088 00000000 		.word	s_cardCache
 1620              		.cfi_endproc
 1621              	.LFE261:
 1623              		.section	.text.Cache_Clear,"ax",%progbits
 1624              		.align	1
 1625              		.global	Cache_Clear
 1626              		.syntax unified
 1627              		.thumb
 1628              		.thumb_func
 1630              	Cache_Clear:
 1631              	.LFB262:
 305:BSP/record.c  **** 
 306:BSP/record.c  **** void Cache_Clear(void)
 307:BSP/record.c  **** {
 1632              		.loc 1 307 1 is_stmt 1 view -0
 1633              		.cfi_startproc
 1634              		@ args = 0, pretend = 0, frame = 0
 1635              		@ frame_needed = 0, uses_anonymous_args = 0
 1636 0000 08B5     		push	{r3, lr}
 1637              	.LCFI22:
 1638              		.cfi_def_cfa_offset 8
 1639              		.cfi_offset 3, -8
 1640              		.cfi_offset 14, -4
 308:BSP/record.c  ****     memset(s_cardCache, 0, sizeof(s_cardCache));
 1641              		.loc 1 308 5 view .LVU415
 1642 0002 4FF40072 		mov	r2, #512
 1643 0006 0021     		movs	r1, #0
 1644 0008 0148     		ldr	r0, .L145
 1645 000a FFF7FEFF 		bl	memset
 1646              	.LVL118:
 309:BSP/record.c  **** }
 1647              		.loc 1 309 1 is_stmt 0 view .LVU416
 1648 000e 08BD     		pop	{r3, pc}
 1649              	.L146:
 1650              		.align	2
 1651              	.L145:
 1652 0010 00000000 		.word	s_cardCache
 1653              		.cfi_endproc
 1654              	.LFE262:
 1656              		.section	.text.Blacklist_Init,"ax",%progbits
 1657              		.align	1
 1658              		.global	Blacklist_Init
 1659              		.syntax unified
 1660              		.thumb
 1661              		.thumb_func
 1663              	Blacklist_Init:
 1664              	.LFB263:
 310:BSP/record.c  **** 
 311:BSP/record.c  **** /* ====== 窪靡等奪燴 ====== */
 312:BSP/record.c  **** 
 313:BSP/record.c  **** static BlacklistData_t s_blacklist;
 314:BSP/record.c  **** 
 315:BSP/record.c  **** void Blacklist_Init(void)
 316:BSP/record.c  **** {
 1665              		.loc 1 316 1 is_stmt 1 view -0
 1666              		.cfi_startproc
 1667              		@ args = 0, pretend = 0, frame = 208
ARM GAS  C:\Users\24120\AppData\Local\Temp\cc4pJDvy.s 			page 38


 1668              		@ frame_needed = 0, uses_anonymous_args = 0
 1669 0000 10B5     		push	{r4, lr}
 1670              	.LCFI23:
 1671              		.cfi_def_cfa_offset 8
 1672              		.cfi_offset 4, -8
 1673              		.cfi_offset 14, -4
 1674 0002 B4B0     		sub	sp, sp, #208
 1675              	.LCFI24:
 1676              		.cfi_def_cfa_offset 216
 317:BSP/record.c  ****     BlacklistData_t bl;
 1677              		.loc 1 317 5 view .LVU418
 318:BSP/record.c  ****     W25QXX_Read((uint8_t*)&bl, BLACKLIST_FLASH_ADDR, sizeof(bl));
 1678              		.loc 1 318 5 view .LVU419
 1679 0004 D022     		movs	r2, #208
 1680 0006 4FF48041 		mov	r1, #16384
 1681 000a 6846     		mov	r0, sp
 1682 000c FFF7FEFF 		bl	W25QXX_Read
 1683              	.LVL119:
 319:BSP/record.c  ****     if (bl.magic == BLACKLIST_MAGIC) {
 1684              		.loc 1 319 5 view .LVU420
 1685              		.loc 1 319 11 is_stmt 0 view .LVU421
 1686 0010 BDF80020 		ldrh	r2, [sp]
 1687              		.loc 1 319 8 view .LVU422
 1688 0014 44F24B23 		movw	r3, #16971
 1689 0018 9A42     		cmp	r2, r3
 1690 001a 07D1     		bne	.L148
 1691              	.LBB12:
 320:BSP/record.c  ****         uint16_t crc = CRC16_Calc((uint8_t*)&bl, offsetof(BlacklistData_t, crc16));
 1692              		.loc 1 320 9 is_stmt 1 view .LVU423
 1693              		.loc 1 320 24 is_stmt 0 view .LVU424
 1694 001c CC21     		movs	r1, #204
 1695 001e 6846     		mov	r0, sp
 1696 0020 FFF7FEFF 		bl	CRC16_Calc
 1697              	.LVL120:
 321:BSP/record.c  ****         if (crc == bl.crc16 && bl.count <= MAX_BLACKLIST) {
 1698              		.loc 1 321 9 is_stmt 1 view .LVU425
 1699              		.loc 1 321 22 is_stmt 0 view .LVU426
 1700 0024 BDF8CC30 		ldrh	r3, [sp, #204]
 1701              		.loc 1 321 12 view .LVU427
 1702 0028 8342     		cmp	r3, r0
 1703 002a 0AD0     		beq	.L151
 1704              	.LVL121:
 1705              	.L148:
 1706              		.loc 1 321 12 view .LVU428
 1707              	.LBE12:
 322:BSP/record.c  ****             memcpy(&s_blacklist, &bl, sizeof(bl));
 323:BSP/record.c  ****             return;
 324:BSP/record.c  ****         }
 325:BSP/record.c  ****     }
 326:BSP/record.c  ****     /* 拸衄虴杅擂寀場宎趙峈諾 */
 327:BSP/record.c  ****     memset(&s_blacklist, 0, sizeof(s_blacklist));
 1708              		.loc 1 327 5 is_stmt 1 view .LVU429
 1709 002c 0A4C     		ldr	r4, .L152
 1710 002e D022     		movs	r2, #208
 1711 0030 0021     		movs	r1, #0
 1712 0032 2046     		mov	r0, r4
 1713 0034 FFF7FEFF 		bl	memset
ARM GAS  C:\Users\24120\AppData\Local\Temp\cc4pJDvy.s 			page 39


 1714              	.LVL122:
 328:BSP/record.c  ****     s_blacklist.magic = BLACKLIST_MAGIC;
 1715              		.loc 1 328 5 view .LVU430
 1716              		.loc 1 328 23 is_stmt 0 view .LVU431
 1717 0038 44F24B23 		movw	r3, #16971
 1718 003c 2380     		strh	r3, [r4]	@ movhi
 1719              	.L147:
 329:BSP/record.c  **** }
 1720              		.loc 1 329 1 view .LVU432
 1721 003e 34B0     		add	sp, sp, #208
 1722              	.LCFI25:
 1723              		.cfi_remember_state
 1724              		.cfi_def_cfa_offset 8
 1725              		@ sp needed
 1726 0040 10BD     		pop	{r4, pc}
 1727              	.LVL123:
 1728              	.L151:
 1729              	.LCFI26:
 1730              		.cfi_restore_state
 1731              	.LBB13:
 321:BSP/record.c  ****             memcpy(&s_blacklist, &bl, sizeof(bl));
 1732              		.loc 1 321 34 discriminator 1 view .LVU433
 1733 0042 BDF80230 		ldrh	r3, [sp, #2]
 321:BSP/record.c  ****             memcpy(&s_blacklist, &bl, sizeof(bl));
 1734              		.loc 1 321 29 discriminator 1 view .LVU434
 1735 0046 322B     		cmp	r3, #50
 1736 0048 F0D8     		bhi	.L148
 322:BSP/record.c  ****             return;
 1737              		.loc 1 322 13 is_stmt 1 view .LVU435
 1738 004a D022     		movs	r2, #208
 1739 004c 6946     		mov	r1, sp
 1740 004e 0248     		ldr	r0, .L152
 1741              	.LVL124:
 322:BSP/record.c  ****             return;
 1742              		.loc 1 322 13 is_stmt 0 view .LVU436
 1743 0050 FFF7FEFF 		bl	memcpy
 1744              	.LVL125:
 323:BSP/record.c  ****         }
 1745              		.loc 1 323 13 is_stmt 1 view .LVU437
 1746 0054 F3E7     		b	.L147
 1747              	.L153:
 1748 0056 00BF     		.align	2
 1749              	.L152:
 1750 0058 00000000 		.word	s_blacklist
 1751              	.LBE13:
 1752              		.cfi_endproc
 1753              	.LFE263:
 1755              		.section	.text.Blacklist_Save,"ax",%progbits
 1756              		.align	1
 1757              		.global	Blacklist_Save
 1758              		.syntax unified
 1759              		.thumb
 1760              		.thumb_func
 1762              	Blacklist_Save:
 1763              	.LFB264:
 330:BSP/record.c  **** 
 331:BSP/record.c  **** void Blacklist_Save(void)
ARM GAS  C:\Users\24120\AppData\Local\Temp\cc4pJDvy.s 			page 40


 332:BSP/record.c  **** {
 1764              		.loc 1 332 1 view -0
 1765              		.cfi_startproc
 1766              		@ args = 0, pretend = 0, frame = 0
 1767              		@ frame_needed = 0, uses_anonymous_args = 0
 1768 0000 10B5     		push	{r4, lr}
 1769              	.LCFI27:
 1770              		.cfi_def_cfa_offset 8
 1771              		.cfi_offset 4, -8
 1772              		.cfi_offset 14, -4
 333:BSP/record.c  ****     s_blacklist.magic = BLACKLIST_MAGIC;
 1773              		.loc 1 333 5 view .LVU439
 1774              		.loc 1 333 23 is_stmt 0 view .LVU440
 1775 0002 0A4C     		ldr	r4, .L156
 1776 0004 44F24B23 		movw	r3, #16971
 1777 0008 2380     		strh	r3, [r4]	@ movhi
 334:BSP/record.c  ****     s_blacklist.crc16 = CRC16_Calc((uint8_t*)&s_blacklist, offsetof(BlacklistData_t, crc16));
 1778              		.loc 1 334 5 is_stmt 1 view .LVU441
 1779              		.loc 1 334 25 is_stmt 0 view .LVU442
 1780 000a CC21     		movs	r1, #204
 1781 000c 2046     		mov	r0, r4
 1782 000e FFF7FEFF 		bl	CRC16_Calc
 1783              	.LVL126:
 1784              		.loc 1 334 23 discriminator 1 view .LVU443
 1785 0012 A4F8CC00 		strh	r0, [r4, #204]	@ movhi
 335:BSP/record.c  ****     W25QXX_Erase_Sector(BLACKLIST_FLASH_ADDR / 4096);
 1786              		.loc 1 335 5 is_stmt 1 view .LVU444
 1787 0016 0420     		movs	r0, #4
 1788 0018 FFF7FEFF 		bl	W25QXX_Erase_Sector
 1789              	.LVL127:
 336:BSP/record.c  ****     W25QXX_Write((uint8_t*)&s_blacklist, BLACKLIST_FLASH_ADDR, sizeof(s_blacklist));
 1790              		.loc 1 336 5 view .LVU445
 1791 001c D022     		movs	r2, #208
 1792 001e 4FF48041 		mov	r1, #16384
 1793 0022 2046     		mov	r0, r4
 1794 0024 FFF7FEFF 		bl	W25QXX_Write
 1795              	.LVL128:
 337:BSP/record.c  **** }
 1796              		.loc 1 337 1 is_stmt 0 view .LVU446
 1797 0028 10BD     		pop	{r4, pc}
 1798              	.L157:
 1799 002a 00BF     		.align	2
 1800              	.L156:
 1801 002c 00000000 		.word	s_blacklist
 1802              		.cfi_endproc
 1803              	.LFE264:
 1805              		.section	.text.Blacklist_Add,"ax",%progbits
 1806              		.align	1
 1807              		.global	Blacklist_Add
 1808              		.syntax unified
 1809              		.thumb
 1810              		.thumb_func
 1812              	Blacklist_Add:
 1813              	.LVL129:
 1814              	.LFB265:
 338:BSP/record.c  **** 
 339:BSP/record.c  **** uint8_t Blacklist_Add(uint32_t uid)
ARM GAS  C:\Users\24120\AppData\Local\Temp\cc4pJDvy.s 			page 41


 340:BSP/record.c  **** {
 1815              		.loc 1 340 1 is_stmt 1 view -0
 1816              		.cfi_startproc
 1817              		@ args = 0, pretend = 0, frame = 0
 1818              		@ frame_needed = 0, uses_anonymous_args = 0
 341:BSP/record.c  ****     uint16_t i;
 1819              		.loc 1 341 5 view .LVU448
 342:BSP/record.c  ****     if (uid == 0) return 0;
 1820              		.loc 1 342 5 view .LVU449
 1821              		.loc 1 342 8 is_stmt 0 view .LVU450
 1822 0000 E8B1     		cbz	r0, .L162
 340:BSP/record.c  ****     uint16_t i;
 1823              		.loc 1 340 1 view .LVU451
 1824 0002 08B5     		push	{r3, lr}
 1825              	.LCFI28:
 1826              		.cfi_def_cfa_offset 8
 1827              		.cfi_offset 3, -8
 1828              		.cfi_offset 14, -4
 1829 0004 0146     		mov	r1, r0
 343:BSP/record.c  ****     /* 潰脤岆瘁眒湔婓 */
 344:BSP/record.c  ****     for (i = 0; i < s_blacklist.count; i++) {
 1830              		.loc 1 344 12 view .LVU452
 1831 0006 0023     		movs	r3, #0
 1832              	.L160:
 1833              	.LVL130:
 1834              		.loc 1 344 19 is_stmt 1 discriminator 1 view .LVU453
 1835              		.loc 1 344 32 is_stmt 0 discriminator 1 view .LVU454
 1836 0008 0F4A     		ldr	r2, .L171
 1837 000a 5288     		ldrh	r2, [r2, #2]
 1838              		.loc 1 344 19 discriminator 1 view .LVU455
 1839 000c 9A42     		cmp	r2, r3
 1840 000e 08D9     		bls	.L169
 345:BSP/record.c  ****         if (s_blacklist.uidList[i] == uid) return 1;  /* 眒湔婓 */
 1841              		.loc 1 345 9 is_stmt 1 view .LVU456
 1842              		.loc 1 345 32 is_stmt 0 view .LVU457
 1843 0010 0D4A     		ldr	r2, .L171
 1844 0012 02EB8302 		add	r2, r2, r3, lsl #2
 1845 0016 5268     		ldr	r2, [r2, #4]
 1846              		.loc 1 345 12 view .LVU458
 1847 0018 8A42     		cmp	r2, r1
 1848 001a 12D0     		beq	.L163
 344:BSP/record.c  ****         if (s_blacklist.uidList[i] == uid) return 1;  /* 眒湔婓 */
 1849              		.loc 1 344 41 is_stmt 1 discriminator 2 view .LVU459
 1850 001c 0133     		adds	r3, r3, #1
 1851              	.LVL131:
 344:BSP/record.c  ****         if (s_blacklist.uidList[i] == uid) return 1;  /* 眒湔婓 */
 1852              		.loc 1 344 41 is_stmt 0 discriminator 2 view .LVU460
 1853 001e 9BB2     		uxth	r3, r3
 1854              	.LVL132:
 344:BSP/record.c  ****         if (s_blacklist.uidList[i] == uid) return 1;  /* 眒湔婓 */
 1855              		.loc 1 344 41 discriminator 2 view .LVU461
 1856 0020 F2E7     		b	.L160
 1857              	.LVL133:
 1858              	.L169:
 346:BSP/record.c  ****     }
 347:BSP/record.c  ****     if (s_blacklist.count >= MAX_BLACKLIST) return 0;
 1859              		.loc 1 347 5 is_stmt 1 view .LVU462
ARM GAS  C:\Users\24120\AppData\Local\Temp\cc4pJDvy.s 			page 42


 1860              		.loc 1 347 8 is_stmt 0 view .LVU463
 1861 0022 312A     		cmp	r2, #49
 1862 0024 01D9     		bls	.L170
 1863              		.loc 1 347 52 discriminator 1 view .LVU464
 1864 0026 0020     		movs	r0, #0
 1865              	.LVL134:
 1866              		.loc 1 347 52 discriminator 1 view .LVU465
 1867 0028 0CE0     		b	.L159
 1868              	.LVL135:
 1869              	.L170:
 348:BSP/record.c  ****     s_blacklist.uidList[s_blacklist.count++] = uid;
 1870              		.loc 1 348 5 is_stmt 1 view .LVU466
 1871              		.loc 1 348 42 is_stmt 0 view .LVU467
 1872 002a 074B     		ldr	r3, .L171
 1873              	.LVL136:
 1874              		.loc 1 348 42 view .LVU468
 1875 002c 501C     		adds	r0, r2, #1
 1876              	.LVL137:
 1877              		.loc 1 348 42 view .LVU469
 1878 002e 5880     		strh	r0, [r3, #2]	@ movhi
 1879              		.loc 1 348 46 view .LVU470
 1880 0030 03EB8203 		add	r3, r3, r2, lsl #2
 1881 0034 5960     		str	r1, [r3, #4]
 349:BSP/record.c  ****     Blacklist_Save();
 1882              		.loc 1 349 5 is_stmt 1 view .LVU471
 1883 0036 FFF7FEFF 		bl	Blacklist_Save
 1884              	.LVL138:
 350:BSP/record.c  ****     return 1;
 1885              		.loc 1 350 5 view .LVU472
 1886              		.loc 1 350 12 is_stmt 0 view .LVU473
 1887 003a 0120     		movs	r0, #1
 1888 003c 02E0     		b	.L159
 1889              	.LVL139:
 1890              	.L162:
 1891              	.LCFI29:
 1892              		.cfi_def_cfa_offset 0
 1893              		.cfi_restore 3
 1894              		.cfi_restore 14
 342:BSP/record.c  ****     /* 潰脤岆瘁眒湔婓 */
 1895              		.loc 1 342 26 discriminator 1 view .LVU474
 1896 003e 0020     		movs	r0, #0
 1897              	.LVL140:
 351:BSP/record.c  **** }
 1898              		.loc 1 351 1 view .LVU475
 1899 0040 7047     		bx	lr
 1900              	.LVL141:
 1901              	.L163:
 1902              	.LCFI30:
 1903              		.cfi_def_cfa_offset 8
 1904              		.cfi_offset 3, -8
 1905              		.cfi_offset 14, -4
 345:BSP/record.c  ****     }
 1906              		.loc 1 345 51 discriminator 1 view .LVU476
 1907 0042 0120     		movs	r0, #1
 1908              	.LVL142:
 1909              	.L159:
 1910              		.loc 1 351 1 view .LVU477
ARM GAS  C:\Users\24120\AppData\Local\Temp\cc4pJDvy.s 			page 43


 1911 0044 08BD     		pop	{r3, pc}
 1912              	.L172:
 1913 0046 00BF     		.align	2
 1914              	.L171:
 1915 0048 00000000 		.word	s_blacklist
 1916              		.cfi_endproc
 1917              	.LFE265:
 1919              		.section	.text.Blacklist_Remove,"ax",%progbits
 1920              		.align	1
 1921              		.global	Blacklist_Remove
 1922              		.syntax unified
 1923              		.thumb
 1924              		.thumb_func
 1926              	Blacklist_Remove:
 1927              	.LVL143:
 1928              	.LFB266:
 352:BSP/record.c  **** 
 353:BSP/record.c  **** uint8_t Blacklist_Remove(uint32_t uid)
 354:BSP/record.c  **** {
 1929              		.loc 1 354 1 is_stmt 1 view -0
 1930              		.cfi_startproc
 1931              		@ args = 0, pretend = 0, frame = 0
 1932              		@ frame_needed = 0, uses_anonymous_args = 0
 1933              		.loc 1 354 1 is_stmt 0 view .LVU479
 1934 0000 08B5     		push	{r3, lr}
 1935              	.LCFI31:
 1936              		.cfi_def_cfa_offset 8
 1937              		.cfi_offset 3, -8
 1938              		.cfi_offset 14, -4
 355:BSP/record.c  ****     uint16_t i;
 1939              		.loc 1 355 5 is_stmt 1 view .LVU480
 356:BSP/record.c  ****     for (i = 0; i < s_blacklist.count; i++) {
 1940              		.loc 1 356 5 view .LVU481
 1941              	.LVL144:
 1942              		.loc 1 356 12 is_stmt 0 view .LVU482
 1943 0002 0023     		movs	r3, #0
 1944              		.loc 1 356 5 view .LVU483
 1945 0004 01E0     		b	.L174
 1946              	.LVL145:
 1947              	.L175:
 1948              		.loc 1 356 41 is_stmt 1 discriminator 2 view .LVU484
 1949 0006 0133     		adds	r3, r3, #1
 1950              	.LVL146:
 1951              		.loc 1 356 41 is_stmt 0 discriminator 2 view .LVU485
 1952 0008 9BB2     		uxth	r3, r3
 1953              	.LVL147:
 1954              	.L174:
 1955              		.loc 1 356 19 is_stmt 1 discriminator 1 view .LVU486
 1956              		.loc 1 356 32 is_stmt 0 discriminator 1 view .LVU487
 1957 000a 0D4A     		ldr	r2, .L180
 1958 000c 5188     		ldrh	r1, [r2, #2]
 1959              		.loc 1 356 19 discriminator 1 view .LVU488
 1960 000e 9942     		cmp	r1, r3
 1961 0010 13D9     		bls	.L179
 357:BSP/record.c  ****         if (s_blacklist.uidList[i] == uid) {
 1962              		.loc 1 357 9 is_stmt 1 view .LVU489
 1963              		.loc 1 357 32 is_stmt 0 view .LVU490
ARM GAS  C:\Users\24120\AppData\Local\Temp\cc4pJDvy.s 			page 44


 1964 0012 0B4A     		ldr	r2, .L180
 1965 0014 02EB8302 		add	r2, r2, r3, lsl #2
 1966 0018 5268     		ldr	r2, [r2, #4]
 1967              		.loc 1 357 12 view .LVU491
 1968 001a 8242     		cmp	r2, r0
 1969 001c F3D1     		bne	.L175
 358:BSP/record.c  ****             /* 蚚郔綴珨跺啋匼葡裔絞ゴ, 熬屾 count */
 359:BSP/record.c  ****             s_blacklist.uidList[i] = s_blacklist.uidList[--s_blacklist.count];
 1970              		.loc 1 359 13 is_stmt 1 view .LVU492
 1971              		.loc 1 359 58 is_stmt 0 view .LVU493
 1972 001e 0139     		subs	r1, r1, #1
 1973 0020 89B2     		uxth	r1, r1
 1974              		.loc 1 359 36 view .LVU494
 1975 0022 074A     		ldr	r2, .L180
 1976 0024 5180     		strh	r1, [r2, #2]	@ movhi
 1977              		.loc 1 359 57 view .LVU495
 1978 0026 02EB8101 		add	r1, r2, r1, lsl #2
 1979 002a 4968     		ldr	r1, [r1, #4]
 1980              		.loc 1 359 36 view .LVU496
 1981 002c 02EB8302 		add	r2, r2, r3, lsl #2
 1982 0030 5160     		str	r1, [r2, #4]
 360:BSP/record.c  ****             Blacklist_Save();
 1983              		.loc 1 360 13 is_stmt 1 view .LVU497
 1984 0032 FFF7FEFF 		bl	Blacklist_Save
 1985              	.LVL148:
 361:BSP/record.c  ****             return 1;
 1986              		.loc 1 361 13 view .LVU498
 1987              		.loc 1 361 20 is_stmt 0 view .LVU499
 1988 0036 0120     		movs	r0, #1
 1989 0038 00E0     		b	.L176
 1990              	.LVL149:
 1991              	.L179:
 362:BSP/record.c  ****         }
 363:BSP/record.c  ****     }
 364:BSP/record.c  ****     return 0;  /* 帤梑善 */
 1992              		.loc 1 364 12 view .LVU500
 1993 003a 0020     		movs	r0, #0
 1994              	.LVL150:
 1995              	.L176:
 365:BSP/record.c  **** }
 1996              		.loc 1 365 1 view .LVU501
 1997 003c 08BD     		pop	{r3, pc}
 1998              	.L181:
 1999 003e 00BF     		.align	2
 2000              	.L180:
 2001 0040 00000000 		.word	s_blacklist
 2002              		.cfi_endproc
 2003              	.LFE266:
 2005              		.section	.text.Blacklist_IsBlocked,"ax",%progbits
 2006              		.align	1
 2007              		.global	Blacklist_IsBlocked
 2008              		.syntax unified
 2009              		.thumb
 2010              		.thumb_func
 2012              	Blacklist_IsBlocked:
 2013              	.LVL151:
 2014              	.LFB267:
ARM GAS  C:\Users\24120\AppData\Local\Temp\cc4pJDvy.s 			page 45


 366:BSP/record.c  **** 
 367:BSP/record.c  **** uint8_t Blacklist_IsBlocked(uint32_t uid)
 368:BSP/record.c  **** {
 2015              		.loc 1 368 1 is_stmt 1 view -0
 2016              		.cfi_startproc
 2017              		@ args = 0, pretend = 0, frame = 0
 2018              		@ frame_needed = 0, uses_anonymous_args = 0
 2019              		@ link register save eliminated.
 369:BSP/record.c  ****     uint16_t i;
 2020              		.loc 1 369 5 view .LVU503
 370:BSP/record.c  ****     for (i = 0; i < s_blacklist.count; i++) {
 2021              		.loc 1 370 5 view .LVU504
 2022              		.loc 1 370 12 is_stmt 0 view .LVU505
 2023 0000 0023     		movs	r3, #0
 2024              		.loc 1 370 5 view .LVU506
 2025 0002 01E0     		b	.L183
 2026              	.LVL152:
 2027              	.L188:
 2028              		.loc 1 370 41 is_stmt 1 discriminator 2 view .LVU507
 2029 0004 0133     		adds	r3, r3, #1
 2030              	.LVL153:
 2031              		.loc 1 370 41 is_stmt 0 discriminator 2 view .LVU508
 2032 0006 9BB2     		uxth	r3, r3
 2033              	.LVL154:
 2034              	.L183:
 2035              		.loc 1 370 19 is_stmt 1 discriminator 1 view .LVU509
 2036              		.loc 1 370 32 is_stmt 0 discriminator 1 view .LVU510
 2037 0008 064A     		ldr	r2, .L189
 2038 000a 5288     		ldrh	r2, [r2, #2]
 2039              		.loc 1 370 19 discriminator 1 view .LVU511
 2040 000c 9A42     		cmp	r2, r3
 2041 000e 07D9     		bls	.L187
 371:BSP/record.c  ****         if (s_blacklist.uidList[i] == uid) return 1;
 2042              		.loc 1 371 9 is_stmt 1 view .LVU512
 2043              		.loc 1 371 32 is_stmt 0 view .LVU513
 2044 0010 044A     		ldr	r2, .L189
 2045 0012 02EB8302 		add	r2, r2, r3, lsl #2
 2046 0016 5268     		ldr	r2, [r2, #4]
 2047              		.loc 1 371 12 view .LVU514
 2048 0018 8242     		cmp	r2, r0
 2049 001a F3D1     		bne	.L188
 2050              		.loc 1 371 51 discriminator 1 view .LVU515
 2051 001c 0120     		movs	r0, #1
 2052              	.LVL155:
 372:BSP/record.c  ****     }
 373:BSP/record.c  ****     return 0;
 374:BSP/record.c  **** }
 2053              		.loc 1 374 1 view .LVU516
 2054 001e 7047     		bx	lr
 2055              	.LVL156:
 2056              	.L187:
 373:BSP/record.c  **** }
 2057              		.loc 1 373 12 view .LVU517
 2058 0020 0020     		movs	r0, #0
 2059              	.LVL157:
 373:BSP/record.c  **** }
 2060              		.loc 1 373 12 view .LVU518
ARM GAS  C:\Users\24120\AppData\Local\Temp\cc4pJDvy.s 			page 46


 2061 0022 7047     		bx	lr
 2062              	.L190:
 2063              		.align	2
 2064              	.L189:
 2065 0024 00000000 		.word	s_blacklist
 2066              		.cfi_endproc
 2067              	.LFE267:
 2069              		.section	.text.Blacklist_GetCount,"ax",%progbits
 2070              		.align	1
 2071              		.global	Blacklist_GetCount
 2072              		.syntax unified
 2073              		.thumb
 2074              		.thumb_func
 2076              	Blacklist_GetCount:
 2077              	.LFB268:
 375:BSP/record.c  **** 
 376:BSP/record.c  **** 
 377:BSP/record.c  **** 
 378:BSP/record.c  **** uint16_t Blacklist_GetCount(void)
 379:BSP/record.c  **** {
 2078              		.loc 1 379 1 is_stmt 1 view -0
 2079              		.cfi_startproc
 2080              		@ args = 0, pretend = 0, frame = 0
 2081              		@ frame_needed = 0, uses_anonymous_args = 0
 2082              		@ link register save eliminated.
 380:BSP/record.c  ****     return s_blacklist.count;
 2083              		.loc 1 380 5 view .LVU520
 381:BSP/record.c  **** }
 2084              		.loc 1 381 1 is_stmt 0 view .LVU521
 2085 0000 014B     		ldr	r3, .L192
 2086 0002 5888     		ldrh	r0, [r3, #2]
 2087 0004 7047     		bx	lr
 2088              	.L193:
 2089 0006 00BF     		.align	2
 2090              	.L192:
 2091 0008 00000000 		.word	s_blacklist
 2092              		.cfi_endproc
 2093              	.LFE268:
 2095              		.section	.bss.sectorBuf.0,"aw",%nobits
 2096              		.align	2
 2099              	sectorBuf.0:
 2100 0000 00000000 		.space	4096
 2100      00000000 
 2100      00000000 
 2100      00000000 
 2100      00000000 
 2101              		.section	.bss.s_blacklist,"aw",%nobits
 2102              		.align	2
 2105              	s_blacklist:
 2106 0000 00000000 		.space	208
 2106      00000000 
 2106      00000000 
 2106      00000000 
 2106      00000000 
 2107              		.section	.data.s_attendMode,"aw"
 2110              	s_attendMode:
 2111 0000 02       		.byte	2
ARM GAS  C:\Users\24120\AppData\Local\Temp\cc4pJDvy.s 			page 47


 2112              		.section	.data.s_deviceId,"aw"
 2113              		.align	1
 2116              	s_deviceId:
 2117 0000 0100     		.short	1
 2118              		.section	.bss.s_cardCache,"aw",%nobits
 2119              		.align	2
 2122              	s_cardCache:
 2123 0000 00000000 		.space	512
 2123      00000000 
 2123      00000000 
 2123      00000000 
 2123      00000000 
 2124              		.section	.bss.s_recHead,"aw",%nobits
 2125              		.align	2
 2128              	s_recHead:
 2129 0000 00000000 		.space	32
 2129      00000000 
 2129      00000000 
 2129      00000000 
 2129      00000000 
 2130              		.section	.bss.s_sysCfg,"aw",%nobits
 2131              		.align	2
 2134              	s_sysCfg:
 2135 0000 00000000 		.space	18
 2135      00000000 
 2135      00000000 
 2135      00000000 
 2135      0000
 2136              		.text
 2137              	.Letext0:
 2138              		.file 2 "E:/STM32/Tools/arm-none-eabi-gcc/14.2.1-1.1.1/.content/arm-none-eabi/include/machine/_def
 2139              		.file 3 "E:/STM32/Tools/arm-none-eabi-gcc/14.2.1-1.1.1/.content/arm-none-eabi/include/sys/_stdint.
 2140              		.file 4 "BSP/record.h"
 2141              		.file 5 "E:/STM32/Tools/arm-none-eabi-gcc/14.2.1-1.1.1/.content/arm-none-eabi/include/stdio.h"
 2142              		.file 6 "E:/STM32/Tools/arm-none-eabi-gcc/14.2.1-1.1.1/.content/arm-none-eabi/include/string.h"
 2143              		.file 7 "BSP/w25qxx.h"
 2144              		.file 8 "<built-in>"
 2145              		.file 9 "Middlewares/Third_Party/FreeRTOS/Source/CMSIS_RTOS_V2/cmsis_os2.h"
ARM GAS  C:\Users\24120\AppData\Local\Temp\cc4pJDvy.s 			page 48

