ARM GAS  C:\Users\24120\AppData\Local\Temp\ccsfq6ok.s 			page 1


   1              		.cpu cortex-m4
   2              		.arch armv7e-m
   3              		.fpu fpv4-sp-d16
   4              		.eabi_attribute 27, 1
   5              		.eabi_attribute 28, 1
   6              		.eabi_attribute 20, 1
   7              		.eabi_attribute 21, 1
   8              		.eabi_attribute 23, 3
   9              		.eabi_attribute 24, 1
  10              		.eabi_attribute 25, 1
  11              		.eabi_attribute 26, 1
  12              		.eabi_attribute 30, 1
  13              		.eabi_attribute 34, 1
  14              		.eabi_attribute 18, 4
  15              		.file	"uart_drv.c"
  16              		.text
  17              	.Ltext0:
  18              		.cfi_sections	.debug_frame
  19              		.file 1 "BSP/uart_drv.c"
  20              		.section	.text.FindInstance,"ax",%progbits
  21              		.align	1
  22              		.syntax unified
  23              		.thumb
  24              		.thumb_func
  26              	FindInstance:
  27              	.LVL0:
  28              	.LFB254:
   1:BSP/uart_drv.c **** /**
   2:BSP/uart_drv.c ****  * @file    uart_drv.c
   3:BSP/uart_drv.c ****  * @brief   éēØäø²å£é©±åØå®ē° - åå«printféå®å(ęÆęMDKåGCC/CMake)
   4:BSP/uart_drv.c ****  *
   5:BSP/uart_drv.c ****  * @par ęØ”åčč“£
   6:BSP/uart_drv.c ****  *   1. ē®”ēå¤äøŖäø²å£é©±åØå®ä¾ēę³Øåäøę„ę¾
   7:BSP/uart_drv.c ****  *   2. ęä¾é»å”å¼åéåē©ŗé²äø­ę­å¼ę„ę¶
   8:BSP/uart_drv.c ****  *   3. åØHALäø­ę­åč°äø­čŖåØååę„ę¶äŗä»¶å°åÆ¹åŗå®ä¾ēåč°å½ę°
   9:BSP/uart_drv.c ****  *   4. ęä¾printféå®ååč½(č°čÆč¾åŗ)
  10:BSP/uart_drv.c ****  *   5. ęä¾ēŗÆę“ę°ęµ®ē¹ę°ęå°(äøä¾čµprintf %f)
  11:BSP/uart_drv.c ****  *
  12:BSP/uart_drv.c ****  * @par ę°ę®ęµ
  13:BSP/uart_drv.c ****  *   äø²å£ē”¬ä»¶ ā ē©ŗé²äø­ę­ ā HAL_UARTEx_RxEventCallback
  14:BSP/uart_drv.c ****  *     ā UartDrv_RxEventDispatch ā FindInstance(ę„č”Ø)
  15:BSP/uart_drv.c ****  *     ā ēØę·åč°å½ę° pRxCb ā čŖåØéåÆę„ę¶
  16:BSP/uart_drv.c ****  */
  17:BSP/uart_drv.c **** 
  18:BSP/uart_drv.c **** #include "uart_drv.h"
  19:BSP/uart_drv.c **** 
  20:BSP/uart_drv.c **** #ifndef UART_DRV_NO_FREERTOS
  21:BSP/uart_drv.c **** #include "cmsis_os.h"
  22:BSP/uart_drv.c **** #endif
  23:BSP/uart_drv.c **** #include <string.h>
  24:BSP/uart_drv.c **** #include <stdio.h>
  25:BSP/uart_drv.c **** 
  26:BSP/uart_drv.c **** /* ====== ē§ęåé ====== */
  27:BSP/uart_drv.c **** 
  28:BSP/uart_drv.c **** /**
  29:BSP/uart_drv.c ****  * @brief  å·²ę³Øåēäø²å£é©±åØå®ä¾č”Ø(éęę°ē»)
  30:BSP/uart_drv.c ****  * @note   UartDrv_Init() ę¶å°å®ä¾ęéå­å„ę­¤č”Ø,
ARM GAS  C:\Users\24120\AppData\Local\Temp\ccsfq6ok.s 			page 2


  31:BSP/uart_drv.c ****  *         UartDrv_RxEventDispatch() ę¶éčæéåę­¤č”Øę„ę¾huartåÆ¹åŗēå®ä¾
  32:BSP/uart_drv.c ****  */
  33:BSP/uart_drv.c **** static UartDrv_t *s_drvInstances[UART_DRV_MAX_INSTANCES];
  34:BSP/uart_drv.c **** 
  35:BSP/uart_drv.c **** /**
  36:BSP/uart_drv.c ****  * @brief  å·²ę³Øåå®ä¾ę°é(åę¶ä¹ęÆäøäøäøŖåÆēØę§½ä½ē“¢å¼)
  37:BSP/uart_drv.c ****  * @note   å½ s_drvCount == UART_DRV_MAX_INSTANCES ę¶,äøåę„åę°å®ä¾ę³Øå
  38:BSP/uart_drv.c ****  */
  39:BSP/uart_drv.c **** static uint8_t s_drvCount = 0;
  40:BSP/uart_drv.c **** 
  41:BSP/uart_drv.c **** /**
  42:BSP/uart_drv.c ****  * @brief  printfč°čÆč¾åŗä½æēØēäø²å£é©±åØå®ä¾
  43:BSP/uart_drv.c ****  * @note   ē± UartDrv_SetDebugPort() č®¾ē½®, _write()/fputc() äø­ä½æēØ
  44:BSP/uart_drv.c ****  *         äøŗNULLę¶printfč¾åŗå°č¢«äø¢å¼(äøä¼å“©ęŗ)
  45:BSP/uart_drv.c ****  */
  46:BSP/uart_drv.c **** static UartDrv_t *s_pDebugPort = NULL;
  47:BSP/uart_drv.c **** 
  48:BSP/uart_drv.c **** /* ====== ē§ęå½ę°å£°ę ====== */
  49:BSP/uart_drv.c **** static UartDrv_t *FindInstance(UART_HandleTypeDef *huart);
  50:BSP/uart_drv.c **** 
  51:BSP/uart_drv.c **** /* ====== printféå®å - MDK(ARMCC) / GCC(CMake) å¼å®¹ ======
  52:BSP/uart_drv.c ****  *
  53:BSP/uart_drv.c ****  * äøåå·„å·é¾ēprintfåŗå±ęŗå¶äøå:
  54:BSP/uart_drv.c ****  * - GCC (newlib): printfęē»č°ēØ _write() ē³»ē»č°ēØč¾åŗå­ē¬¦
  55:BSP/uart_drv.c ****  * - MDK (ARMCC):  printfęē»č°ēØ fputc() éå­ē¬¦č¾åŗ
  56:BSP/uart_drv.c ****  *
  57:BSP/uart_drv.c ****  * äø¤ē§ę¹å¼é½ęÆå°å­ē¬¦éčæHAL_UART_Transmitåéå°č°čÆäø²å£,
  58:BSP/uart_drv.c ****  * ä½æēØ s_pDebugPort ä½äøŗē®ę äø²å£,ęŖč®¾ē½®ę¶č¾åŗč¢«äø¢å¼
  59:BSP/uart_drv.c ****  */
  60:BSP/uart_drv.c **** 
  61:BSP/uart_drv.c **** #if defined(__GNUC__) && !defined(__clang__)
  62:BSP/uart_drv.c **** /* ---- GCCå·„å·é¾ (CMake / STM32CubeIDE / arm-none-eabi-gcc) ----
  63:BSP/uart_drv.c ****  * ę³Øę: ä½æēØ __GNUC__ && !__clang__ ęé¤ MDK AC6 (armclang)ć
  64:BSP/uart_drv.c ****  * AC6 č½ē¶ä¹å®ä¹ __GNUC__,ä½å®ęÆåŗäŗ LLVM/Clang ēē¼čÆåØ,
  65:BSP/uart_drv.c ****  * å¶ę ååŗäøä½æēØ newlib-nano,äøéč¦ä¹äøå­åØ _printf_float ē¬¦å·ć
  66:BSP/uart_drv.c ****  * å¦ęäøå  __clang__ ęé¤,AC6 ē¼čÆę¶ä¼å  _printf_float ęŖå®ä¹čę„éć */
  67:BSP/uart_drv.c **** 
  68:BSP/uart_drv.c **** /**
  69:BSP/uart_drv.c ****  * @brief  GCCę ååŗ_writeē³»ē»č°ēØ,å°printfč¾åŗéå®åå°äø²å£
  70:BSP/uart_drv.c ****  * @param  fd       ęä»¶ęčæ°ē¬¦(ęŖä½æēØ,ä»ēØäŗå¼å®¹ę åę„å£)
  71:BSP/uart_drv.c ****  * @param  pBuffer  å¾č¾åŗå­ē¬¦ē¼å²åŗ
  72:BSP/uart_drv.c ****  * @param  size     å¾č¾åŗå­ē¬¦ę°é
  73:BSP/uart_drv.c ****  * @retval å®éč¾åŗå­čę°(å§ē»ē­äŗsize,äæęprintfčÆ­ä¹)
  74:BSP/uart_drv.c ****  * @note   GCCäøprintfęē»č°ēØ_write,åØę­¤ę¦ęŖå¹¶č¾åŗå°č°čÆäø²å£ć
  75:BSP/uart_drv.c ****  *         å½ s_pDebugPort äøŗNULLęęŖåå§åę¶,ē“ę„äø¢å¼ę°ę®äøč¾åŗć
  76:BSP/uart_drv.c ****  */
  77:BSP/uart_drv.c **** int _write(int fd, char *pBuffer, int size)
  78:BSP/uart_drv.c **** {
  79:BSP/uart_drv.c ****     (void)fd;  /* ęå¶ęŖä½æēØåę°č­¦å */
  80:BSP/uart_drv.c ****     if (s_pDebugPort != NULL && s_pDebugPort->initialized)
  81:BSP/uart_drv.c ****     {
  82:BSP/uart_drv.c ****         /* é»å”å¼åé,č¶ę¶0xFFFFms(ēŗ¦65ē§) */
  83:BSP/uart_drv.c ****         HAL_UART_Transmit(s_pDebugPort->pUartHandle, (uint8_t *)pBuffer, (uint16_t)size, 0xFFFF);
  84:BSP/uart_drv.c ****     }
  85:BSP/uart_drv.c ****     return size;  /* å§ē»čæåsize,éæåprintfč®¤äøŗåå„å¤±č“„ */
  86:BSP/uart_drv.c **** }
  87:BSP/uart_drv.c **** 
ARM GAS  C:\Users\24120\AppData\Local\Temp\ccsfq6ok.s 			page 3


  88:BSP/uart_drv.c **** /*
  89:BSP/uart_drv.c ****  * ====== GCC newlib-nano ęµ®ē¹printfęÆę ======
  90:BSP/uart_drv.c ****  *
  91:BSP/uart_drv.c ****  * arm-none-eabi-gcc é»č®¤ä½æēØ newlib-nano ē²¾ē®Cåŗ, printfäøé¾ę„ęµ®ē¹ę ¼å¼åä»£ē ,
  92:BSP/uart_drv.c ****  * åÆ¼č“ printf("%f", 3.14) č¾åŗäøŗē©ŗęä¹±ē .
  93:BSP/uart_drv.c ****  *
  94:BSP/uart_drv.c ****  * åøøč§åę³ęÆåØCMakeLists.txtäø­ę·»å :
  95:BSP/uart_drv.c ****  *   target_link_options(${TARGET} PRIVATE -u _printf_float)
  96:BSP/uart_drv.c ****  *
  97:BSP/uart_drv.c ****  * čæééčæåØCä»£ē äø­å¼ŗå¶å¼ēØ _printf_float ē¬¦å·,č®©é¾ę„åØåæé”»ä»åŗäø­č§£ęå®,
  98:BSP/uart_drv.c ****  * ęęē­ä»·äŗ -u _printf_float, ę éäæ®ę¹ä»»ä½ęå»ŗéē½®ęä»¶.
  99:BSP/uart_drv.c ****  *
 100:BSP/uart_drv.c ****  * __attribute__((used)) ē”®äæē¼čÆåØäøä¼ä¼åęčæäøŖå¼ēØ,
 101:BSP/uart_drv.c ****  * volatile ē”®äæé¾ę„åØä¹ę ę³åØGC sectionsé¶ę®µäø¢å¼å®.
 102:BSP/uart_drv.c ****  *
 103:BSP/uart_drv.c ****  * å¦ęäøéč¦printfē%fåč½,åÆä»„å®ä¹å® UART_DRV_NO_PRINTF_FLOAT
 104:BSP/uart_drv.c ****  * ę„ē¦ēØę­¤åč½(åå°ä»£ē ä½ē§Æ),ę­¤ę¶ä»åÆä½æēØ UartDrv_PrintFloat ęå°ęµ®ē¹ę°ć
 105:BSP/uart_drv.c ****  *
 106:BSP/uart_drv.c ****  * ę³Øę: ę­¤ä»£ē ä»åÆ¹ēŗÆGCCå·„å·é¾ēę(éčæ __GNUC__ && !__clang__ å¤ę­)ć
 107:BSP/uart_drv.c ****  * MDK AC6 (armclang) č½ē¶ä¹å®ä¹ __GNUC__,ä½å®åŗäŗ LLVM/Clang,
 108:BSP/uart_drv.c ****  * ę ååŗäøä½æēØ newlib-nano,_printf_float ē¬¦å·äøå­åØ,ä¼åÆ¼č“é¾ę„éčÆÆć
 109:BSP/uart_drv.c ****  */
 110:BSP/uart_drv.c **** #ifndef UART_DRV_NO_PRINTF_FLOAT
 111:BSP/uart_drv.c **** extern void _printf_float(void);
 112:BSP/uart_drv.c **** __attribute__((used)) volatile void (*s_printfFloatForceRef)(void) = _printf_float;
 113:BSP/uart_drv.c **** #endif /* UART_DRV_NO_PRINTF_FLOAT */
 114:BSP/uart_drv.c **** 
 115:BSP/uart_drv.c **** #elif defined(__clang__)
 116:BSP/uart_drv.c **** /* ---- MDK AC6 (armclang) å·„å·é¾ ----
 117:BSP/uart_drv.c ****  * AC6 åŗäŗ LLVM/Clang,åę¶å®ä¹ __GNUC__ å __clang__,
 118:BSP/uart_drv.c ****  * ä½å¶ę ååŗäøęÆ newlib-nano,printfåēęÆę %f,ę é _printf_floatć
 119:BSP/uart_drv.c ****  * fputc éå®åę¹å¼äø ARMCC ēøåć */
 120:BSP/uart_drv.c **** #ifndef __GNUC__		// å¦ęäøä½æēØARM CC V6ē¼čÆåØ
 121:BSP/uart_drv.c **** /* ē¦ēØåäø»ęŗęØ”å¼ */
 122:BSP/uart_drv.c **** #pragma import(__use_no_semihosting)
 123:BSP/uart_drv.c **** 
 124:BSP/uart_drv.c **** /* MDKę ååŗéč¦ēęÆęē»ę */
 125:BSP/uart_drv.c **** struct __FILE { int handle; };
 126:BSP/uart_drv.c **** void _sys_exit(int x)
 127:BSP/uart_drv.c **** {
 128:BSP/uart_drv.c ****     x = x;
 129:BSP/uart_drv.c **** }
 130:BSP/uart_drv.c **** #endif
 131:BSP/uart_drv.c **** FILE __stdout;
 132:BSP/uart_drv.c **** 
 133:BSP/uart_drv.c **** 
 134:BSP/uart_drv.c **** /**
 135:BSP/uart_drv.c ****  * @brief  MDK AC6ę ååŗfputcéå®å,å°printfč¾åŗéå®åå°äø²å£
 136:BSP/uart_drv.c ****  * @param  ch å¾č¾åŗå­ē¬¦(ASCIIē )
 137:BSP/uart_drv.c ****  * @param  f  ęä»¶ęé(ęŖä½æēØ)
 138:BSP/uart_drv.c ****  * @retval č¾åŗēå­ē¬¦
 139:BSP/uart_drv.c ****  * @note   AC6ēprintfåēęÆę%f,ę éé¢å¤é¾ę„ _printf_floatć
 140:BSP/uart_drv.c ****  */
 141:BSP/uart_drv.c **** int fputc(int ch, FILE *f)
 142:BSP/uart_drv.c **** {
 143:BSP/uart_drv.c ****     (void)f;
 144:BSP/uart_drv.c ****     if (s_pDebugPort != NULL && s_pDebugPort->initialized)
ARM GAS  C:\Users\24120\AppData\Local\Temp\ccsfq6ok.s 			page 4


 145:BSP/uart_drv.c ****     {
 146:BSP/uart_drv.c ****         HAL_UART_Transmit(s_pDebugPort->pUartHandle, (uint8_t *)&ch, 1, 0xFFFF);
 147:BSP/uart_drv.c ****     }
 148:BSP/uart_drv.c ****     return ch;
 149:BSP/uart_drv.c **** }
 150:BSP/uart_drv.c **** 
 151:BSP/uart_drv.c **** #else
 152:BSP/uart_drv.c **** /* ---- MDK ARMCC (ä¼ ē»ARMē¼čÆåØ) å·„å·é¾ ---- */
 153:BSP/uart_drv.c **** 
 154:BSP/uart_drv.c **** /* ē¦ēØåäø»ęŗęØ”å¼: ARM semihostingéčæč°čÆåØč®æé®äø»ęŗęä»¶ē³»ē»,
 155:BSP/uart_drv.c ****  * åµå„å¼ē¬ē«čæč”ę¶åæé”»ē¦ēØ,å¦åēØåŗä¼åØBKPTęä»¤å¤å”ę­» */
 156:BSP/uart_drv.c **** #pragma import(__use_no_semihosting)
 157:BSP/uart_drv.c **** 
 158:BSP/uart_drv.c **** /* MDKę ååŗéč¦ēęÆęē»ę: __FILEå__stdoutęÆfputcēä¾čµ */
 159:BSP/uart_drv.c **** struct __FILE { int handle; };
 160:BSP/uart_drv.c **** FILE __stdout;
 161:BSP/uart_drv.c **** 
 162:BSP/uart_drv.c **** /* åäø»ęŗęØ”å¼ēéåŗå½ę°(ē©ŗå®ē°,éæåé¾ę„ę„é) */
 163:BSP/uart_drv.c **** void _sys_exit(int x)
 164:BSP/uart_drv.c **** {
 165:BSP/uart_drv.c ****     x = x;
 166:BSP/uart_drv.c **** }
 167:BSP/uart_drv.c **** 
 168:BSP/uart_drv.c **** /**
 169:BSP/uart_drv.c ****  * @brief  MDK ARMCCę ååŗfputcéå®å,å°printfč¾åŗéå®åå°äø²å£
 170:BSP/uart_drv.c ****  * @param  ch å¾č¾åŗå­ē¬¦(ASCIIē )
 171:BSP/uart_drv.c ****  * @param  f  ęä»¶ęé(ęŖä½æēØ)
 172:BSP/uart_drv.c ****  * @retval č¾åŗēå­ē¬¦
 173:BSP/uart_drv.c ****  * @note   ARMCCēprintfåēęÆę%f,ę éé¢å¤é¾ę„ć
 174:BSP/uart_drv.c ****  *         MDKå·„ēØäø­éå¾é Options -> Target -> Use MicroLIB
 175:BSP/uart_drv.c ****  *         ęē”®äæę ååŗåå«ęµ®ē¹ę ¼å¼åęÆęć
 176:BSP/uart_drv.c ****  */
 177:BSP/uart_drv.c **** int fputc(int ch, FILE *f)
 178:BSP/uart_drv.c **** {
 179:BSP/uart_drv.c ****     (void)f;  /* ęå¶ęŖä½æēØåę°č­¦å */
 180:BSP/uart_drv.c ****     if (s_pDebugPort != NULL && s_pDebugPort->initialized)
 181:BSP/uart_drv.c ****     {
 182:BSP/uart_drv.c ****         HAL_UART_Transmit(s_pDebugPort->pUartHandle, (uint8_t *)&ch, 1, 0xFFFF);
 183:BSP/uart_drv.c ****     }
 184:BSP/uart_drv.c ****     return ch;
 185:BSP/uart_drv.c **** }
 186:BSP/uart_drv.c **** 
 187:BSP/uart_drv.c **** #endif /* __GNUC__ / __clang__ / ARMCC äøåęÆē»ę */
 188:BSP/uart_drv.c **** 
 189:BSP/uart_drv.c **** /* ====== åÆ¼åŗå½ę°å®ē° ====== */
 190:BSP/uart_drv.c **** 
 191:BSP/uart_drv.c **** /**
 192:BSP/uart_drv.c ****  * @brief  åå§åäø²å£é©±åØå®ä¾
 193:BSP/uart_drv.c ****  * @param  pDrv        ēØę·å®ä¹ēUartDrv_tå®ä¾ęé
 194:BSP/uart_drv.c ****  * @param  pUartHandle HAL UARTå„ę(ē±CubeMXēę,å¦&huart1)
 195:BSP/uart_drv.c ****  * @note   åå§åęµēØ:
 196:BSP/uart_drv.c ****  *         1. åę°åę³ę§ę£ę„
 197:BSP/uart_drv.c ****  *         2. ęøé¶å®ä¾ē»ę(ęęå­ę®µå½é¶)
 198:BSP/uart_drv.c ****  *         3. ē»å®UARTå„ęå°å®ä¾
 199:BSP/uart_drv.c ****  *         4. č®¾ē½®åå§åę åæ
 200:BSP/uart_drv.c ****  *         5. å°å®ä¾ę³Øåå°åéØéęč”Ø(ä¾åč°ååę¶ę„ę¾)
 201:BSP/uart_drv.c ****  */
ARM GAS  C:\Users\24120\AppData\Local\Temp\ccsfq6ok.s 			page 5


 202:BSP/uart_drv.c **** void UartDrv_Init(UartDrv_t *pDrv, UART_HandleTypeDef *pUartHandle)
 203:BSP/uart_drv.c **** {
 204:BSP/uart_drv.c ****     /* åę°ę ”éŖ: ęéäøŗē©ŗåē“ę„čæå */
 205:BSP/uart_drv.c ****     if (pDrv == NULL || pUartHandle == NULL)
 206:BSP/uart_drv.c ****         return;
 207:BSP/uart_drv.c **** 
 208:BSP/uart_drv.c ****     /* ęøé¶ē»ęä½,ē”®äæęęå­ę®µä»å¹²åē¶ęå¼å§ */
 209:BSP/uart_drv.c ****     memset(pDrv, 0, sizeof(UartDrv_t));
 210:BSP/uart_drv.c **** 
 211:BSP/uart_drv.c ****     /* ē»å®HAL UARTå„ę */
 212:BSP/uart_drv.c ****     pDrv->pUartHandle = pUartHandle;
 213:BSP/uart_drv.c **** 
 214:BSP/uart_drv.c ****     /* ę č®°å·²åå§å */
 215:BSP/uart_drv.c ****     pDrv->initialized = 1;
 216:BSP/uart_drv.c **** 
 217:BSP/uart_drv.c ****     /* ę³Øåå®ä¾å°éęč”Ø,ä¾RxEventDispatchę„ę¾ */
 218:BSP/uart_drv.c ****     if (s_drvCount < UART_DRV_MAX_INSTANCES)
 219:BSP/uart_drv.c ****     {
 220:BSP/uart_drv.c ****         s_drvInstances[s_drvCount++] = pDrv;
 221:BSP/uart_drv.c ****     }
 222:BSP/uart_drv.c **** }
 223:BSP/uart_drv.c **** 
 224:BSP/uart_drv.c **** /**
 225:BSP/uart_drv.c ****  * @brief  åÆåØäø²å£ę„ę¶(ē©ŗé²äø­ę­ę¹å¼)
 226:BSP/uart_drv.c ****  * @param  pDrv äø²å£é©±åØå®ä¾ęé
 227:BSP/uart_drv.c ****  * @note   äø¤ę­„åÆåØęµēØēåå :
 228:BSP/uart_drv.c ****  *         1. åč°ēØ HAL_UART_Receive_IT åÆåØę®éę„ę¶,åč°ēØ HAL_UART_AbortReceive_IT ä
 229:BSP/uart_drv.c ****  *            čæäøę­„ēē®ēęÆęøé¤HALåéØåÆč½ę®ēēę„ę¶ē¶ę(å¦äøę¬”å¼åøøäø­ę­
 230:BSP/uart_drv.c ****  *            ē”®äæåē»­ē ReceiveToIdle_IT č½ę­£åøøå·„ä½
 231:BSP/uart_drv.c ****  *         2. åč°ēØ HAL_UARTEx_ReceiveToIdle_IT åÆåØē©ŗé²äø­ę­ę„ę¶
 232:BSP/uart_drv.c ****  *            å½äø²å£ę»ēŗæē©ŗé²äøäøŖå­ē¬¦ę¶é“å,č§¦åäø­ę­,äøę¬”ę§čæåę“åø§ę°ę®
 233:BSP/uart_drv.c ****  *
 234:BSP/uart_drv.c ****  *         ę„ę¶åč°ē»ęå UartDrv_RxEventDispatch ä¼čŖåØéåÆę„ę¶,
 235:BSP/uart_drv.c ****  *         ēØę·ę éęåØå¾ŖēÆč°ēØę­¤å½ę°(é¤éč¦éę°åÆåØę„ę¶)
 236:BSP/uart_drv.c ****  */
 237:BSP/uart_drv.c **** void UartDrv_StartRecv(UartDrv_t *pDrv)
 238:BSP/uart_drv.c **** {
 239:BSP/uart_drv.c ****     if (pDrv == NULL || !pDrv->initialized)
 240:BSP/uart_drv.c ****         return;
 241:BSP/uart_drv.c **** 
 242:BSP/uart_drv.c ****     /* ē¬¬1ę­„: ååÆåØäøę¬”ę®éę„ę¶åäø­ę­¢,ęøé¤ä¹ååÆč½ę®ēēē¶ę */
 243:BSP/uart_drv.c ****     HAL_UART_Receive_IT(pDrv->pUartHandle, pDrv->rxData.rx_buf, UART_DRV_RX_BUF_SIZE - 1);
 244:BSP/uart_drv.c ****     HAL_UART_AbortReceive_IT(pDrv->pUartHandle);
 245:BSP/uart_drv.c **** 
 246:BSP/uart_drv.c ****     /* ē¬¬2ę­„: åÆåØē©ŗé²äø­ę­ę„ę¶(ēę­£ēå·„ä½ęØ”å¼) */
 247:BSP/uart_drv.c ****     HAL_UARTEx_ReceiveToIdle_IT(pDrv->pUartHandle, pDrv->rxData.rx_buf, UART_DRV_RX_BUF_SIZE - 1);
 248:BSP/uart_drv.c **** }
 249:BSP/uart_drv.c **** 
 250:BSP/uart_drv.c **** /**
 251:BSP/uart_drv.c ****  * @brief  åéę°ę®(é»å”ę¹å¼)
 252:BSP/uart_drv.c ****  * @param  pDrv  äø²å£é©±åØå®ä¾ęé
 253:BSP/uart_drv.c ****  * @param  pData å¾åéę°ę®ęé
 254:BSP/uart_drv.c ****  * @param  len   å¾åéę°ę®éæåŗ¦(å­č)
 255:BSP/uart_drv.c ****  * @note   åéØč°ēØ HAL_UART_Transmit,é»å”ē“å°åéå®ęęč¶ę¶ć
 256:BSP/uart_drv.c ****  *         č¶ę¶å¼äøŗ0xFFFF(ēŗ¦65ē§),äøč¬äøä¼č¶ę¶ć
 257:BSP/uart_drv.c ****  *         äøå»ŗč®®åØäø­ę­äøäøęäø­č°ēØ(åÆč½éæę¶é“é»å”)ć
 258:BSP/uart_drv.c ****  */
ARM GAS  C:\Users\24120\AppData\Local\Temp\ccsfq6ok.s 			page 6


 259:BSP/uart_drv.c **** void UartDrv_Send(UartDrv_t *pDrv, const uint8_t *pData, uint16_t len)
 260:BSP/uart_drv.c **** {
 261:BSP/uart_drv.c ****     /* åę°ę ”éŖ */
 262:BSP/uart_drv.c ****     if (pDrv == NULL || !pDrv->initialized || pData == NULL || len == 0)
 263:BSP/uart_drv.c ****         return;
 264:BSP/uart_drv.c **** 
 265:BSP/uart_drv.c ****     HAL_UART_Transmit(pDrv->pUartHandle, (uint8_t *)pData, len, 0xFFFF);
 266:BSP/uart_drv.c **** }
 267:BSP/uart_drv.c **** 
 268:BSP/uart_drv.c **** /**
 269:BSP/uart_drv.c ****  * @brief  åéå­ē¬¦äø²(é»å”ę¹å¼)
 270:BSP/uart_drv.c ****  * @param  pDrv äø²å£é©±åØå®ä¾ęé
 271:BSP/uart_drv.c ****  * @param  str  ä»„'\0'ē»å°¾ēå­ē¬¦äø²
 272:BSP/uart_drv.c ****  * @note   čŖåØč®”ē®å­ē¬¦äø²éæåŗ¦(strlen),åéØč°ēØUartDrv_Send
 273:BSP/uart_drv.c ****  */
 274:BSP/uart_drv.c **** void UartDrv_SendStr(UartDrv_t *pDrv, const char *str)
 275:BSP/uart_drv.c **** {
 276:BSP/uart_drv.c ****     if (pDrv == NULL || !pDrv->initialized || str == NULL)
 277:BSP/uart_drv.c ****         return;
 278:BSP/uart_drv.c **** 
 279:BSP/uart_drv.c ****     UartDrv_Send(pDrv, (const uint8_t *)str, (uint16_t)strlen(str));
 280:BSP/uart_drv.c **** }
 281:BSP/uart_drv.c **** 
 282:BSP/uart_drv.c **** /**
 283:BSP/uart_drv.c ****  * @brief  ę³Øåäø²å£ę„ę¶åč°å½ę°
 284:BSP/uart_drv.c ****  * @param  pDrv      äø²å£é©±åØå®ä¾ęé
 285:BSP/uart_drv.c ****  * @param  pCb       åč°å½ę°ęé(å½ę°ååč§ UartDrv_RxCallback_t)
 286:BSP/uart_drv.c ****  * @param  pUserCtx  ēØę·äøäøęęé,åč°ę¶åę ·ä¼ å,åÆä¼ NULL
 287:BSP/uart_drv.c ****  */
 288:BSP/uart_drv.c **** void UartDrv_RegisterRxCb(UartDrv_t *pDrv, UartDrv_RxCallback_t pCb, void *pUserCtx)
 289:BSP/uart_drv.c **** {
 290:BSP/uart_drv.c ****     if (pDrv == NULL || !pDrv->initialized)
 291:BSP/uart_drv.c ****         return;
 292:BSP/uart_drv.c **** 
 293:BSP/uart_drv.c ****     pDrv->pRxCb = pCb;
 294:BSP/uart_drv.c ****     pDrv->pUserCtx = pUserCtx;
 295:BSP/uart_drv.c **** }
 296:BSP/uart_drv.c **** 
 297:BSP/uart_drv.c **** #ifndef UART_DRV_NO_FREERTOS
 298:BSP/uart_drv.c **** /**
 299:BSP/uart_drv.c ****  * @brief  ę³Øåäø²å£ę„ę¶ę¶ęÆéå
 300:BSP/uart_drv.c ****  * @param  pDrv  äø²å£é©±åØå®ä¾ęé
 301:BSP/uart_drv.c ****  * @param  queue CMSIS-RTOS2 ę¶ęÆéåå„ę
 302:BSP/uart_drv.c ****  * @note   ę³Øåå,ęÆę¬”ē©ŗé²äø­ę­ę¶å°ę°ę®é½ä¼åčÆ„éååéäøäøŖ UartDrv_QueueEven
 303:BSP/uart_drv.c ****  */
 304:BSP/uart_drv.c **** void UartDrv_RegisterRxQueue(UartDrv_t *pDrv, osMessageQueueId_t queue)
 305:BSP/uart_drv.c **** {
 306:BSP/uart_drv.c ****     if (pDrv == NULL || !pDrv->initialized)
 307:BSP/uart_drv.c ****         return;
 308:BSP/uart_drv.c **** 
 309:BSP/uart_drv.c ****     pDrv->rxQueue = queue;
 310:BSP/uart_drv.c **** }
 311:BSP/uart_drv.c **** #endif
 312:BSP/uart_drv.c **** 
 313:BSP/uart_drv.c **** /**
 314:BSP/uart_drv.c ****  * @brief  äø²å£ę„ę¶äŗä»¶ååå½ę°
 315:BSP/uart_drv.c ****  * @param  huart č§¦åäŗä»¶ēUARTå„ę(ē±HALäø­ę­åč°ä¼ å„)
ARM GAS  C:\Users\24120\AppData\Local\Temp\ccsfq6ok.s 			page 7


 316:BSP/uart_drv.c ****  * @param  Size  ę„ę¶ę°ę®éæåŗ¦(ē±HALäø­ę­åč°ä¼ å„)
 317:BSP/uart_drv.c ****  * @note   å¤ēęµēØ:
 318:BSP/uart_drv.c ****  *         1. ę ¹ę®huartå„ęę„ę¾åÆ¹åŗēé©±åØå®ä¾(FindInstanceę„č”Ø)
 319:BSP/uart_drv.c ****  *         2. åØē¼å²åŗę«å°¾ę·»å '\0'ē»å°¾(ę¹ä¾æēØę·ä½äøŗå­ē¬¦äø²å¤ē)
 320:BSP/uart_drv.c ****  *         3. å¦ęēØę·ę³Øåäŗåč°,åč°ēØåč°å½ę°ä¼ éę°ę®
 321:BSP/uart_drv.c ****  *         4. č§£éUARTå„ę(é²ę­¢HALéę­»)å¹¶éåÆę„ę¶(äøŗäøäøåø§ååå¤)
 322:BSP/uart_drv.c ****  *
 323:BSP/uart_drv.c ****  *         ę­¤å½ę°ē±é»č®¤ē HAL_UARTEx_RxEventCallback čŖåØč°ēØ,
 324:BSP/uart_drv.c ****  *         ēØę·éåøøäøéč¦ęåØč°ēØć
 325:BSP/uart_drv.c ****  */
 326:BSP/uart_drv.c **** void UartDrv_RxEventDispatch(UART_HandleTypeDef *huart, uint16_t Size)
 327:BSP/uart_drv.c **** {
 328:BSP/uart_drv.c ****     /* ę ¹ę®UARTå„ęę„ę¾åÆ¹åŗēé©±åØå®ä¾ */
 329:BSP/uart_drv.c ****     UartDrv_t *pDrv = FindInstance(huart);
 330:BSP/uart_drv.c ****     if (pDrv == NULL || !pDrv->initialized)
 331:BSP/uart_drv.c ****         return;
 332:BSP/uart_drv.c **** 
 333:BSP/uart_drv.c ****     if (Size > 0)
 334:BSP/uart_drv.c ****     {
 335:BSP/uart_drv.c ****         /* åØę„ę¶ę°ę®ę«å°¾ę·»å å­ē¬¦äø²ē»ęē¬¦,ę¹ä¾æēØę·ē“ę„ēØstrstr/strcmpē­å¤ē
 336:BSP/uart_drv.c ****         pDrv->rxData.rx_buf[Size] = '\0';
 337:BSP/uart_drv.c ****         pDrv->rxData.rx_len = Size;
 338:BSP/uart_drv.c **** 
 339:BSP/uart_drv.c ****         /* č°ēØēØę·ę³Øåēåč°å½ę° */
 340:BSP/uart_drv.c **** #ifndef UART_DRV_NO_FREERTOS
 341:BSP/uart_drv.c ****         /* å¦ęę³Øåäŗę„ę¶éå,å°äŗä»¶(å«ę°ę®åÆę¬)åéå°éå(äø­ę­äø­äøē­å¾
 342:BSP/uart_drv.c ****         if (pDrv->rxQueue != NULL)
 343:BSP/uart_drv.c ****         {
 344:BSP/uart_drv.c ****             UartDrv_QueueEvent_t evt;
 345:BSP/uart_drv.c ****             evt.pDrv = pDrv;
 346:BSP/uart_drv.c ****             evt.len  = (Size > UART_DRV_QUEUE_DATA_SIZE) ? UART_DRV_QUEUE_DATA_SIZE : Size;
 347:BSP/uart_drv.c ****             memcpy(evt.data, pDrv->rxData.rx_buf, evt.len);
 348:BSP/uart_drv.c ****             osMessageQueuePut(pDrv->rxQueue, &evt, 0, 0);
 349:BSP/uart_drv.c ****         }
 350:BSP/uart_drv.c **** #endif
 351:BSP/uart_drv.c **** 
 352:BSP/uart_drv.c ****         if (pDrv->pRxCb)
 353:BSP/uart_drv.c ****         {
 354:BSP/uart_drv.c ****             pDrv->pRxCb(&pDrv->rxData, pDrv->pUserCtx);
 355:BSP/uart_drv.c ****         }
 356:BSP/uart_drv.c ****     }
 357:BSP/uart_drv.c **** 
 358:BSP/uart_drv.c ****     /* č§£éUARTå„ę: HAL_UARTEx_ReceiveToIdle_ITå®ęę„ę¶åä¼éä½å„ę,
 359:BSP/uart_drv.c ****      * äøč§£éåę ę³éę°åÆåØę„ę¶ćčæęÆHALåŗēäøäøŖē¹ę§,
 360:BSP/uart_drv.c ****      * ē“ę„ęä½ __HAL_UNLOCK å®ę„ē»čæHALēē¶ęę£ę„ */
 361:BSP/uart_drv.c ****     __HAL_UNLOCK(huart);
 362:BSP/uart_drv.c **** 
 363:BSP/uart_drv.c ****     /* éåÆę„ę¶: äøŗäøäøåø§ę°ę®ååå¤,å½¢ęčŖåØę„ę¶å¾ŖēÆ */
 364:BSP/uart_drv.c ****     HAL_UARTEx_ReceiveToIdle_IT(pDrv->pUartHandle, pDrv->rxData.rx_buf, UART_DRV_RX_BUF_SIZE - 1);
 365:BSP/uart_drv.c **** }
 366:BSP/uart_drv.c **** 
 367:BSP/uart_drv.c **** /* ====== ē§ęå½ę°å®ē° ====== */
 368:BSP/uart_drv.c **** 
 369:BSP/uart_drv.c **** /**
 370:BSP/uart_drv.c ****  * @brief  ę ¹ę®UARTå„ęę„ę¾åÆ¹åŗēé©±åØå®ä¾
 371:BSP/uart_drv.c ****  * @param  huart UARTå„ęęé(ē±HALäø­ę­åč°ä¼ å„)
 372:BSP/uart_drv.c ****  * @retval é©±åØå®ä¾ęé,ęŖę¾å°čæåNULL
ARM GAS  C:\Users\24120\AppData\Local\Temp\ccsfq6ok.s 			page 8


 373:BSP/uart_drv.c ****  * @note   éåéęę³Øåč”Ø s_drvInstances,ęÆč¾ęÆäøŖå®ä¾ē pUartHandle äøä¼ å„ē huar
 374:BSP/uart_drv.c ****  *         ē±äŗęÆäøŖäø²å£å¤č®¾ēå„ęå°åęÆåÆäøē,åÆä»„ēØęéęÆč¾ę„å¹é
 375:BSP/uart_drv.c ****  */
 376:BSP/uart_drv.c **** static UartDrv_t *FindInstance(UART_HandleTypeDef *huart)
 377:BSP/uart_drv.c **** {
  29              		.loc 1 377 1 view -0
  30              		.cfi_startproc
  31              		@ args = 0, pretend = 0, frame = 0
  32              		@ frame_needed = 0, uses_anonymous_args = 0
  33              		@ link register save eliminated.
  34              		.loc 1 377 1 is_stmt 0 view .LVU1
  35 0000 0146     		mov	r1, r0
 378:BSP/uart_drv.c ****     for (uint8_t i = 0; i < s_drvCount; i++)
  36              		.loc 1 378 5 is_stmt 1 view .LVU2
  37              	.LBB2:
  38              		.loc 1 378 10 view .LVU3
  39              	.LVL1:
  40              		.loc 1 378 18 is_stmt 0 view .LVU4
  41 0002 0023     		movs	r3, #0
  42              		.loc 1 378 5 view .LVU5
  43 0004 01E0     		b	.L2
  44              	.LVL2:
  45              	.L3:
  46              		.loc 1 378 42 is_stmt 1 discriminator 2 view .LVU6
  47 0006 0133     		adds	r3, r3, #1
  48              	.LVL3:
  49              		.loc 1 378 42 is_stmt 0 discriminator 2 view .LVU7
  50 0008 DBB2     		uxtb	r3, r3
  51              	.LVL4:
  52              	.L2:
  53              		.loc 1 378 27 is_stmt 1 discriminator 1 view .LVU8
  54 000a 074A     		ldr	r2, .L7
  55 000c 1278     		ldrb	r2, [r2]	@ zero_extendqisi2
  56 000e 9A42     		cmp	r2, r3
  57 0010 08D9     		bls	.L6
 379:BSP/uart_drv.c ****     {
 380:BSP/uart_drv.c ****         if (s_drvInstances[i] != NULL && s_drvInstances[i]->pUartHandle == huart)
  58              		.loc 1 380 9 view .LVU9
  59              		.loc 1 380 27 is_stmt 0 view .LVU10
  60 0012 064A     		ldr	r2, .L7+4
  61 0014 52F82300 		ldr	r0, [r2, r3, lsl #2]
  62              		.loc 1 380 12 view .LVU11
  63 0018 0028     		cmp	r0, #0
  64 001a F4D0     		beq	.L3
  65              		.loc 1 380 59 discriminator 1 view .LVU12
  66 001c 0268     		ldr	r2, [r0]
  67              		.loc 1 380 39 discriminator 1 view .LVU13
  68 001e 8A42     		cmp	r2, r1
  69 0020 F1D1     		bne	.L3
  70 0022 00E0     		b	.L1
  71              	.L6:
  72              		.loc 1 380 39 discriminator 1 view .LVU14
  73              	.LBE2:
 381:BSP/uart_drv.c ****         {
 382:BSP/uart_drv.c ****             return s_drvInstances[i];
 383:BSP/uart_drv.c ****         }
 384:BSP/uart_drv.c ****     }
ARM GAS  C:\Users\24120\AppData\Local\Temp\ccsfq6ok.s 			page 9


 385:BSP/uart_drv.c ****     return NULL;  /* ęŖę¾å°å¹éēå®ä¾,åÆč½ęÆęŖę³Øåēäø²å£č§¦åäŗäø­ę­ */
  74              		.loc 1 385 12 view .LVU15
  75 0024 0020     		movs	r0, #0
  76              	.L1:
 386:BSP/uart_drv.c **** }
  77              		.loc 1 386 1 view .LVU16
  78 0026 7047     		bx	lr
  79              	.L8:
  80              		.align	2
  81              	.L7:
  82 0028 00000000 		.word	s_drvCount
  83 002c 00000000 		.word	s_drvInstances
  84              		.cfi_endproc
  85              	.LFE254:
  87              		.section	.text._write,"ax",%progbits
  88              		.align	1
  89              		.global	_write
  90              		.syntax unified
  91              		.thumb
  92              		.thumb_func
  94              	_write:
  95              	.LVL5:
  96              	.LFB246:
  78:BSP/uart_drv.c ****     (void)fd;  /* ęå¶ęŖä½æēØåę°č­¦å */
  97              		.loc 1 78 1 is_stmt 1 view -0
  98              		.cfi_startproc
  99              		@ args = 0, pretend = 0, frame = 0
 100              		@ frame_needed = 0, uses_anonymous_args = 0
  78:BSP/uart_drv.c ****     (void)fd;  /* ęå¶ęŖä½æēØåę°č­¦å */
 101              		.loc 1 78 1 is_stmt 0 view .LVU18
 102 0000 10B5     		push	{r4, lr}
 103              	.LCFI0:
 104              		.cfi_def_cfa_offset 8
 105              		.cfi_offset 4, -8
 106              		.cfi_offset 14, -4
 107 0002 1446     		mov	r4, r2
  79:BSP/uart_drv.c ****     if (s_pDebugPort != NULL && s_pDebugPort->initialized)
 108              		.loc 1 79 5 is_stmt 1 view .LVU19
  80:BSP/uart_drv.c ****     {
 109              		.loc 1 80 5 view .LVU20
  80:BSP/uart_drv.c ****     {
 110              		.loc 1 80 22 is_stmt 0 view .LVU21
 111 0004 074B     		ldr	r3, .L13
 112 0006 1868     		ldr	r0, [r3]
 113              	.LVL6:
  80:BSP/uart_drv.c ****     {
 114              		.loc 1 80 8 view .LVU22
 115 0008 10B1     		cbz	r0, .L10
  80:BSP/uart_drv.c ****     {
 116              		.loc 1 80 45 discriminator 1 view .LVU23
 117 000a 90F81432 		ldrb	r3, [r0, #532]	@ zero_extendqisi2
  80:BSP/uart_drv.c ****     {
 118              		.loc 1 80 30 discriminator 1 view .LVU24
 119 000e 0BB9     		cbnz	r3, .L12
 120              	.LVL7:
 121              	.L10:
  85:BSP/uart_drv.c **** }
ARM GAS  C:\Users\24120\AppData\Local\Temp\ccsfq6ok.s 			page 10


 122              		.loc 1 85 5 is_stmt 1 view .LVU25
  86:BSP/uart_drv.c **** 
 123              		.loc 1 86 1 is_stmt 0 view .LVU26
 124 0010 2046     		mov	r0, r4
 125 0012 10BD     		pop	{r4, pc}
 126              	.LVL8:
 127              	.L12:
  83:BSP/uart_drv.c ****     }
 128              		.loc 1 83 9 is_stmt 1 view .LVU27
 129 0014 4FF6FF73 		movw	r3, #65535
 130 0018 92B2     		uxth	r2, r2
 131              	.LVL9:
  83:BSP/uart_drv.c ****     }
 132              		.loc 1 83 9 is_stmt 0 view .LVU28
 133 001a 0068     		ldr	r0, [r0]
 134 001c FFF7FEFF 		bl	HAL_UART_Transmit
 135              	.LVL10:
  83:BSP/uart_drv.c ****     }
 136              		.loc 1 83 9 view .LVU29
 137 0020 F6E7     		b	.L10
 138              	.L14:
 139 0022 00BF     		.align	2
 140              	.L13:
 141 0024 00000000 		.word	s_pDebugPort
 142              		.cfi_endproc
 143              	.LFE246:
 145              		.section	.text.UartDrv_Init,"ax",%progbits
 146              		.align	1
 147              		.global	UartDrv_Init
 148              		.syntax unified
 149              		.thumb
 150              		.thumb_func
 152              	UartDrv_Init:
 153              	.LVL11:
 154              	.LFB247:
 203:BSP/uart_drv.c ****     /* åę°ę ”éŖ: ęéäøŗē©ŗåē“ę„čæå */
 155              		.loc 1 203 1 is_stmt 1 view -0
 156              		.cfi_startproc
 157              		@ args = 0, pretend = 0, frame = 0
 158              		@ frame_needed = 0, uses_anonymous_args = 0
 205:BSP/uart_drv.c ****         return;
 159              		.loc 1 205 5 view .LVU31
 205:BSP/uart_drv.c ****         return;
 160              		.loc 1 205 8 is_stmt 0 view .LVU32
 161 0000 B8B1     		cbz	r0, .L18
 203:BSP/uart_drv.c ****     /* åę°ę ”éŖ: ęéäøŗē©ŗåē“ę„čæå */
 162              		.loc 1 203 1 view .LVU33
 163 0002 38B5     		push	{r3, r4, r5, lr}
 164              	.LCFI1:
 165              		.cfi_def_cfa_offset 16
 166              		.cfi_offset 3, -16
 167              		.cfi_offset 4, -12
 168              		.cfi_offset 5, -8
 169              		.cfi_offset 14, -4
 170 0004 0C46     		mov	r4, r1
 171 0006 0546     		mov	r5, r0
 205:BSP/uart_drv.c ****         return;
ARM GAS  C:\Users\24120\AppData\Local\Temp\ccsfq6ok.s 			page 11


 172              		.loc 1 205 22 discriminator 1 view .LVU34
 173 0008 91B1     		cbz	r1, .L15
 209:BSP/uart_drv.c **** 
 174              		.loc 1 209 5 is_stmt 1 view .LVU35
 175 000a 4FF40672 		mov	r2, #536
 176 000e 0021     		movs	r1, #0
 177              	.LVL12:
 209:BSP/uart_drv.c **** 
 178              		.loc 1 209 5 is_stmt 0 view .LVU36
 179 0010 FFF7FEFF 		bl	memset
 180              	.LVL13:
 212:BSP/uart_drv.c **** 
 181              		.loc 1 212 5 is_stmt 1 view .LVU37
 212:BSP/uart_drv.c **** 
 182              		.loc 1 212 23 is_stmt 0 view .LVU38
 183 0014 2C60     		str	r4, [r5]
 215:BSP/uart_drv.c **** 
 184              		.loc 1 215 5 is_stmt 1 view .LVU39
 215:BSP/uart_drv.c **** 
 185              		.loc 1 215 23 is_stmt 0 view .LVU40
 186 0016 0123     		movs	r3, #1
 187 0018 85F81432 		strb	r3, [r5, #532]
 218:BSP/uart_drv.c ****     {
 188              		.loc 1 218 5 is_stmt 1 view .LVU41
 218:BSP/uart_drv.c ****     {
 189              		.loc 1 218 20 is_stmt 0 view .LVU42
 190 001c 054B     		ldr	r3, .L21
 191 001e 1B78     		ldrb	r3, [r3]	@ zero_extendqisi2
 218:BSP/uart_drv.c ****     {
 192              		.loc 1 218 8 view .LVU43
 193 0020 072B     		cmp	r3, #7
 194 0022 05D8     		bhi	.L15
 220:BSP/uart_drv.c ****     }
 195              		.loc 1 220 9 is_stmt 1 view .LVU44
 220:BSP/uart_drv.c ****     }
 196              		.loc 1 220 34 is_stmt 0 view .LVU45
 197 0024 591C     		adds	r1, r3, #1
 198 0026 034A     		ldr	r2, .L21
 199 0028 1170     		strb	r1, [r2]
 220:BSP/uart_drv.c ****     }
 200              		.loc 1 220 38 view .LVU46
 201 002a 034A     		ldr	r2, .L21+4
 202 002c 42F82350 		str	r5, [r2, r3, lsl #2]
 203              	.L15:
 222:BSP/uart_drv.c **** 
 204              		.loc 1 222 1 view .LVU47
 205 0030 38BD     		pop	{r3, r4, r5, pc}
 206              	.LVL14:
 207              	.L18:
 208              	.LCFI2:
 209              		.cfi_def_cfa_offset 0
 210              		.cfi_restore 3
 211              		.cfi_restore 4
 212              		.cfi_restore 5
 213              		.cfi_restore 14
 222:BSP/uart_drv.c **** 
 214              		.loc 1 222 1 view .LVU48
ARM GAS  C:\Users\24120\AppData\Local\Temp\ccsfq6ok.s 			page 12


 215 0032 7047     		bx	lr
 216              	.L22:
 217              		.align	2
 218              	.L21:
 219 0034 00000000 		.word	s_drvCount
 220 0038 00000000 		.word	s_drvInstances
 221              		.cfi_endproc
 222              	.LFE247:
 224              		.section	.text.UartDrv_StartRecv,"ax",%progbits
 225              		.align	1
 226              		.global	UartDrv_StartRecv
 227              		.syntax unified
 228              		.thumb
 229              		.thumb_func
 231              	UartDrv_StartRecv:
 232              	.LVL15:
 233              	.LFB248:
 238:BSP/uart_drv.c ****     if (pDrv == NULL || !pDrv->initialized)
 234              		.loc 1 238 1 is_stmt 1 view -0
 235              		.cfi_startproc
 236              		@ args = 0, pretend = 0, frame = 0
 237              		@ frame_needed = 0, uses_anonymous_args = 0
 239:BSP/uart_drv.c ****         return;
 238              		.loc 1 239 5 view .LVU50
 239:BSP/uart_drv.c ****         return;
 239              		.loc 1 239 8 is_stmt 0 view .LVU51
 240 0000 B8B1     		cbz	r0, .L26
 238:BSP/uart_drv.c ****     if (pDrv == NULL || !pDrv->initialized)
 241              		.loc 1 238 1 view .LVU52
 242 0002 38B5     		push	{r3, r4, r5, lr}
 243              	.LCFI3:
 244              		.cfi_def_cfa_offset 16
 245              		.cfi_offset 3, -16
 246              		.cfi_offset 4, -12
 247              		.cfi_offset 5, -8
 248              		.cfi_offset 14, -4
 249 0004 0446     		mov	r4, r0
 239:BSP/uart_drv.c ****         return;
 250              		.loc 1 239 30 discriminator 1 view .LVU53
 251 0006 90F81432 		ldrb	r3, [r0, #532]	@ zero_extendqisi2
 239:BSP/uart_drv.c ****         return;
 252              		.loc 1 239 22 discriminator 1 view .LVU54
 253 000a 03B9     		cbnz	r3, .L29
 254              	.LVL16:
 255              	.L23:
 248:BSP/uart_drv.c **** 
 256              		.loc 1 248 1 view .LVU55
 257 000c 38BD     		pop	{r3, r4, r5, pc}
 258              	.LVL17:
 259              	.L29:
 243:BSP/uart_drv.c ****     HAL_UART_AbortReceive_IT(pDrv->pUartHandle);
 260              		.loc 1 243 5 is_stmt 1 view .LVU56
 243:BSP/uart_drv.c ****     HAL_UART_AbortReceive_IT(pDrv->pUartHandle);
 261              		.loc 1 243 56 is_stmt 0 view .LVU57
 262 000e 0546     		mov	r5, r0
 243:BSP/uart_drv.c ****     HAL_UART_AbortReceive_IT(pDrv->pUartHandle);
 263              		.loc 1 243 5 view .LVU58
ARM GAS  C:\Users\24120\AppData\Local\Temp\ccsfq6ok.s 			page 13


 264 0010 55F8060B 		ldr	r0, [r5], #6
 265              	.LVL18:
 243:BSP/uart_drv.c ****     HAL_UART_AbortReceive_IT(pDrv->pUartHandle);
 266              		.loc 1 243 5 view .LVU59
 267 0014 40F2FF12 		movw	r2, #511
 268 0018 2946     		mov	r1, r5
 269 001a FFF7FEFF 		bl	HAL_UART_Receive_IT
 270              	.LVL19:
 244:BSP/uart_drv.c **** 
 271              		.loc 1 244 5 is_stmt 1 view .LVU60
 272 001e 2068     		ldr	r0, [r4]
 273 0020 FFF7FEFF 		bl	HAL_UART_AbortReceive_IT
 274              	.LVL20:
 247:BSP/uart_drv.c **** }
 275              		.loc 1 247 5 view .LVU61
 276 0024 40F2FF12 		movw	r2, #511
 277 0028 2946     		mov	r1, r5
 278 002a 2068     		ldr	r0, [r4]
 279 002c FFF7FEFF 		bl	HAL_UARTEx_ReceiveToIdle_IT
 280              	.LVL21:
 281 0030 ECE7     		b	.L23
 282              	.LVL22:
 283              	.L26:
 284              	.LCFI4:
 285              		.cfi_def_cfa_offset 0
 286              		.cfi_restore 3
 287              		.cfi_restore 4
 288              		.cfi_restore 5
 289              		.cfi_restore 14
 247:BSP/uart_drv.c **** }
 290              		.loc 1 247 5 is_stmt 0 view .LVU62
 291 0032 7047     		bx	lr
 292              		.cfi_endproc
 293              	.LFE248:
 295              		.section	.text.UartDrv_Send,"ax",%progbits
 296              		.align	1
 297              		.global	UartDrv_Send
 298              		.syntax unified
 299              		.thumb
 300              		.thumb_func
 302              	UartDrv_Send:
 303              	.LVL23:
 304              	.LFB249:
 260:BSP/uart_drv.c ****     /* åę°ę ”éŖ */
 305              		.loc 1 260 1 is_stmt 1 view -0
 306              		.cfi_startproc
 307              		@ args = 0, pretend = 0, frame = 0
 308              		@ frame_needed = 0, uses_anonymous_args = 0
 262:BSP/uart_drv.c ****         return;
 309              		.loc 1 262 5 view .LVU64
 262:BSP/uart_drv.c ****         return;
 310              		.loc 1 262 8 is_stmt 0 view .LVU65
 311 0000 60B1     		cbz	r0, .L33
 260:BSP/uart_drv.c ****     /* åę°ę ”éŖ */
 312              		.loc 1 260 1 view .LVU66
 313 0002 08B5     		push	{r3, lr}
 314              	.LCFI5:
ARM GAS  C:\Users\24120\AppData\Local\Temp\ccsfq6ok.s 			page 14


 315              		.cfi_def_cfa_offset 8
 316              		.cfi_offset 3, -8
 317              		.cfi_offset 14, -4
 262:BSP/uart_drv.c ****         return;
 318              		.loc 1 262 30 discriminator 1 view .LVU67
 319 0004 90F81432 		ldrb	r3, [r0, #532]	@ zero_extendqisi2
 262:BSP/uart_drv.c ****         return;
 320              		.loc 1 262 22 discriminator 1 view .LVU68
 321 0008 0BB1     		cbz	r3, .L30
 262:BSP/uart_drv.c ****         return;
 322              		.loc 1 262 44 discriminator 2 view .LVU69
 323 000a 01B1     		cbz	r1, .L30
 262:BSP/uart_drv.c ****         return;
 324              		.loc 1 262 61 discriminator 3 view .LVU70
 325 000c 02B9     		cbnz	r2, .L36
 326              	.LVL24:
 327              	.L30:
 266:BSP/uart_drv.c **** 
 328              		.loc 1 266 1 view .LVU71
 329 000e 08BD     		pop	{r3, pc}
 330              	.LVL25:
 331              	.L36:
 265:BSP/uart_drv.c **** }
 332              		.loc 1 265 5 is_stmt 1 view .LVU72
 333 0010 4FF6FF73 		movw	r3, #65535
 334 0014 0068     		ldr	r0, [r0]
 335              	.LVL26:
 265:BSP/uart_drv.c **** }
 336              		.loc 1 265 5 is_stmt 0 view .LVU73
 337 0016 FFF7FEFF 		bl	HAL_UART_Transmit
 338              	.LVL27:
 265:BSP/uart_drv.c **** }
 339              		.loc 1 265 5 view .LVU74
 340 001a F8E7     		b	.L30
 341              	.LVL28:
 342              	.L33:
 343              	.LCFI6:
 344              		.cfi_def_cfa_offset 0
 345              		.cfi_restore 3
 346              		.cfi_restore 14
 265:BSP/uart_drv.c **** }
 347              		.loc 1 265 5 view .LVU75
 348 001c 7047     		bx	lr
 349              		.cfi_endproc
 350              	.LFE249:
 352              		.section	.text.UartDrv_SendStr,"ax",%progbits
 353              		.align	1
 354              		.global	UartDrv_SendStr
 355              		.syntax unified
 356              		.thumb
 357              		.thumb_func
 359              	UartDrv_SendStr:
 360              	.LVL29:
 361              	.LFB250:
 275:BSP/uart_drv.c ****     if (pDrv == NULL || !pDrv->initialized || str == NULL)
 362              		.loc 1 275 1 is_stmt 1 view -0
 363              		.cfi_startproc
ARM GAS  C:\Users\24120\AppData\Local\Temp\ccsfq6ok.s 			page 15


 364              		@ args = 0, pretend = 0, frame = 0
 365              		@ frame_needed = 0, uses_anonymous_args = 0
 276:BSP/uart_drv.c ****         return;
 366              		.loc 1 276 5 view .LVU77
 276:BSP/uart_drv.c ****         return;
 367              		.loc 1 276 8 is_stmt 0 view .LVU78
 368 0000 78B1     		cbz	r0, .L40
 275:BSP/uart_drv.c ****     if (pDrv == NULL || !pDrv->initialized || str == NULL)
 369              		.loc 1 275 1 view .LVU79
 370 0002 38B5     		push	{r3, r4, r5, lr}
 371              	.LCFI7:
 372              		.cfi_def_cfa_offset 16
 373              		.cfi_offset 3, -16
 374              		.cfi_offset 4, -12
 375              		.cfi_offset 5, -8
 376              		.cfi_offset 14, -4
 377 0004 0C46     		mov	r4, r1
 378 0006 0546     		mov	r5, r0
 276:BSP/uart_drv.c ****         return;
 379              		.loc 1 276 30 discriminator 1 view .LVU80
 380 0008 90F81432 		ldrb	r3, [r0, #532]	@ zero_extendqisi2
 276:BSP/uart_drv.c ****         return;
 381              		.loc 1 276 22 discriminator 1 view .LVU81
 382 000c 43B1     		cbz	r3, .L37
 276:BSP/uart_drv.c ****         return;
 383              		.loc 1 276 44 discriminator 2 view .LVU82
 384 000e 39B1     		cbz	r1, .L37
 279:BSP/uart_drv.c **** }
 385              		.loc 1 279 5 is_stmt 1 view .LVU83
 279:BSP/uart_drv.c **** }
 386              		.loc 1 279 56 is_stmt 0 view .LVU84
 387 0010 0846     		mov	r0, r1
 388              	.LVL30:
 279:BSP/uart_drv.c **** }
 389              		.loc 1 279 56 view .LVU85
 390 0012 FFF7FEFF 		bl	strlen
 391              	.LVL31:
 279:BSP/uart_drv.c **** }
 392              		.loc 1 279 5 discriminator 1 view .LVU86
 393 0016 82B2     		uxth	r2, r0
 394 0018 2146     		mov	r1, r4
 395 001a 2846     		mov	r0, r5
 396 001c FFF7FEFF 		bl	UartDrv_Send
 397              	.LVL32:
 398              	.L37:
 280:BSP/uart_drv.c **** 
 399              		.loc 1 280 1 view .LVU87
 400 0020 38BD     		pop	{r3, r4, r5, pc}
 401              	.LVL33:
 402              	.L40:
 403              	.LCFI8:
 404              		.cfi_def_cfa_offset 0
 405              		.cfi_restore 3
 406              		.cfi_restore 4
 407              		.cfi_restore 5
 408              		.cfi_restore 14
 280:BSP/uart_drv.c **** 
ARM GAS  C:\Users\24120\AppData\Local\Temp\ccsfq6ok.s 			page 16


 409              		.loc 1 280 1 view .LVU88
 410 0022 7047     		bx	lr
 411              		.cfi_endproc
 412              	.LFE250:
 414              		.section	.text.UartDrv_RegisterRxCb,"ax",%progbits
 415              		.align	1
 416              		.global	UartDrv_RegisterRxCb
 417              		.syntax unified
 418              		.thumb
 419              		.thumb_func
 421              	UartDrv_RegisterRxCb:
 422              	.LVL34:
 423              	.LFB251:
 289:BSP/uart_drv.c ****     if (pDrv == NULL || !pDrv->initialized)
 424              		.loc 1 289 1 is_stmt 1 view -0
 425              		.cfi_startproc
 426              		@ args = 0, pretend = 0, frame = 0
 427              		@ frame_needed = 0, uses_anonymous_args = 0
 428              		@ link register save eliminated.
 290:BSP/uart_drv.c ****         return;
 429              		.loc 1 290 5 view .LVU90
 290:BSP/uart_drv.c ****         return;
 430              		.loc 1 290 8 is_stmt 0 view .LVU91
 431 0000 0346     		mov	r3, r0
 432 0002 30B1     		cbz	r0, .L43
 290:BSP/uart_drv.c ****         return;
 433              		.loc 1 290 30 discriminator 1 view .LVU92
 434 0004 90F81402 		ldrb	r0, [r0, #532]	@ zero_extendqisi2
 435              	.LVL35:
 290:BSP/uart_drv.c ****         return;
 436              		.loc 1 290 22 discriminator 1 view .LVU93
 437 0008 18B1     		cbz	r0, .L43
 293:BSP/uart_drv.c ****     pDrv->pUserCtx = pUserCtx;
 438              		.loc 1 293 5 is_stmt 1 view .LVU94
 293:BSP/uart_drv.c ****     pDrv->pUserCtx = pUserCtx;
 439              		.loc 1 293 17 is_stmt 0 view .LVU95
 440 000a C3F80812 		str	r1, [r3, #520]
 294:BSP/uart_drv.c **** }
 441              		.loc 1 294 5 is_stmt 1 view .LVU96
 294:BSP/uart_drv.c **** }
 442              		.loc 1 294 20 is_stmt 0 view .LVU97
 443 000e C3F80C22 		str	r2, [r3, #524]
 444              	.L43:
 295:BSP/uart_drv.c **** 
 445              		.loc 1 295 1 view .LVU98
 446 0012 7047     		bx	lr
 447              		.cfi_endproc
 448              	.LFE251:
 450              		.section	.text.UartDrv_RegisterRxQueue,"ax",%progbits
 451              		.align	1
 452              		.global	UartDrv_RegisterRxQueue
 453              		.syntax unified
 454              		.thumb
 455              		.thumb_func
 457              	UartDrv_RegisterRxQueue:
 458              	.LVL36:
 459              	.LFB252:
ARM GAS  C:\Users\24120\AppData\Local\Temp\ccsfq6ok.s 			page 17


 305:BSP/uart_drv.c ****     if (pDrv == NULL || !pDrv->initialized)
 460              		.loc 1 305 1 is_stmt 1 view -0
 461              		.cfi_startproc
 462              		@ args = 0, pretend = 0, frame = 0
 463              		@ frame_needed = 0, uses_anonymous_args = 0
 464              		@ link register save eliminated.
 306:BSP/uart_drv.c ****         return;
 465              		.loc 1 306 5 view .LVU100
 306:BSP/uart_drv.c ****         return;
 466              		.loc 1 306 8 is_stmt 0 view .LVU101
 467 0000 20B1     		cbz	r0, .L45
 306:BSP/uart_drv.c ****         return;
 468              		.loc 1 306 30 discriminator 1 view .LVU102
 469 0002 90F81422 		ldrb	r2, [r0, #532]	@ zero_extendqisi2
 306:BSP/uart_drv.c ****         return;
 470              		.loc 1 306 22 discriminator 1 view .LVU103
 471 0006 0AB1     		cbz	r2, .L45
 309:BSP/uart_drv.c **** }
 472              		.loc 1 309 5 is_stmt 1 view .LVU104
 309:BSP/uart_drv.c **** }
 473              		.loc 1 309 19 is_stmt 0 view .LVU105
 474 0008 C0F81012 		str	r1, [r0, #528]
 475              	.L45:
 310:BSP/uart_drv.c **** #endif
 476              		.loc 1 310 1 view .LVU106
 477 000c 7047     		bx	lr
 478              		.cfi_endproc
 479              	.LFE252:
 481              		.section	.text.UartDrv_RxEventDispatch,"ax",%progbits
 482              		.align	1
 483              		.global	UartDrv_RxEventDispatch
 484              		.syntax unified
 485              		.thumb
 486              		.thumb_func
 488              	UartDrv_RxEventDispatch:
 489              	.LVL37:
 490              	.LFB253:
 327:BSP/uart_drv.c ****     /* ę ¹ę®UARTå„ęę„ę¾åÆ¹åŗēé©±åØå®ä¾ */
 491              		.loc 1 327 1 is_stmt 1 view -0
 492              		.cfi_startproc
 493              		@ args = 0, pretend = 0, frame = 520
 494              		@ frame_needed = 0, uses_anonymous_args = 0
 327:BSP/uart_drv.c ****     /* ę ¹ę®UARTå„ęę„ę¾åÆ¹åŗēé©±åØå®ä¾ */
 495              		.loc 1 327 1 is_stmt 0 view .LVU108
 496 0000 F0B5     		push	{r4, r5, r6, r7, lr}
 497              	.LCFI9:
 498              		.cfi_def_cfa_offset 20
 499              		.cfi_offset 4, -20
 500              		.cfi_offset 5, -16
 501              		.cfi_offset 6, -12
 502              		.cfi_offset 7, -8
 503              		.cfi_offset 14, -4
 504 0002 ADF5037D 		sub	sp, sp, #524
 505              	.LCFI10:
 506              		.cfi_def_cfa_offset 544
 507 0006 0646     		mov	r6, r0
 508 0008 0D46     		mov	r5, r1
ARM GAS  C:\Users\24120\AppData\Local\Temp\ccsfq6ok.s 			page 18


 329:BSP/uart_drv.c ****     if (pDrv == NULL || !pDrv->initialized)
 509              		.loc 1 329 5 is_stmt 1 view .LVU109
 329:BSP/uart_drv.c ****     if (pDrv == NULL || !pDrv->initialized)
 510              		.loc 1 329 23 is_stmt 0 view .LVU110
 511 000a FFF7FEFF 		bl	FindInstance
 512              	.LVL38:
 330:BSP/uart_drv.c ****         return;
 513              		.loc 1 330 5 is_stmt 1 view .LVU111
 330:BSP/uart_drv.c ****         return;
 514              		.loc 1 330 8 is_stmt 0 view .LVU112
 515 000e 88B3     		cbz	r0, .L47
 516 0010 0446     		mov	r4, r0
 330:BSP/uart_drv.c ****         return;
 517              		.loc 1 330 30 discriminator 1 view .LVU113
 518 0012 90F81432 		ldrb	r3, [r0, #532]	@ zero_extendqisi2
 330:BSP/uart_drv.c ****         return;
 519              		.loc 1 330 22 discriminator 1 view .LVU114
 520 0016 6BB3     		cbz	r3, .L47
 333:BSP/uart_drv.c ****     {
 521              		.loc 1 333 5 is_stmt 1 view .LVU115
 333:BSP/uart_drv.c ****     {
 522              		.loc 1 333 8 is_stmt 0 view .LVU116
 523 0018 15B3     		cbz	r5, .L49
 336:BSP/uart_drv.c ****         pDrv->rxData.rx_len = Size;
 524              		.loc 1 336 9 is_stmt 1 view .LVU117
 336:BSP/uart_drv.c ****         pDrv->rxData.rx_len = Size;
 525              		.loc 1 336 35 is_stmt 0 view .LVU118
 526 001a 4319     		adds	r3, r0, r5
 527 001c 0022     		movs	r2, #0
 528 001e 9A71     		strb	r2, [r3, #6]
 337:BSP/uart_drv.c **** 
 529              		.loc 1 337 9 is_stmt 1 view .LVU119
 337:BSP/uart_drv.c **** 
 530              		.loc 1 337 29 is_stmt 0 view .LVU120
 531 0020 8580     		strh	r5, [r0, #4]	@ movhi
 342:BSP/uart_drv.c ****         {
 532              		.loc 1 342 9 is_stmt 1 view .LVU121
 342:BSP/uart_drv.c ****         {
 533              		.loc 1 342 17 is_stmt 0 view .LVU122
 534 0022 D0F81032 		ldr	r3, [r0, #528]
 342:BSP/uart_drv.c ****         {
 535              		.loc 1 342 12 view .LVU123
 536 0026 A3B1     		cbz	r3, .L50
 537              	.LBB3:
 344:BSP/uart_drv.c ****             evt.pDrv = pDrv;
 538              		.loc 1 344 13 is_stmt 1 view .LVU124
 345:BSP/uart_drv.c ****             evt.len  = (Size > UART_DRV_QUEUE_DATA_SIZE) ? UART_DRV_QUEUE_DATA_SIZE : Size;
 539              		.loc 1 345 13 view .LVU125
 345:BSP/uart_drv.c ****             evt.len  = (Size > UART_DRV_QUEUE_DATA_SIZE) ? UART_DRV_QUEUE_DATA_SIZE : Size;
 540              		.loc 1 345 22 is_stmt 0 view .LVU126
 541 0028 0090     		str	r0, [sp]
 346:BSP/uart_drv.c ****             memcpy(evt.data, pDrv->rxData.rx_buf, evt.len);
 542              		.loc 1 346 13 is_stmt 1 view .LVU127
 346:BSP/uart_drv.c ****             memcpy(evt.data, pDrv->rxData.rx_buf, evt.len);
 543              		.loc 1 346 85 is_stmt 0 view .LVU128
 544 002a 2A46     		mov	r2, r5
 545 002c B5F5007F 		cmp	r5, #512
ARM GAS  C:\Users\24120\AppData\Local\Temp\ccsfq6ok.s 			page 19


 546 0030 28BF     		it	cs
 547 0032 4FF40072 		movcs	r2, #512
 346:BSP/uart_drv.c ****             memcpy(evt.data, pDrv->rxData.rx_buf, evt.len);
 548              		.loc 1 346 22 view .LVU129
 549 0036 ADF80420 		strh	r2, [sp, #4]	@ movhi
 347:BSP/uart_drv.c ****             osMessageQueuePut(pDrv->rxQueue, &evt, 0, 0);
 550              		.loc 1 347 13 is_stmt 1 view .LVU130
 551 003a 811D     		adds	r1, r0, #6
 552 003c 0DF10600 		add	r0, sp, #6
 553              	.LVL39:
 347:BSP/uart_drv.c ****             osMessageQueuePut(pDrv->rxQueue, &evt, 0, 0);
 554              		.loc 1 347 13 is_stmt 0 view .LVU131
 555 0040 FFF7FEFF 		bl	memcpy
 556              	.LVL40:
 348:BSP/uart_drv.c ****         }
 557              		.loc 1 348 13 is_stmt 1 view .LVU132
 558 0044 0023     		movs	r3, #0
 559 0046 1A46     		mov	r2, r3
 560 0048 6946     		mov	r1, sp
 561 004a D4F81002 		ldr	r0, [r4, #528]
 562 004e FFF7FEFF 		bl	osMessageQueuePut
 563              	.LVL41:
 564              	.L50:
 565              	.LBE3:
 352:BSP/uart_drv.c ****         {
 566              		.loc 1 352 9 view .LVU133
 352:BSP/uart_drv.c ****         {
 567              		.loc 1 352 17 is_stmt 0 view .LVU134
 568 0052 D4F80832 		ldr	r3, [r4, #520]
 352:BSP/uart_drv.c ****         {
 569              		.loc 1 352 12 view .LVU135
 570 0056 1BB1     		cbz	r3, .L49
 354:BSP/uart_drv.c ****         }
 571              		.loc 1 354 13 is_stmt 1 view .LVU136
 572 0058 D4F80C12 		ldr	r1, [r4, #524]
 573 005c 201D     		adds	r0, r4, #4
 574 005e 9847     		blx	r3
 575              	.LVL42:
 576              	.L49:
 361:BSP/uart_drv.c **** 
 577              		.loc 1 361 5 view .LVU137
 361:BSP/uart_drv.c **** 
 578              		.loc 1 361 5 view .LVU138
 579 0060 0023     		movs	r3, #0
 580 0062 86F84030 		strb	r3, [r6, #64]
 361:BSP/uart_drv.c **** 
 581              		.loc 1 361 5 view .LVU139
 364:BSP/uart_drv.c **** }
 582              		.loc 1 364 5 view .LVU140
 364:BSP/uart_drv.c **** }
 583              		.loc 1 364 64 is_stmt 0 view .LVU141
 584 0066 2146     		mov	r1, r4
 364:BSP/uart_drv.c **** }
 585              		.loc 1 364 5 view .LVU142
 586 0068 51F8060B 		ldr	r0, [r1], #6
 587 006c 40F2FF12 		movw	r2, #511
 588 0070 FFF7FEFF 		bl	HAL_UARTEx_ReceiveToIdle_IT
ARM GAS  C:\Users\24120\AppData\Local\Temp\ccsfq6ok.s 			page 20


 589              	.LVL43:
 590              	.L47:
 365:BSP/uart_drv.c **** 
 591              		.loc 1 365 1 view .LVU143
 592 0074 0DF5037D 		add	sp, sp, #524
 593              	.LCFI11:
 594              		.cfi_def_cfa_offset 20
 595              		@ sp needed
 596 0078 F0BD     		pop	{r4, r5, r6, r7, pc}
 365:BSP/uart_drv.c **** 
 597              		.loc 1 365 1 view .LVU144
 598              		.cfi_endproc
 599              	.LFE253:
 601              		.section	.text.UartDrv_SetDebugPort,"ax",%progbits
 602              		.align	1
 603              		.global	UartDrv_SetDebugPort
 604              		.syntax unified
 605              		.thumb
 606              		.thumb_func
 608              	UartDrv_SetDebugPort:
 609              	.LVL44:
 610              	.LFB255:
 387:BSP/uart_drv.c **** 
 388:BSP/uart_drv.c **** /**
 389:BSP/uart_drv.c ****  * @brief  č®¾ē½®printfč°čÆč¾åŗä½æēØēäø²å£é©±åØå®ä¾
 390:BSP/uart_drv.c ****  * @param  pDrv äø²å£é©±åØå®ä¾ęé,ä¼ å„NULLåē¦ēØprintfč¾åŗ
 391:BSP/uart_drv.c ****  * @note   č®¾ē½®å,ęęprintf/fputsē­ę åč¾åŗå°éå®åå°čÆ„äø²å£
 392:BSP/uart_drv.c ****  */
 393:BSP/uart_drv.c **** void UartDrv_SetDebugPort(UartDrv_t *pDrv)
 394:BSP/uart_drv.c **** {
 611              		.loc 1 394 1 is_stmt 1 view -0
 612              		.cfi_startproc
 613              		@ args = 0, pretend = 0, frame = 0
 614              		@ frame_needed = 0, uses_anonymous_args = 0
 615              		@ link register save eliminated.
 395:BSP/uart_drv.c ****     s_pDebugPort = pDrv;
 616              		.loc 1 395 5 view .LVU146
 617              		.loc 1 395 18 is_stmt 0 view .LVU147
 618 0000 014B     		ldr	r3, .L53
 619 0002 1860     		str	r0, [r3]
 396:BSP/uart_drv.c **** }
 620              		.loc 1 396 1 view .LVU148
 621 0004 7047     		bx	lr
 622              	.L54:
 623 0006 00BF     		.align	2
 624              	.L53:
 625 0008 00000000 		.word	s_pDebugPort
 626              		.cfi_endproc
 627              	.LFE255:
 629              		.section	.rodata.UartDrv_PrintFloat.str1.4,"aMS",%progbits,1
 630              		.align	2
 631              	.LC0:
 632 0000 2D00     		.ascii	"-\000"
 633 0002 0000     		.align	2
 634              	.LC1:
 635 0004 256C7500 		.ascii	"%lu\000"
 636              		.align	2
ARM GAS  C:\Users\24120\AppData\Local\Temp\ccsfq6ok.s 			page 21


 637              	.LC2:
 638 0008 2E00     		.ascii	".\000"
 639 000a 0000     		.align	2
 640              	.LC3:
 641 000c 25302A6C 		.ascii	"%0*lu\000"
 641      7500
 642              		.section	.text.UartDrv_PrintFloat,"ax",%progbits
 643              		.align	1
 644              		.global	UartDrv_PrintFloat
 645              		.syntax unified
 646              		.thumb
 647              		.thumb_func
 649              	UartDrv_PrintFloat:
 650              	.LVL45:
 651              	.LFB256:
 397:BSP/uart_drv.c **** 
 398:BSP/uart_drv.c **** /**
 399:BSP/uart_drv.c ****  * @brief  éčæäø²å£ęå°ęµ®ē¹ę°(ēŗÆę“ę°čæē®å®ē°,äøä¾čµprintf %f)
 400:BSP/uart_drv.c ****  * @param  pDrv          äø²å£é©±åØå®ä¾ęé
 401:BSP/uart_drv.c ****  * @param  value         č¦ęå°ēęµ®ē¹ę°(ęÆęč“ę°)
 402:BSP/uart_drv.c ****  * @param  decimalPlaces å°ę°ä½ę°(0~6,č¶čæ6čŖåØęŖę­äøŗ6)
 403:BSP/uart_drv.c ****  * @note   å®ē°åē:
 404:BSP/uart_drv.c ****  *         1. å¤ēč“ę°ē¬¦å·
 405:BSP/uart_drv.c ****  *         2. å äøčå„åē§»(å¦2ä½å°ę°å 0.005)å®ē°åčäŗå„
 406:BSP/uart_drv.c ****  *         3. åē¦»ę“ę°éØååå°ę°éØå
 407:BSP/uart_drv.c ****  *         4. åå«ę ¼å¼åč¾åŗę“ę°åå°ę°éØå
 408:BSP/uart_drv.c ****  *         čæęÆäøä¾čµ newlib-nano _printf_float ēå¤éę¹ę”,
 409:BSP/uart_drv.c ****  *         å³ä½æGCCå·„å·é¾ęŖåÆēØęµ®ē¹printfä¹č½ę­£åøøęå°ęµ®ē¹ę°.
 410:BSP/uart_drv.c ****  *         ä½æēØē¤ŗä¾: UartDrv_PrintFloat(&g_uart1Drv, 3.14159f, 2) č¾åŗ "3.14"
 411:BSP/uart_drv.c ****  */
 412:BSP/uart_drv.c **** void UartDrv_PrintFloat(UartDrv_t *pDrv, float value, uint8_t decimalPlaces)
 413:BSP/uart_drv.c **** {
 652              		.loc 1 413 1 is_stmt 1 view -0
 653              		.cfi_startproc
 654              		@ args = 0, pretend = 0, frame = 16
 655              		@ frame_needed = 0, uses_anonymous_args = 0
 414:BSP/uart_drv.c ****     if (pDrv == NULL || !pDrv->initialized)
 656              		.loc 1 414 5 view .LVU150
 657              		.loc 1 414 8 is_stmt 0 view .LVU151
 658 0000 0028     		cmp	r0, #0
 659 0002 58D0     		beq	.L70
 413:BSP/uart_drv.c ****     if (pDrv == NULL || !pDrv->initialized)
 660              		.loc 1 413 1 view .LVU152
 661 0004 70B5     		push	{r4, r5, r6, lr}
 662              	.LCFI12:
 663              		.cfi_def_cfa_offset 16
 664              		.cfi_offset 4, -16
 665              		.cfi_offset 5, -12
 666              		.cfi_offset 6, -8
 667              		.cfi_offset 14, -4
 668 0006 2DED028B 		vpush.64	{d8}
 669              	.LCFI13:
 670              		.cfi_def_cfa_offset 24
 671              		.cfi_offset 80, -24
 672              		.cfi_offset 81, -20
 673 000a 84B0     		sub	sp, sp, #16
 674              	.LCFI14:
ARM GAS  C:\Users\24120\AppData\Local\Temp\ccsfq6ok.s 			page 22


 675              		.cfi_def_cfa_offset 40
 676 000c B0EE408A 		vmov.f32	s16, s0
 677 0010 0C46     		mov	r4, r1
 678 0012 0546     		mov	r5, r0
 679              		.loc 1 414 30 discriminator 1 view .LVU153
 680 0014 90F81432 		ldrb	r3, [r0, #532]	@ zero_extendqisi2
 681              		.loc 1 414 22 discriminator 1 view .LVU154
 682 0018 CBB3     		cbz	r3, .L55
 415:BSP/uart_drv.c ****         return;
 416:BSP/uart_drv.c **** 
 417:BSP/uart_drv.c ****     /* éå¶å°ę°ä½ę°äøéäøŗ6ä½(floatęęē²¾åŗ¦ēŗ¦6~7ä½) */
 418:BSP/uart_drv.c ****     if (decimalPlaces > 6)
 683              		.loc 1 418 5 is_stmt 1 view .LVU155
 684              		.loc 1 418 8 is_stmt 0 view .LVU156
 685 001a 0629     		cmp	r1, #6
 686 001c 00D9     		bls	.L59
 419:BSP/uart_drv.c ****         decimalPlaces = 6;
 687              		.loc 1 419 23 view .LVU157
 688 001e 0624     		movs	r4, #6
 689              	.L59:
 690              	.LVL46:
 420:BSP/uart_drv.c **** 
 421:BSP/uart_drv.c ****     char buf[16];
 691              		.loc 1 421 5 is_stmt 1 view .LVU158
 422:BSP/uart_drv.c **** 
 423:BSP/uart_drv.c ****     /* ē¬¬1ę­„: å¤ēč“ę° - åč¾åŗč“å·,ååē»åÆ¹å¼ */
 424:BSP/uart_drv.c ****     if (value < 0.0f)
 692              		.loc 1 424 5 view .LVU159
 693              		.loc 1 424 8 is_stmt 0 view .LVU160
 694 0020 B5EEC08A 		vcmpe.f32	s16, #0
 695 0024 F1EE10FA 		vmrs	APSR_nzcv, FPSCR
 696 0028 03D4     		bmi	.L73
 697              	.LVL47:
 698              	.L60:
 425:BSP/uart_drv.c ****     {
 426:BSP/uart_drv.c ****         UartDrv_SendStr(pDrv, "-");
 427:BSP/uart_drv.c ****         value = -value;
 428:BSP/uart_drv.c ****     }
 429:BSP/uart_drv.c **** 
 430:BSP/uart_drv.c ****     /* ē¬¬2ę­„: č®”ē®čå„åē§»,å®ē°åčäŗå„
 431:BSP/uart_drv.c ****      * ä¾å¦2ä½å°ę°: rounding = 0.5/10/10 = 0.005
 432:BSP/uart_drv.c ****      * å äø0.005å3.144åäøŗ3.149,ęŖę­å°ę°å¾å°3.14
 433:BSP/uart_drv.c ****      * čå äø0.005å3.145åäøŗ3.150,ęŖę­å°ę°å¾å°3.15 */
 434:BSP/uart_drv.c ****     float rounding = 0.5f;
 699              		.loc 1 434 5 is_stmt 1 view .LVU161
 435:BSP/uart_drv.c ****     for (uint8_t i = 0; i < decimalPlaces; i++)
 700              		.loc 1 435 5 view .LVU162
 701              	.LBB4:
 702              		.loc 1 435 10 view .LVU163
 703              		.loc 1 435 18 is_stmt 0 view .LVU164
 704 002a 0023     		movs	r3, #0
 705              	.LBE4:
 434:BSP/uart_drv.c ****     for (uint8_t i = 0; i < decimalPlaces; i++)
 706              		.loc 1 434 11 view .LVU165
 707 002c F6EE007A 		vmov.f32	s15, #5.0e-1
 708              	.LBB5:
 709              		.loc 1 435 5 view .LVU166
ARM GAS  C:\Users\24120\AppData\Local\Temp\ccsfq6ok.s 			page 23


 710 0030 0CE0     		b	.L62
 711              	.LVL48:
 712              	.L73:
 713              		.loc 1 435 5 view .LVU167
 714              	.LBE5:
 426:BSP/uart_drv.c ****         value = -value;
 715              		.loc 1 426 9 is_stmt 1 view .LVU168
 716 0032 2149     		ldr	r1, .L75
 717 0034 2846     		mov	r0, r5
 718              	.LVL49:
 426:BSP/uart_drv.c ****         value = -value;
 719              		.loc 1 426 9 is_stmt 0 view .LVU169
 720 0036 FFF7FEFF 		bl	UartDrv_SendStr
 721              	.LVL50:
 427:BSP/uart_drv.c ****     }
 722              		.loc 1 427 9 is_stmt 1 view .LVU170
 427:BSP/uart_drv.c ****     }
 723              		.loc 1 427 15 is_stmt 0 view .LVU171
 724 003a B1EE488A 		vneg.f32	s16, s16
 725              	.LVL51:
 427:BSP/uart_drv.c ****     }
 726              		.loc 1 427 15 view .LVU172
 727 003e F4E7     		b	.L60
 728              	.LVL52:
 729              	.L63:
 730              	.LBB6:
 436:BSP/uart_drv.c ****         rounding /= 10.0f;
 731              		.loc 1 436 9 is_stmt 1 view .LVU173
 732              		.loc 1 436 18 is_stmt 0 view .LVU174
 733 0040 B2EE047A 		vmov.f32	s14, #1.0e+1
 734 0044 C7EE877A 		vdiv.f32	s15, s15, s14
 735              	.LVL53:
 435:BSP/uart_drv.c ****         rounding /= 10.0f;
 736              		.loc 1 435 45 is_stmt 1 discriminator 3 view .LVU175
 737 0048 0133     		adds	r3, r3, #1
 738              	.LVL54:
 435:BSP/uart_drv.c ****         rounding /= 10.0f;
 739              		.loc 1 435 45 is_stmt 0 discriminator 3 view .LVU176
 740 004a DBB2     		uxtb	r3, r3
 741              	.LVL55:
 742              	.L62:
 435:BSP/uart_drv.c ****         rounding /= 10.0f;
 743              		.loc 1 435 27 is_stmt 1 discriminator 1 view .LVU177
 744 004c 9C42     		cmp	r4, r3
 745 004e F7D8     		bhi	.L63
 746              	.LBE6:
 437:BSP/uart_drv.c ****     value += rounding;
 747              		.loc 1 437 5 view .LVU178
 748              		.loc 1 437 11 is_stmt 0 view .LVU179
 749 0050 78EE277A 		vadd.f32	s15, s16, s15
 750              	.LVL56:
 438:BSP/uart_drv.c **** 
 439:BSP/uart_drv.c ****     /* ē¬¬3ę­„: åē¦»ę“ę°éØååå°ę°éØå
 440:BSP/uart_drv.c ****      * ä¾å¦3.149: intPart=3, fracPart=0.149 */
 441:BSP/uart_drv.c ****     uint32_t intPart = (uint32_t)value;
 751              		.loc 1 441 5 is_stmt 1 view .LVU180
 752              		.loc 1 441 14 is_stmt 0 view .LVU181
ARM GAS  C:\Users\24120\AppData\Local\Temp\ccsfq6ok.s 			page 24


 753 0054 FCEEE76A 		vcvt.u32.f32	s13, s15
 754              	.LVL57:
 442:BSP/uart_drv.c ****     float fracPart = value - (float)intPart;
 755              		.loc 1 442 5 is_stmt 1 view .LVU182
 756              		.loc 1 442 30 is_stmt 0 view .LVU183
 757 0058 B8EE667A 		vcvt.f32.u32	s14, s13
 758              		.loc 1 442 11 view .LVU184
 759 005c 77EEC77A 		vsub.f32	s15, s15, s14
 760              	.LVL58:
 443:BSP/uart_drv.c **** 
 444:BSP/uart_drv.c ****     /* ē¬¬4ę­„: å°å°ę°éØåč½¬äøŗę“ę°
 445:BSP/uart_drv.c ****      * ä¾å¦2ä½å°ę°: fracPart*10*10 = 14.9, fracInt=14 */
 446:BSP/uart_drv.c ****     for (uint8_t i = 0; i < decimalPlaces; i++)
 761              		.loc 1 446 5 is_stmt 1 view .LVU185
 762              	.LBB7:
 763              		.loc 1 446 10 view .LVU186
 764              		.loc 1 446 18 is_stmt 0 view .LVU187
 765 0060 0023     		movs	r3, #0
 766              	.LVL59:
 767              		.loc 1 446 5 view .LVU188
 768 0062 05E0     		b	.L64
 769              	.LVL60:
 770              	.L65:
 447:BSP/uart_drv.c ****         fracPart *= 10.0f;
 771              		.loc 1 447 9 is_stmt 1 view .LVU189
 772              		.loc 1 447 18 is_stmt 0 view .LVU190
 773 0064 B2EE047A 		vmov.f32	s14, #1.0e+1
 774 0068 67EE877A 		vmul.f32	s15, s15, s14
 775              	.LVL61:
 446:BSP/uart_drv.c ****         fracPart *= 10.0f;
 776              		.loc 1 446 45 is_stmt 1 discriminator 3 view .LVU191
 777 006c 0133     		adds	r3, r3, #1
 778              	.LVL62:
 446:BSP/uart_drv.c ****         fracPart *= 10.0f;
 779              		.loc 1 446 45 is_stmt 0 discriminator 3 view .LVU192
 780 006e DBB2     		uxtb	r3, r3
 781              	.LVL63:
 782              	.L64:
 446:BSP/uart_drv.c ****         fracPart *= 10.0f;
 783              		.loc 1 446 27 is_stmt 1 discriminator 1 view .LVU193
 784 0070 9C42     		cmp	r4, r3
 785 0072 F7D8     		bhi	.L65
 446:BSP/uart_drv.c ****         fracPart *= 10.0f;
 786              		.loc 1 446 27 is_stmt 0 discriminator 1 view .LVU194
 787              	.LBE7:
 448:BSP/uart_drv.c ****     uint32_t fracInt = (uint32_t)fracPart;
 788              		.loc 1 448 5 is_stmt 1 view .LVU195
 789              		.loc 1 448 14 is_stmt 0 view .LVU196
 790 0074 BCEEE78A 		vcvt.u32.f32	s16, s15
 791              	.LVL64:
 449:BSP/uart_drv.c **** 
 450:BSP/uart_drv.c ****     /* ē¬¬5ę­„: č¾åŗę“ę°éØå */
 451:BSP/uart_drv.c ****     sprintf(buf, "%lu", (unsigned long)intPart);
 792              		.loc 1 451 5 is_stmt 1 view .LVU197
 793 0078 16EE902A 		vmov	r2, s13	@ int
 794 007c 0F49     		ldr	r1, .L75+4
 795 007e 6846     		mov	r0, sp
ARM GAS  C:\Users\24120\AppData\Local\Temp\ccsfq6ok.s 			page 25


 796 0080 FFF7FEFF 		bl	sprintf
 797              	.LVL65:
 452:BSP/uart_drv.c ****     UartDrv_SendStr(pDrv, buf);
 798              		.loc 1 452 5 view .LVU198
 799 0084 6946     		mov	r1, sp
 800 0086 2846     		mov	r0, r5
 801 0088 FFF7FEFF 		bl	UartDrv_SendStr
 802              	.LVL66:
 453:BSP/uart_drv.c **** 
 454:BSP/uart_drv.c ****     /* ē¬¬6ę­„: č¾åŗå°ę°éØå(å¦ę) */
 455:BSP/uart_drv.c ****     if (decimalPlaces > 0)
 803              		.loc 1 455 5 view .LVU199
 804              		.loc 1 455 8 is_stmt 0 view .LVU200
 805 008c 1CB9     		cbnz	r4, .L74
 806              	.LVL67:
 807              	.L55:
 456:BSP/uart_drv.c ****     {
 457:BSP/uart_drv.c ****         UartDrv_SendStr(pDrv, ".");
 458:BSP/uart_drv.c ****         /* ååÆ¼é¶č”„é½: å¦ 3.05 ēå°ę°éØååŗäøŗ "05" čé "5"
 459:BSP/uart_drv.c ****          * %0*lu äø­ē * ē± decimalPlaces ęå®å®½åŗ¦,0č”Øē¤ŗč”„é¶ */
 460:BSP/uart_drv.c ****         sprintf(buf, "%0*lu", decimalPlaces, (unsigned long)fracInt);
 461:BSP/uart_drv.c ****         UartDrv_SendStr(pDrv, buf);
 462:BSP/uart_drv.c ****     }
 463:BSP/uart_drv.c **** }
 808              		.loc 1 463 1 view .LVU201
 809 008e 04B0     		add	sp, sp, #16
 810              	.LCFI15:
 811              		.cfi_remember_state
 812              		.cfi_def_cfa_offset 24
 813              		@ sp needed
 814 0090 BDEC028B 		vldm	sp!, {d8}
 815              	.LCFI16:
 816              		.cfi_restore 80
 817              		.cfi_restore 81
 818              		.cfi_def_cfa_offset 16
 819 0094 70BD     		pop	{r4, r5, r6, pc}
 820              	.LVL68:
 821              	.L74:
 822              	.LCFI17:
 823              		.cfi_restore_state
 457:BSP/uart_drv.c ****         /* ååÆ¼é¶č”„é½: å¦ 3.05 ēå°ę°éØååŗäøŗ "05" čé "5"
 824              		.loc 1 457 9 is_stmt 1 view .LVU202
 825 0096 0A49     		ldr	r1, .L75+8
 826 0098 2846     		mov	r0, r5
 827 009a FFF7FEFF 		bl	UartDrv_SendStr
 828              	.LVL69:
 460:BSP/uart_drv.c ****         UartDrv_SendStr(pDrv, buf);
 829              		.loc 1 460 9 view .LVU203
 830 009e 18EE103A 		vmov	r3, s16	@ int
 831 00a2 2246     		mov	r2, r4
 832 00a4 0749     		ldr	r1, .L75+12
 833 00a6 6846     		mov	r0, sp
 834 00a8 FFF7FEFF 		bl	sprintf
 835              	.LVL70:
 461:BSP/uart_drv.c ****     }
 836              		.loc 1 461 9 view .LVU204
 837 00ac 6946     		mov	r1, sp
ARM GAS  C:\Users\24120\AppData\Local\Temp\ccsfq6ok.s 			page 26


 838 00ae 2846     		mov	r0, r5
 839 00b0 FFF7FEFF 		bl	UartDrv_SendStr
 840              	.LVL71:
 841 00b4 EBE7     		b	.L55
 842              	.LVL72:
 843              	.L70:
 844              	.LCFI18:
 845              		.cfi_def_cfa_offset 0
 846              		.cfi_restore 4
 847              		.cfi_restore 5
 848              		.cfi_restore 6
 849              		.cfi_restore 14
 850              		.cfi_restore 80
 851              		.cfi_restore 81
 461:BSP/uart_drv.c ****     }
 852              		.loc 1 461 9 is_stmt 0 view .LVU205
 853 00b6 7047     		bx	lr
 854              	.L76:
 855              		.align	2
 856              	.L75:
 857 00b8 00000000 		.word	.LC0
 858 00bc 04000000 		.word	.LC1
 859 00c0 08000000 		.word	.LC2
 860 00c4 0C000000 		.word	.LC3
 861              		.cfi_endproc
 862              	.LFE256:
 864              		.section	.text.UartDrv_OnRxEvent,"ax",%progbits
 865              		.align	1
 866              		.weak	UartDrv_OnRxEvent
 867              		.syntax unified
 868              		.thumb
 869              		.thumb_func
 871              	UartDrv_OnRxEvent:
 872              	.LVL73:
 873              	.LFB257:
 464:BSP/uart_drv.c **** 
 465:BSP/uart_drv.c **** /* ====== é»č®¤äø²å£ę„ę¶åč° + å¼±é©å­ ======
 466:BSP/uart_drv.c ****  *
 467:BSP/uart_drv.c ****  * é»č®¤åč° HAL_UARTEx_RxEventCallback č¦ēäŗHALåŗäø­ē__weakē©ŗå®ē°,
 468:BSP/uart_drv.c ****  * čŖåØå®ę: äŗä»¶åå ā å¼±é©å­č°ēØ
 469:BSP/uart_drv.c ****  *
 470:BSP/uart_drv.c ****  * ēØę·čŖå®ä¹åč°č”äøŗēäø¤ē§ę¹å¼:
 471:BSP/uart_drv.c ****  * ę¹å¼1(č½»åŗ¦): éå UartDrv_OnRxEvent() å¼±é©å­,åØååå®ęåčæ½å å¤ē
 472:BSP/uart_drv.c ****  * ę¹å¼2(å®åØ): å®ä¹ UART_DRV_NO_DEFAULT_CALLBACK å®ęé¤é»č®¤å®ē°,
 473:BSP/uart_drv.c ****  *             ē¶ååØčŖå·±ē.cęä»¶äø­éå HAL_UARTEx_RxEventCallback()
 474:BSP/uart_drv.c ****  */
 475:BSP/uart_drv.c **** 
 476:BSP/uart_drv.c **** /**
 477:BSP/uart_drv.c ****  * @brief  å¼±é©å­å½ę°,ēØę·åÆåØčŖå·±ē.cęä»¶äø­éåä»„čæ½å å¤ēé»č¾
 478:BSP/uart_drv.c ****  * @param  huart č§¦åäŗä»¶ēUARTå„ę
 479:BSP/uart_drv.c ****  * @param  Size  ę„ę¶ę°ę®éæåŗ¦
 480:BSP/uart_drv.c ****  * @note   é»č®¤ē©ŗå®ē°ćēØę·éåē¤ŗä¾:
 481:BSP/uart_drv.c ****  *         @code
 482:BSP/uart_drv.c ****  *         void UartDrv_OnRxEvent(UART_HandleTypeDef *huart, uint16_t Size) {
 483:BSP/uart_drv.c ****  *             // čæ½å ēå¤ē,å¦ē¹äŗ®LEDćč§¦åäŗä»¶ę åæē­
 484:BSP/uart_drv.c ****  *         }
 485:BSP/uart_drv.c ****  *         @endcode
ARM GAS  C:\Users\24120\AppData\Local\Temp\ccsfq6ok.s 			page 27


 486:BSP/uart_drv.c ****  *         é¾ę„åØä¼čŖåØēØēØę·ēå¼ŗå®ä¹ęæę¢ę­¤å¼±å®ä¹
 487:BSP/uart_drv.c ****  */
 488:BSP/uart_drv.c **** __WEAK void UartDrv_OnRxEvent(UART_HandleTypeDef *huart, uint16_t Size)
 489:BSP/uart_drv.c **** {
 874              		.loc 1 489 1 is_stmt 1 view -0
 875              		.cfi_startproc
 876              		@ args = 0, pretend = 0, frame = 0
 877              		@ frame_needed = 0, uses_anonymous_args = 0
 878              		@ link register save eliminated.
 490:BSP/uart_drv.c ****     (void)huart;  /* ęå¶ęŖä½æēØåę°č­¦å */
 879              		.loc 1 490 5 view .LVU207
 491:BSP/uart_drv.c ****     (void)Size;
 880              		.loc 1 491 5 view .LVU208
 492:BSP/uart_drv.c **** }
 881              		.loc 1 492 1 is_stmt 0 view .LVU209
 882 0000 7047     		bx	lr
 883              		.cfi_endproc
 884              	.LFE257:
 886              		.section	.text.HAL_UARTEx_RxEventCallback,"ax",%progbits
 887              		.align	1
 888              		.global	HAL_UARTEx_RxEventCallback
 889              		.syntax unified
 890              		.thumb
 891              		.thumb_func
 893              	HAL_UARTEx_RxEventCallback:
 894              	.LVL74:
 895              	.LFB258:
 493:BSP/uart_drv.c **** 
 494:BSP/uart_drv.c **** #ifndef UART_DRV_NO_DEFAULT_CALLBACK
 495:BSP/uart_drv.c **** 
 496:BSP/uart_drv.c **** /**
 497:BSP/uart_drv.c ****  * @brief  HALäø²å£ę„ę¶äŗä»¶åč°å½ę°ēé»č®¤å®ē°
 498:BSP/uart_drv.c ****  * @param  huart č§¦åäŗä»¶ēUARTå„ę(ē±HALäø­ę­å¤ēčŖåØä¼ å„)
 499:BSP/uart_drv.c ****  * @param  Size  ę„ę¶ę°ę®éæåŗ¦(ē±HALäø­ę­å¤ēčŖåØä¼ å„)
 500:BSP/uart_drv.c ****  * @note   ę­¤å½ę°äøŗå¼ŗå®ä¹,č¦ēHALåŗäø­ē__weakē©ŗå®ē°ć
 501:BSP/uart_drv.c ****  *         å¤ēęµēØ:
 502:BSP/uart_drv.c ****  *         1. č°ēØ UartDrv_RxEventDispatch() čæč”äŗä»¶åå
 503:BSP/uart_drv.c ****  *            (ę„ę¾å®ä¾āå”«åę°ę®āč°ēØēØę·åč°āéåÆę„ę¶)
 504:BSP/uart_drv.c ****  *         2. č°ēØ UartDrv_OnRxEvent() å¼±é©å­ä¾ēØę·čæ½å å¤ē
 505:BSP/uart_drv.c ****  *
 506:BSP/uart_drv.c ****  *         å¦ęēØę·éč¦å®åØčŖå®ä¹ę­¤åč°(å¦å¤åč®®č§£ęē­),
 507:BSP/uart_drv.c ****  *         åÆåØē¼čÆéé”¹äø­å®ä¹ UART_DRV_NO_DEFAULT_CALLBACK å®ę„ęé¤ę­¤é»č®¤å®ē°,
 508:BSP/uart_drv.c ****  *         ē¶ååØčŖå·±ē.cęä»¶äø­éåę­¤å½ę°ć
 509:BSP/uart_drv.c ****  */
 510:BSP/uart_drv.c **** void HAL_UARTEx_RxEventCallback(UART_HandleTypeDef *huart, uint16_t Size)
 511:BSP/uart_drv.c **** {
 896              		.loc 1 511 1 is_stmt 1 view -0
 897              		.cfi_startproc
 898              		@ args = 0, pretend = 0, frame = 0
 899              		@ frame_needed = 0, uses_anonymous_args = 0
 900              		.loc 1 511 1 is_stmt 0 view .LVU211
 901 0000 38B5     		push	{r3, r4, r5, lr}
 902              	.LCFI19:
 903              		.cfi_def_cfa_offset 16
 904              		.cfi_offset 3, -16
 905              		.cfi_offset 4, -12
 906              		.cfi_offset 5, -8
ARM GAS  C:\Users\24120\AppData\Local\Temp\ccsfq6ok.s 			page 28


 907              		.cfi_offset 14, -4
 908 0002 0446     		mov	r4, r0
 909 0004 0D46     		mov	r5, r1
 512:BSP/uart_drv.c ****     /* ē¬¬1ę­„: ååę„ę¶äŗä»¶å°åÆ¹åŗå®ä¾ēåč°å½ę° */
 513:BSP/uart_drv.c ****     UartDrv_RxEventDispatch(huart, Size);
 910              		.loc 1 513 5 is_stmt 1 view .LVU212
 911 0006 FFF7FEFF 		bl	UartDrv_RxEventDispatch
 912              	.LVL75:
 514:BSP/uart_drv.c ****     /* ē¬¬2ę­„: č°ēØå¼±é©å­,åč®øēØę·čæ½å é¢å¤å¤ē */
 515:BSP/uart_drv.c ****     UartDrv_OnRxEvent(huart, Size);
 913              		.loc 1 515 5 view .LVU213
 914 000a 2946     		mov	r1, r5
 915 000c 2046     		mov	r0, r4
 916 000e FFF7FEFF 		bl	UartDrv_OnRxEvent
 917              	.LVL76:
 516:BSP/uart_drv.c **** }
 918              		.loc 1 516 1 is_stmt 0 view .LVU214
 919 0012 38BD     		pop	{r3, r4, r5, pc}
 920              		.loc 1 516 1 view .LVU215
 921              		.cfi_endproc
 922              	.LFE258:
 924              		.global	s_printfFloatForceRef
 925              		.section	.data.s_printfFloatForceRef,"aw"
 926              		.align	2
 929              	s_printfFloatForceRef:
 930 0000 00000000 		.word	_printf_float
 931              		.section	.bss.s_pDebugPort,"aw",%nobits
 932              		.align	2
 935              	s_pDebugPort:
 936 0000 00000000 		.space	4
 937              		.section	.bss.s_drvCount,"aw",%nobits
 940              	s_drvCount:
 941 0000 00       		.space	1
 942              		.section	.bss.s_drvInstances,"aw",%nobits
 943              		.align	2
 946              	s_drvInstances:
 947 0000 00000000 		.space	32
 947      00000000 
 947      00000000 
 947      00000000 
 947      00000000 
 948              		.text
 949              	.Letext0:
 950              		.file 2 "E:/STM32/Tools/arm-none-eabi-gcc/14.2.1-1.1.1/.content/arm-none-eabi/include/machine/_def
 951              		.file 3 "E:/STM32/Tools/arm-none-eabi-gcc/14.2.1-1.1.1/.content/arm-none-eabi/include/sys/_stdint.
 952              		.file 4 "Drivers/CMSIS/Device/ST/STM32F4xx/Include/stm32f407xx.h"
 953              		.file 5 "E:/STM32/Tools/arm-none-eabi-gcc/14.2.1-1.1.1/.content/lib/gcc/arm-none-eabi/14.2.1/inclu
 954              		.file 6 "Drivers/STM32F4xx_HAL_Driver/Inc/stm32f4xx_hal_def.h"
 955              		.file 7 "Drivers/STM32F4xx_HAL_Driver/Inc/stm32f4xx_hal_dma.h"
 956              		.file 8 "Drivers/STM32F4xx_HAL_Driver/Inc/stm32f4xx_hal_uart.h"
 957              		.file 9 "Middlewares/Third_Party/FreeRTOS/Source/CMSIS_RTOS_V2/cmsis_os2.h"
 958              		.file 10 "BSP/uart_drv.h"
 959              		.file 11 "E:/STM32/Tools/arm-none-eabi-gcc/14.2.1-1.1.1/.content/arm-none-eabi/include/stdio.h"
 960              		.file 12 "E:/STM32/Tools/arm-none-eabi-gcc/14.2.1-1.1.1/.content/arm-none-eabi/include/string.h"
 961              		.file 13 "<built-in>"
ARM GAS  C:\Users\24120\AppData\Local\Temp\ccsfq6ok.s 			page 29

