ARM GAS  C:\Users\24120\AppData\Local\Temp\ccuOcudP.s 			page 1


   1              		.cpu cortex-m4
   2              		.arch armv7e-m
   3              		.fpu fpv4-sp-d16
   4              		.eabi_attribute 27, 1
   5              		.eabi_attribute 28, 1
   6              		.eabi_attribute 20, 1
   7              		.eabi_attribute 21, 1
   8              		.eabi_attribute 23, 3
   9              		.eabi_attribute 24, 1
  10              		.eabi_attribute 25, 1
  11              		.eabi_attribute 26, 1
  12              		.eabi_attribute 30, 1
  13              		.eabi_attribute 34, 1
  14              		.eabi_attribute 18, 4
  15              		.file	"w25qxx.c"
  16              		.text
  17              	.Ltext0:
  18              		.cfi_sections	.debug_frame
  19              		.file 1 "BSP/w25qxx.c"
  20              		.section	.text.delayus,"ax",%progbits
  21              		.align	1
  22              		.syntax unified
  23              		.thumb
  24              		.thumb_func
  26              	delayus:
  27              	.LVL0:
  28              	.LFB239:
   1:BSP/w25qxx.c  **** #include "w25qxx.h"
   2:BSP/w25qxx.c  **** #include "spi.h"
   3:BSP/w25qxx.c  **** 
   4:BSP/w25qxx.c  **** uint16_t W25QXX_TYPE=W25Q128;	//ФЌШЯЪЧW25Q256
   5:BSP/w25qxx.c  **** 
   6:BSP/w25qxx.c  **** //4KbytesЮЊвЛИіSector
   7:BSP/w25qxx.c  **** //16ИіЩШЧјЮЊ1ИіBlock
   8:BSP/w25qxx.c  **** //W25Q128
   9:BSP/w25qxx.c  **** //ШнСПЮЊ16MзжНк,ЙВга256ИіBlock,4096ИіSector
  10:BSP/w25qxx.c  **** static void delayus(uint32_t nus)
  11:BSP/w25qxx.c  **** {
  29              		.loc 1 11 1 view -0
  30              		.cfi_startproc
  31              		@ args = 0, pretend = 0, frame = 8
  32              		@ frame_needed = 0, uses_anonymous_args = 0
  33              		@ link register save eliminated.
  12:BSP/w25qxx.c  ****     volatile uint32_t i;
  34              		.loc 1 12 5 view .LVU1
  13:BSP/w25qxx.c  ****     while (nus-- > 0)
  35              		.loc 1 13 5 view .LVU2
  36              		.loc 1 13 18 view .LVU3
  37 0000 0346     		mov	r3, r0
  38              		.loc 1 13 15 is_stmt 0 view .LVU4
  39 0002 0138     		subs	r0, r0, #1
  40              	.LVL1:
  41              		.loc 1 13 18 view .LVU5
  42 0004 6BB1     		cbz	r3, .L8
  11:BSP/w25qxx.c  ****     volatile uint32_t i;
  43              		.loc 1 11 1 view .LVU6
  44 0006 82B0     		sub	sp, sp, #8
ARM GAS  C:\Users\24120\AppData\Local\Temp\ccuOcudP.s 			page 2


  45              	.LCFI0:
  46              		.cfi_def_cfa_offset 8
  47              	.L4:
  14:BSP/w25qxx.c  ****     {
  15:BSP/w25qxx.c  ****         i = 26;
  48              		.loc 1 15 9 is_stmt 1 view .LVU7
  49              		.loc 1 15 11 is_stmt 0 view .LVU8
  50 0008 1A23     		movs	r3, #26
  51 000a 0193     		str	r3, [sp, #4]
  16:BSP/w25qxx.c  ****         while (i-- > 0);
  52              		.loc 1 16 9 is_stmt 1 view .LVU9
  53              	.L3:
  54              		.loc 1 16 20 discriminator 1 view .LVU10
  55              		.loc 1 16 17 is_stmt 0 discriminator 1 view .LVU11
  56 000c 019B     		ldr	r3, [sp, #4]
  57 000e 5A1E     		subs	r2, r3, #1
  58 0010 0192     		str	r2, [sp, #4]
  59              		.loc 1 16 20 discriminator 1 view .LVU12
  60 0012 002B     		cmp	r3, #0
  61 0014 FAD1     		bne	.L3
  13:BSP/w25qxx.c  ****     {
  62              		.loc 1 13 18 is_stmt 1 view .LVU13
  63 0016 0346     		mov	r3, r0
  13:BSP/w25qxx.c  ****     {
  64              		.loc 1 13 15 is_stmt 0 view .LVU14
  65 0018 0138     		subs	r0, r0, #1
  66              	.LVL2:
  13:BSP/w25qxx.c  ****     {
  67              		.loc 1 13 18 view .LVU15
  68 001a 002B     		cmp	r3, #0
  69 001c F4D1     		bne	.L4
  17:BSP/w25qxx.c  ****     }
  18:BSP/w25qxx.c  **** }
  70              		.loc 1 18 1 view .LVU16
  71 001e 02B0     		add	sp, sp, #8
  72              	.LCFI1:
  73              		.cfi_def_cfa_offset 0
  74              		@ sp needed
  75 0020 7047     		bx	lr
  76              	.L8:
  77              		.loc 1 18 1 view .LVU17
  78 0022 7047     		bx	lr
  79              		.cfi_endproc
  80              	.LFE239:
  82              		.section	.text.SPI1_SetSpeed,"ax",%progbits
  83              		.align	1
  84              		.global	SPI1_SetSpeed
  85              		.syntax unified
  86              		.thumb
  87              		.thumb_func
  89              	SPI1_SetSpeed:
  90              	.LVL3:
  91              	.LFB240:
  19:BSP/w25qxx.c  **** 
  20:BSP/w25qxx.c  **** void SPI1_SetSpeed(uint8_t SPI_BaudRatePrescaler)
  21:BSP/w25qxx.c  **** {
  92              		.loc 1 21 1 is_stmt 1 view -0
ARM GAS  C:\Users\24120\AppData\Local\Temp\ccuOcudP.s 			page 3


  93              		.cfi_startproc
  94              		@ args = 0, pretend = 0, frame = 0
  95              		@ frame_needed = 0, uses_anonymous_args = 0
  96              		@ link register save eliminated.
  22:BSP/w25qxx.c  ****     assert_param(IS_SPI_BAUDRATE_PRESCALER(SPI_BaudRatePrescaler));//ХаЖЯгааЇад
  97              		.loc 1 22 5 view .LVU19
  23:BSP/w25qxx.c  ****     __HAL_SPI_DISABLE(&hspi1);            				//ЙиБеSPI
  98              		.loc 1 23 5 view .LVU20
  99 0000 0B4B     		ldr	r3, .L10
 100 0002 1968     		ldr	r1, [r3]
 101 0004 0A68     		ldr	r2, [r1]
 102 0006 22F04002 		bic	r2, r2, #64
 103 000a 0A60     		str	r2, [r1]
  24:BSP/w25qxx.c  ****     hspi1.Instance->CR1 &= 0XFFC7;          			//ЮЛ3-5ЧхСуЃЌгУРДЩшжУВЈЬиТЪ
 104              		.loc 1 24 5 view .LVU21
 105              		.loc 1 24 10 is_stmt 0 view .LVU22
 106 000c 1968     		ldr	r1, [r3]
 107              		.loc 1 24 19 view .LVU23
 108 000e 0A68     		ldr	r2, [r1]
 109              		.loc 1 24 25 view .LVU24
 110 0010 22F03802 		bic	r2, r2, #56
 111 0014 1204     		lsls	r2, r2, #16
 112 0016 120C     		lsrs	r2, r2, #16
 113 0018 0A60     		str	r2, [r1]
  25:BSP/w25qxx.c  ****     hspi1.Instance->CR1 |= SPI_BaudRatePrescaler;	//ЩшжУSPIЫйЖШ
 114              		.loc 1 25 5 is_stmt 1 view .LVU25
 115              		.loc 1 25 10 is_stmt 0 view .LVU26
 116 001a 1A68     		ldr	r2, [r3]
 117              		.loc 1 25 19 view .LVU27
 118 001c 1168     		ldr	r1, [r2]
 119              		.loc 1 25 25 view .LVU28
 120 001e 0843     		orrs	r0, r0, r1
 121              	.LVL4:
 122              		.loc 1 25 25 view .LVU29
 123 0020 1060     		str	r0, [r2]
  26:BSP/w25qxx.c  ****     __HAL_SPI_ENABLE(&hspi1);             				//ЪЙФмSPI
 124              		.loc 1 26 5 is_stmt 1 view .LVU30
 125 0022 1A68     		ldr	r2, [r3]
 126 0024 1368     		ldr	r3, [r2]
 127 0026 43F04003 		orr	r3, r3, #64
 128 002a 1360     		str	r3, [r2]
  27:BSP/w25qxx.c  **** }
 129              		.loc 1 27 1 is_stmt 0 view .LVU31
 130 002c 7047     		bx	lr
 131              	.L11:
 132 002e 00BF     		.align	2
 133              	.L10:
 134 0030 00000000 		.word	hspi1
 135              		.cfi_endproc
 136              	.LFE240:
 138              		.section	.text.SPI1_ReadWriteByte,"ax",%progbits
 139              		.align	1
 140              		.global	SPI1_ReadWriteByte
 141              		.syntax unified
 142              		.thumb
 143              		.thumb_func
 145              	SPI1_ReadWriteByte:
ARM GAS  C:\Users\24120\AppData\Local\Temp\ccuOcudP.s 			page 4


 146              	.LVL5:
 147              	.LFB241:
  28:BSP/w25qxx.c  **** 
  29:BSP/w25qxx.c  **** //SPI1 ЖСаДвЛИізжНк
  30:BSP/w25qxx.c  **** //TxData:вЊаДШыЕФзжНк
  31:BSP/w25qxx.c  **** //ЗЕЛижЕ:ЖСШЁЕНЕФзжНк
  32:BSP/w25qxx.c  **** uint8_t SPI1_ReadWriteByte(uint8_t TxData)
  33:BSP/w25qxx.c  **** {
 148              		.loc 1 33 1 is_stmt 1 view -0
 149              		.cfi_startproc
 150              		@ args = 0, pretend = 0, frame = 16
 151              		@ frame_needed = 0, uses_anonymous_args = 0
 152              		.loc 1 33 1 is_stmt 0 view .LVU33
 153 0000 00B5     		push	{lr}
 154              	.LCFI2:
 155              		.cfi_def_cfa_offset 4
 156              		.cfi_offset 14, -4
 157 0002 87B0     		sub	sp, sp, #28
 158              	.LCFI3:
 159              		.cfi_def_cfa_offset 32
 160 0004 8DF80F00 		strb	r0, [sp, #15]
  34:BSP/w25qxx.c  ****     uint8_t Rxdata;
 161              		.loc 1 34 5 is_stmt 1 view .LVU34
  35:BSP/w25qxx.c  ****     HAL_SPI_TransmitReceive(&hspi1, &TxData, &Rxdata, 1, 1000);
 162              		.loc 1 35 5 view .LVU35
 163 0008 4FF47A73 		mov	r3, #1000
 164 000c 0093     		str	r3, [sp]
 165 000e 0123     		movs	r3, #1
 166 0010 0DF11702 		add	r2, sp, #23
 167 0014 0DF10F01 		add	r1, sp, #15
 168 0018 0348     		ldr	r0, .L14
 169              	.LVL6:
 170              		.loc 1 35 5 is_stmt 0 view .LVU36
 171 001a FFF7FEFF 		bl	HAL_SPI_TransmitReceive
 172              	.LVL7:
  36:BSP/w25qxx.c  ****     return Rxdata;          		    //ЗЕЛиЪеЕНЕФЪ§Он
 173              		.loc 1 36 5 is_stmt 1 view .LVU37
  37:BSP/w25qxx.c  **** }
 174              		.loc 1 37 1 is_stmt 0 view .LVU38
 175 001e 9DF81700 		ldrb	r0, [sp, #23]	@ zero_extendqisi2
 176 0022 07B0     		add	sp, sp, #28
 177              	.LCFI4:
 178              		.cfi_def_cfa_offset 4
 179              		@ sp needed
 180 0024 5DF804FB 		ldr	pc, [sp], #4
 181              	.L15:
 182              		.align	2
 183              	.L14:
 184 0028 00000000 		.word	hspi1
 185              		.cfi_endproc
 186              	.LFE241:
 188              		.section	.text.W25QXX_ReadSR,"ax",%progbits
 189              		.align	1
 190              		.global	W25QXX_ReadSR
 191              		.syntax unified
 192              		.thumb
 193              		.thumb_func
ARM GAS  C:\Users\24120\AppData\Local\Temp\ccuOcudP.s 			page 5


 195              	W25QXX_ReadSR:
 196              	.LVL8:
 197              	.LFB243:
  38:BSP/w25qxx.c  **** 
  39:BSP/w25qxx.c  **** //ГѕЪМЛЏSPI FLASHЕФIOПк
  40:BSP/w25qxx.c  **** void W25QXX_Init(void)
  41:BSP/w25qxx.c  **** {
  42:BSP/w25qxx.c  ****     uint8_t temp;
  43:BSP/w25qxx.c  **** //    GPIO_InitTypeDef GPIO_Initure;
  44:BSP/w25qxx.c  **** 
  45:BSP/w25qxx.c  **** //    __HAL_RCC_GPIOC_CLK_ENABLE();           //ЪЙФмGPIOBЪБжг
  46:BSP/w25qxx.c  **** //
  47:BSP/w25qxx.c  **** //    //PB14
  48:BSP/w25qxx.c  **** //    GPIO_Initure.Pin=GPIO_PIN_4;            //PB14
  49:BSP/w25qxx.c  **** //    GPIO_Initure.Mode=GPIO_MODE_OUTPUT_PP;  //ЭЦЭьЪфГі
  50:BSP/w25qxx.c  **** //    GPIO_Initure.Pull=GPIO_PULLUP;          //ЩЯР­
  51:BSP/w25qxx.c  **** //    GPIO_Initure.Speed=GPIO_SPEED_HIGH;     //ПьЫй
  52:BSP/w25qxx.c  **** //    HAL_GPIO_Init(GPIOC,&GPIO_Initure);     //ГѕЪМЛЏ
  53:BSP/w25qxx.c  **** 
  54:BSP/w25qxx.c  ****     W25QXX_CS1;			                //SPI FLASHВЛбЁжа
  55:BSP/w25qxx.c  **** //	SPI1_Init();		   			        //ГѕЪМЛЏSPI
  56:BSP/w25qxx.c  ****     SPI1_SetSpeed(SPI_BAUDRATEPRESCALER_4); //ЩшжУЮЊ21MЪБжг,ИпЫйФЃЪН
  57:BSP/w25qxx.c  ****     W25QXX_TYPE=W25QXX_ReadID();	        //ЖСШЁFLASH ID.
  58:BSP/w25qxx.c  **** }
  59:BSP/w25qxx.c  **** 
  60:BSP/w25qxx.c  **** //ЖСШЁW25QXXЕФзДЬЌМФДцЦїЃЌW25QXXвЛЙВга3ИізДЬЌМФДцЦї
  61:BSP/w25qxx.c  **** //зДЬЌМФДцЦї1ЃК
  62:BSP/w25qxx.c  **** //BIT7  6   5   4   3   2   1   0
  63:BSP/w25qxx.c  **** //SPR   RV  TB BP2 BP1 BP0 WEL BUSY
  64:BSP/w25qxx.c  **** //SPR:ФЌШЯ0,зДЬЌМФДцЦїБЃЛЄЮЛ,ХфКЯWPЪЙгУ
  65:BSP/w25qxx.c  **** //TB,BP2,BP1,BP0:FLASHЧјгђаДБЃЛЄЩшжУ
  66:BSP/w25qxx.c  **** //WEL:аДЪЙФмЫјЖЈ
  67:BSP/w25qxx.c  **** //BUSY:УІБъМЧЮЛ(1,УІ;0,ПеЯа)
  68:BSP/w25qxx.c  **** //ФЌШЯ:0x00
  69:BSP/w25qxx.c  **** //зДЬЌМФДцЦї2ЃК
  70:BSP/w25qxx.c  **** //BIT7  6   5   4   3   2   1   0
  71:BSP/w25qxx.c  **** //SUS   CMP LB3 LB2 LB1 (R) QE  SRP1
  72:BSP/w25qxx.c  **** //зДЬЌМФДцЦї3ЃК
  73:BSP/w25qxx.c  **** //BIT7      6    5    4   3   2   1   0
  74:BSP/w25qxx.c  **** //HOLD/RST  DRV1 DRV0 (R) (R) WPS ADP ADS
  75:BSP/w25qxx.c  **** //regno:зДЬЌМФДцЦїКХЃЌЗЖ:1~3
  76:BSP/w25qxx.c  **** //ЗЕЛижЕ:зДЬЌМФДцЦїжЕ
  77:BSP/w25qxx.c  **** uint8_t W25QXX_ReadSR(uint8_t regno)
  78:BSP/w25qxx.c  **** {
 198              		.loc 1 78 1 is_stmt 1 view -0
 199              		.cfi_startproc
 200              		@ args = 0, pretend = 0, frame = 0
 201              		@ frame_needed = 0, uses_anonymous_args = 0
 202              		.loc 1 78 1 is_stmt 0 view .LVU40
 203 0000 38B5     		push	{r3, r4, r5, lr}
 204              	.LCFI5:
 205              		.cfi_def_cfa_offset 16
 206              		.cfi_offset 3, -16
 207              		.cfi_offset 4, -12
 208              		.cfi_offset 5, -8
 209              		.cfi_offset 14, -4
  79:BSP/w25qxx.c  ****     uint8_t byte=0,command=0;
ARM GAS  C:\Users\24120\AppData\Local\Temp\ccuOcudP.s 			page 6


 210              		.loc 1 79 5 is_stmt 1 view .LVU41
 211              	.LVL9:
  80:BSP/w25qxx.c  ****     switch(regno)
 212              		.loc 1 80 5 view .LVU42
 213 0002 0228     		cmp	r0, #2
 214 0004 03D0     		beq	.L18
 215 0006 0328     		cmp	r0, #3
 216 0008 16D1     		bne	.L19
  81:BSP/w25qxx.c  ****     {
  82:BSP/w25qxx.c  ****         case 1:
  83:BSP/w25qxx.c  ****             command=W25X_ReadStatusReg1;    //ЖСзДЬЌМФДцЦї1жИСю
  84:BSP/w25qxx.c  ****             break;
  85:BSP/w25qxx.c  ****         case 2:
  86:BSP/w25qxx.c  ****             command=W25X_ReadStatusReg2;    //ЖСзДЬЌМФДцЦї2жИСю
  87:BSP/w25qxx.c  ****             break;
  88:BSP/w25qxx.c  ****         case 3:
  89:BSP/w25qxx.c  ****             command=W25X_ReadStatusReg3;    //ЖСзДЬЌМФДцЦї3жИСю
 217              		.loc 1 89 20 is_stmt 0 view .LVU43
 218 000a 1524     		movs	r4, #21
 219 000c 00E0     		b	.L17
 220              	.L18:
  86:BSP/w25qxx.c  ****             break;
 221              		.loc 1 86 20 view .LVU44
 222 000e 3524     		movs	r4, #53
 223              	.L17:
 224              	.LVL10:
  90:BSP/w25qxx.c  ****             break;
  91:BSP/w25qxx.c  ****         default:
  92:BSP/w25qxx.c  ****             command=W25X_ReadStatusReg1;
  93:BSP/w25qxx.c  ****             break;
  94:BSP/w25qxx.c  ****     }
  95:BSP/w25qxx.c  ****     W25QXX_CS0;                            //ЪЙФмЦїМў
 225              		.loc 1 95 5 is_stmt 1 view .LVU45
 226 0010 0A4D     		ldr	r5, .L21
 227 0012 0022     		movs	r2, #0
 228 0014 1021     		movs	r1, #16
 229 0016 2846     		mov	r0, r5
 230              	.LVL11:
 231              		.loc 1 95 5 is_stmt 0 view .LVU46
 232 0018 FFF7FEFF 		bl	HAL_GPIO_WritePin
 233              	.LVL12:
  96:BSP/w25qxx.c  ****     SPI1_ReadWriteByte(command);            //ЗЂЫЭЖСШЁзДЬЌМФДцЦїУќСю
 234              		.loc 1 96 5 is_stmt 1 view .LVU47
 235 001c 2046     		mov	r0, r4
 236 001e FFF7FEFF 		bl	SPI1_ReadWriteByte
 237              	.LVL13:
  97:BSP/w25qxx.c  ****     byte=SPI1_ReadWriteByte(0Xff);          //ЖСШЁвЛИізжНк
 238              		.loc 1 97 5 view .LVU48
 239              		.loc 1 97 10 is_stmt 0 view .LVU49
 240 0022 FF20     		movs	r0, #255
 241 0024 FFF7FEFF 		bl	SPI1_ReadWriteByte
 242              	.LVL14:
 243 0028 0446     		mov	r4, r0
 244              	.LVL15:
  98:BSP/w25qxx.c  ****     W25QXX_CS1;                            //ШЁЯћЦЌбЁ
 245              		.loc 1 98 5 is_stmt 1 view .LVU50
 246 002a 0122     		movs	r2, #1
ARM GAS  C:\Users\24120\AppData\Local\Temp\ccuOcudP.s 			page 7


 247 002c 1021     		movs	r1, #16
 248 002e 2846     		mov	r0, r5
 249 0030 FFF7FEFF 		bl	HAL_GPIO_WritePin
 250              	.LVL16:
  99:BSP/w25qxx.c  ****     return byte;
 251              		.loc 1 99 5 view .LVU51
 100:BSP/w25qxx.c  **** }
 252              		.loc 1 100 1 is_stmt 0 view .LVU52
 253 0034 2046     		mov	r0, r4
 254 0036 38BD     		pop	{r3, r4, r5, pc}
 255              	.LVL17:
 256              	.L19:
  80:BSP/w25qxx.c  ****     {
 257              		.loc 1 80 5 view .LVU53
 258 0038 0524     		movs	r4, #5
 259 003a E9E7     		b	.L17
 260              	.L22:
 261              		.align	2
 262              	.L21:
 263 003c 00080240 		.word	1073874944
 264              		.cfi_endproc
 265              	.LFE243:
 267              		.section	.text.W25QXX_Write_SR,"ax",%progbits
 268              		.align	1
 269              		.global	W25QXX_Write_SR
 270              		.syntax unified
 271              		.thumb
 272              		.thumb_func
 274              	W25QXX_Write_SR:
 275              	.LVL18:
 276              	.LFB244:
 101:BSP/w25qxx.c  **** //аДW25QXXзДЬЌМФДцЦї
 102:BSP/w25qxx.c  **** void W25QXX_Write_SR(uint8_t regno,uint8_t sr)
 103:BSP/w25qxx.c  **** {
 277              		.loc 1 103 1 is_stmt 1 view -0
 278              		.cfi_startproc
 279              		@ args = 0, pretend = 0, frame = 0
 280              		@ frame_needed = 0, uses_anonymous_args = 0
 281              		.loc 1 103 1 is_stmt 0 view .LVU55
 282 0000 70B5     		push	{r4, r5, r6, lr}
 283              	.LCFI6:
 284              		.cfi_def_cfa_offset 16
 285              		.cfi_offset 4, -16
 286              		.cfi_offset 5, -12
 287              		.cfi_offset 6, -8
 288              		.cfi_offset 14, -4
 289 0002 0C46     		mov	r4, r1
 104:BSP/w25qxx.c  ****     uint8_t command=0;
 290              		.loc 1 104 5 is_stmt 1 view .LVU56
 291              	.LVL19:
 105:BSP/w25qxx.c  ****     switch(regno)
 292              		.loc 1 105 5 view .LVU57
 293 0004 0228     		cmp	r0, #2
 294 0006 03D0     		beq	.L25
 295 0008 0328     		cmp	r0, #3
 296 000a 14D1     		bne	.L26
 106:BSP/w25qxx.c  ****     {
ARM GAS  C:\Users\24120\AppData\Local\Temp\ccuOcudP.s 			page 8


 107:BSP/w25qxx.c  ****         case 1:
 108:BSP/w25qxx.c  ****             command=W25X_WriteStatusReg1;    //аДзДЬЌМФДцЦї1жИСю
 109:BSP/w25qxx.c  ****             break;
 110:BSP/w25qxx.c  ****         case 2:
 111:BSP/w25qxx.c  ****             command=W25X_WriteStatusReg2;    //аДзДЬЌМФДцЦї2жИСю
 112:BSP/w25qxx.c  ****             break;
 113:BSP/w25qxx.c  ****         case 3:
 114:BSP/w25qxx.c  ****             command=W25X_WriteStatusReg3;    //аДзДЬЌМФДцЦї3жИСю
 297              		.loc 1 114 20 is_stmt 0 view .LVU58
 298 000c 1126     		movs	r6, #17
 299 000e 00E0     		b	.L24
 300              	.L25:
 111:BSP/w25qxx.c  ****             break;
 301              		.loc 1 111 20 view .LVU59
 302 0010 3126     		movs	r6, #49
 303              	.L24:
 304              	.LVL20:
 115:BSP/w25qxx.c  ****             break;
 116:BSP/w25qxx.c  ****         default:
 117:BSP/w25qxx.c  ****             command=W25X_WriteStatusReg1;
 118:BSP/w25qxx.c  ****             break;
 119:BSP/w25qxx.c  ****     }
 120:BSP/w25qxx.c  ****     W25QXX_CS0;                            //ЪЙФмЦїМў
 305              		.loc 1 120 5 is_stmt 1 view .LVU60
 306 0012 0A4D     		ldr	r5, .L28
 307 0014 0022     		movs	r2, #0
 308 0016 1021     		movs	r1, #16
 309              	.LVL21:
 310              		.loc 1 120 5 is_stmt 0 view .LVU61
 311 0018 2846     		mov	r0, r5
 312              	.LVL22:
 313              		.loc 1 120 5 view .LVU62
 314 001a FFF7FEFF 		bl	HAL_GPIO_WritePin
 315              	.LVL23:
 121:BSP/w25qxx.c  ****     SPI1_ReadWriteByte(command);            //ЗЂЫЭаДШЁзДЬЌМФДцЦїУќСю
 316              		.loc 1 121 5 is_stmt 1 view .LVU63
 317 001e 3046     		mov	r0, r6
 318 0020 FFF7FEFF 		bl	SPI1_ReadWriteByte
 319              	.LVL24:
 122:BSP/w25qxx.c  ****     SPI1_ReadWriteByte(sr);                 //аДШывЛИізжНк
 320              		.loc 1 122 5 view .LVU64
 321 0024 2046     		mov	r0, r4
 322 0026 FFF7FEFF 		bl	SPI1_ReadWriteByte
 323              	.LVL25:
 123:BSP/w25qxx.c  ****     W25QXX_CS1;                            //ШЁЯћЦЌбЁ
 324              		.loc 1 123 5 view .LVU65
 325 002a 0122     		movs	r2, #1
 326 002c 1021     		movs	r1, #16
 327 002e 2846     		mov	r0, r5
 328 0030 FFF7FEFF 		bl	HAL_GPIO_WritePin
 329              	.LVL26:
 124:BSP/w25qxx.c  **** }
 330              		.loc 1 124 1 is_stmt 0 view .LVU66
 331 0034 70BD     		pop	{r4, r5, r6, pc}
 332              	.LVL27:
 333              	.L26:
 105:BSP/w25qxx.c  ****     {
ARM GAS  C:\Users\24120\AppData\Local\Temp\ccuOcudP.s 			page 9


 334              		.loc 1 105 5 view .LVU67
 335 0036 0126     		movs	r6, #1
 336 0038 EBE7     		b	.L24
 337              	.L29:
 338 003a 00BF     		.align	2
 339              	.L28:
 340 003c 00080240 		.word	1073874944
 341              		.cfi_endproc
 342              	.LFE244:
 344              		.section	.text.W25QXX_Write_Enable,"ax",%progbits
 345              		.align	1
 346              		.global	W25QXX_Write_Enable
 347              		.syntax unified
 348              		.thumb
 349              		.thumb_func
 351              	W25QXX_Write_Enable:
 352              	.LFB245:
 125:BSP/w25qxx.c  **** //W25QXXаДЪЙФм
 126:BSP/w25qxx.c  **** //НЋWELжУЮЛ
 127:BSP/w25qxx.c  **** void W25QXX_Write_Enable(void)
 128:BSP/w25qxx.c  **** {
 353              		.loc 1 128 1 is_stmt 1 view -0
 354              		.cfi_startproc
 355              		@ args = 0, pretend = 0, frame = 0
 356              		@ frame_needed = 0, uses_anonymous_args = 0
 357 0000 10B5     		push	{r4, lr}
 358              	.LCFI7:
 359              		.cfi_def_cfa_offset 8
 360              		.cfi_offset 4, -8
 361              		.cfi_offset 14, -4
 129:BSP/w25qxx.c  ****     W25QXX_CS0;                            //ЪЙФмЦїМў
 362              		.loc 1 129 5 view .LVU69
 363 0002 074C     		ldr	r4, .L32
 364 0004 0022     		movs	r2, #0
 365 0006 1021     		movs	r1, #16
 366 0008 2046     		mov	r0, r4
 367 000a FFF7FEFF 		bl	HAL_GPIO_WritePin
 368              	.LVL28:
 130:BSP/w25qxx.c  ****     SPI1_ReadWriteByte(W25X_WriteEnable);   //ЗЂЫЭаДЪЙФм
 369              		.loc 1 130 5 view .LVU70
 370 000e 0620     		movs	r0, #6
 371 0010 FFF7FEFF 		bl	SPI1_ReadWriteByte
 372              	.LVL29:
 131:BSP/w25qxx.c  ****     W25QXX_CS1;                            //ШЁЯћЦЌбЁ
 373              		.loc 1 131 5 view .LVU71
 374 0014 0122     		movs	r2, #1
 375 0016 1021     		movs	r1, #16
 376 0018 2046     		mov	r0, r4
 377 001a FFF7FEFF 		bl	HAL_GPIO_WritePin
 378              	.LVL30:
 132:BSP/w25qxx.c  **** }
 379              		.loc 1 132 1 is_stmt 0 view .LVU72
 380 001e 10BD     		pop	{r4, pc}
 381              	.L33:
 382              		.align	2
 383              	.L32:
 384 0020 00080240 		.word	1073874944
ARM GAS  C:\Users\24120\AppData\Local\Temp\ccuOcudP.s 			page 10


 385              		.cfi_endproc
 386              	.LFE245:
 388              		.section	.text.W25QXX_Write_Disable,"ax",%progbits
 389              		.align	1
 390              		.global	W25QXX_Write_Disable
 391              		.syntax unified
 392              		.thumb
 393              		.thumb_func
 395              	W25QXX_Write_Disable:
 396              	.LFB246:
 133:BSP/w25qxx.c  **** //W25QXXаДНћжЙ
 134:BSP/w25qxx.c  **** //НЋWELЧхСу
 135:BSP/w25qxx.c  **** void W25QXX_Write_Disable(void)
 136:BSP/w25qxx.c  **** {
 397              		.loc 1 136 1 is_stmt 1 view -0
 398              		.cfi_startproc
 399              		@ args = 0, pretend = 0, frame = 0
 400              		@ frame_needed = 0, uses_anonymous_args = 0
 401 0000 10B5     		push	{r4, lr}
 402              	.LCFI8:
 403              		.cfi_def_cfa_offset 8
 404              		.cfi_offset 4, -8
 405              		.cfi_offset 14, -4
 137:BSP/w25qxx.c  ****     W25QXX_CS0;                            //ЪЙФмЦїМў
 406              		.loc 1 137 5 view .LVU74
 407 0002 074C     		ldr	r4, .L36
 408 0004 0022     		movs	r2, #0
 409 0006 1021     		movs	r1, #16
 410 0008 2046     		mov	r0, r4
 411 000a FFF7FEFF 		bl	HAL_GPIO_WritePin
 412              	.LVL31:
 138:BSP/w25qxx.c  ****     SPI1_ReadWriteByte(W25X_WriteDisable);  //ЗЂЫЭаДНћжЙжИСю
 413              		.loc 1 138 5 view .LVU75
 414 000e 0420     		movs	r0, #4
 415 0010 FFF7FEFF 		bl	SPI1_ReadWriteByte
 416              	.LVL32:
 139:BSP/w25qxx.c  ****     W25QXX_CS1;                            //ШЁЯћЦЌбЁ
 417              		.loc 1 139 5 view .LVU76
 418 0014 0122     		movs	r2, #1
 419 0016 1021     		movs	r1, #16
 420 0018 2046     		mov	r0, r4
 421 001a FFF7FEFF 		bl	HAL_GPIO_WritePin
 422              	.LVL33:
 140:BSP/w25qxx.c  **** }
 423              		.loc 1 140 1 is_stmt 0 view .LVU77
 424 001e 10BD     		pop	{r4, pc}
 425              	.L37:
 426              		.align	2
 427              	.L36:
 428 0020 00080240 		.word	1073874944
 429              		.cfi_endproc
 430              	.LFE246:
 432              		.section	.text.W25QXX_ReadID,"ax",%progbits
 433              		.align	1
 434              		.global	W25QXX_ReadID
 435              		.syntax unified
 436              		.thumb
ARM GAS  C:\Users\24120\AppData\Local\Temp\ccuOcudP.s 			page 11


 437              		.thumb_func
 439              	W25QXX_ReadID:
 440              	.LFB247:
 141:BSP/w25qxx.c  **** 
 142:BSP/w25qxx.c  **** //ЖСШЁаОЦЌID
 143:BSP/w25qxx.c  **** //ЗЕЛижЕШчЯТ:
 144:BSP/w25qxx.c  **** //0XEF13,БэЪОаОЦЌаЭКХЮЊW25Q80
 145:BSP/w25qxx.c  **** //0XEF14,БэЪОаОЦЌаЭКХЮЊW25Q16
 146:BSP/w25qxx.c  **** //0XEF15,БэЪОаОЦЌаЭКХЮЊW25Q32
 147:BSP/w25qxx.c  **** //0XEF16,БэЪОаОЦЌаЭКХЮЊW25Q64
 148:BSP/w25qxx.c  **** //0XEF17,БэЪОаОЦЌаЭКХЮЊW25Q128
 149:BSP/w25qxx.c  **** //0XEF18,БэЪОаОЦЌаЭКХЮЊW25Q256
 150:BSP/w25qxx.c  **** uint16_t W25QXX_ReadID(void)
 151:BSP/w25qxx.c  **** {
 441              		.loc 1 151 1 is_stmt 1 view -0
 442              		.cfi_startproc
 443              		@ args = 0, pretend = 0, frame = 0
 444              		@ frame_needed = 0, uses_anonymous_args = 0
 445 0000 38B5     		push	{r3, r4, r5, lr}
 446              	.LCFI9:
 447              		.cfi_def_cfa_offset 16
 448              		.cfi_offset 3, -16
 449              		.cfi_offset 4, -12
 450              		.cfi_offset 5, -8
 451              		.cfi_offset 14, -4
 152:BSP/w25qxx.c  ****     uint16_t Temp = 0;
 452              		.loc 1 152 5 view .LVU79
 453              	.LVL34:
 153:BSP/w25qxx.c  ****     W25QXX_CS0;
 454              		.loc 1 153 5 view .LVU80
 455 0002 114D     		ldr	r5, .L40
 456 0004 0022     		movs	r2, #0
 457 0006 1021     		movs	r1, #16
 458 0008 2846     		mov	r0, r5
 459 000a FFF7FEFF 		bl	HAL_GPIO_WritePin
 460              	.LVL35:
 154:BSP/w25qxx.c  ****     SPI1_ReadWriteByte(0x90);//ЗЂЫЭЖСШЁIDУќСю
 461              		.loc 1 154 5 view .LVU81
 462 000e 9020     		movs	r0, #144
 463 0010 FFF7FEFF 		bl	SPI1_ReadWriteByte
 464              	.LVL36:
 155:BSP/w25qxx.c  ****     SPI1_ReadWriteByte(0x00);
 465              		.loc 1 155 5 view .LVU82
 466 0014 0020     		movs	r0, #0
 467 0016 FFF7FEFF 		bl	SPI1_ReadWriteByte
 468              	.LVL37:
 156:BSP/w25qxx.c  ****     SPI1_ReadWriteByte(0x00);
 469              		.loc 1 156 5 view .LVU83
 470 001a 0020     		movs	r0, #0
 471 001c FFF7FEFF 		bl	SPI1_ReadWriteByte
 472              	.LVL38:
 157:BSP/w25qxx.c  ****     SPI1_ReadWriteByte(0x00);
 473              		.loc 1 157 5 view .LVU84
 474 0020 0020     		movs	r0, #0
 475 0022 FFF7FEFF 		bl	SPI1_ReadWriteByte
 476              	.LVL39:
 158:BSP/w25qxx.c  ****     Temp|=SPI1_ReadWriteByte(0xFF)<<8;
ARM GAS  C:\Users\24120\AppData\Local\Temp\ccuOcudP.s 			page 12


 477              		.loc 1 158 5 view .LVU85
 478              		.loc 1 158 11 is_stmt 0 view .LVU86
 479 0026 FF20     		movs	r0, #255
 480 0028 FFF7FEFF 		bl	SPI1_ReadWriteByte
 481              	.LVL40:
 482              		.loc 1 158 9 discriminator 1 view .LVU87
 483 002c 0402     		lsls	r4, r0, #8
 484 002e A4B2     		uxth	r4, r4
 485              	.LVL41:
 159:BSP/w25qxx.c  ****     Temp|=SPI1_ReadWriteByte(0xFF);
 486              		.loc 1 159 5 is_stmt 1 view .LVU88
 487              		.loc 1 159 11 is_stmt 0 view .LVU89
 488 0030 FF20     		movs	r0, #255
 489 0032 FFF7FEFF 		bl	SPI1_ReadWriteByte
 490              	.LVL42:
 491              		.loc 1 159 9 discriminator 1 view .LVU90
 492 0036 0443     		orrs	r4, r4, r0
 493              	.LVL43:
 494              		.loc 1 159 9 discriminator 1 view .LVU91
 495 0038 A4B2     		uxth	r4, r4
 496              	.LVL44:
 160:BSP/w25qxx.c  ****     W25QXX_CS1;
 497              		.loc 1 160 5 is_stmt 1 view .LVU92
 498 003a 0122     		movs	r2, #1
 499 003c 1021     		movs	r1, #16
 500 003e 2846     		mov	r0, r5
 501 0040 FFF7FEFF 		bl	HAL_GPIO_WritePin
 502              	.LVL45:
 161:BSP/w25qxx.c  ****     return Temp;
 503              		.loc 1 161 5 view .LVU93
 162:BSP/w25qxx.c  **** }
 504              		.loc 1 162 1 is_stmt 0 view .LVU94
 505 0044 2046     		mov	r0, r4
 506 0046 38BD     		pop	{r3, r4, r5, pc}
 507              	.LVL46:
 508              	.L41:
 509              		.loc 1 162 1 view .LVU95
 510              		.align	2
 511              	.L40:
 512 0048 00080240 		.word	1073874944
 513              		.cfi_endproc
 514              	.LFE247:
 516              		.section	.text.W25QXX_Init,"ax",%progbits
 517              		.align	1
 518              		.global	W25QXX_Init
 519              		.syntax unified
 520              		.thumb
 521              		.thumb_func
 523              	W25QXX_Init:
 524              	.LFB242:
  41:BSP/w25qxx.c  ****     uint8_t temp;
 525              		.loc 1 41 1 is_stmt 1 view -0
 526              		.cfi_startproc
 527              		@ args = 0, pretend = 0, frame = 0
 528              		@ frame_needed = 0, uses_anonymous_args = 0
 529 0000 08B5     		push	{r3, lr}
 530              	.LCFI10:
ARM GAS  C:\Users\24120\AppData\Local\Temp\ccuOcudP.s 			page 13


 531              		.cfi_def_cfa_offset 8
 532              		.cfi_offset 3, -8
 533              		.cfi_offset 14, -4
  42:BSP/w25qxx.c  **** //    GPIO_InitTypeDef GPIO_Initure;
 534              		.loc 1 42 5 view .LVU97
  54:BSP/w25qxx.c  **** //	SPI1_Init();		   			        //ГѕЪМЛЏSPI
 535              		.loc 1 54 5 view .LVU98
 536 0002 0122     		movs	r2, #1
 537 0004 1021     		movs	r1, #16
 538 0006 0548     		ldr	r0, .L44
 539 0008 FFF7FEFF 		bl	HAL_GPIO_WritePin
 540              	.LVL47:
  56:BSP/w25qxx.c  ****     W25QXX_TYPE=W25QXX_ReadID();	        //ЖСШЁFLASH ID.
 541              		.loc 1 56 5 view .LVU99
 542 000c 0820     		movs	r0, #8
 543 000e FFF7FEFF 		bl	SPI1_SetSpeed
 544              	.LVL48:
  57:BSP/w25qxx.c  **** }
 545              		.loc 1 57 5 view .LVU100
  57:BSP/w25qxx.c  **** }
 546              		.loc 1 57 17 is_stmt 0 view .LVU101
 547 0012 FFF7FEFF 		bl	W25QXX_ReadID
 548              	.LVL49:
  57:BSP/w25qxx.c  **** }
 549              		.loc 1 57 16 discriminator 1 view .LVU102
 550 0016 024B     		ldr	r3, .L44+4
 551 0018 1880     		strh	r0, [r3]	@ movhi
  58:BSP/w25qxx.c  **** 
 552              		.loc 1 58 1 view .LVU103
 553 001a 08BD     		pop	{r3, pc}
 554              	.L45:
 555              		.align	2
 556              	.L44:
 557 001c 00080240 		.word	1073874944
 558 0020 00000000 		.word	W25QXX_TYPE
 559              		.cfi_endproc
 560              	.LFE242:
 562              		.section	.text.W25QXX_Read,"ax",%progbits
 563              		.align	1
 564              		.global	W25QXX_Read
 565              		.syntax unified
 566              		.thumb
 567              		.thumb_func
 569              	W25QXX_Read:
 570              	.LVL50:
 571              	.LFB248:
 163:BSP/w25qxx.c  **** //ЖСШЁSPI FLASH
 164:BSP/w25qxx.c  **** //дкжИЖЈЕижЗПЊЪМЖСШЁжИЖЈГЄЖШЕФЪ§Он
 165:BSP/w25qxx.c  **** //pBuffer:Ъ§ОнДцДЂЧј
 166:BSP/w25qxx.c  **** //ReadAddr:ПЊЪМЖСШЁЕФЕижЗ(24bit)
 167:BSP/w25qxx.c  **** //NumByteToRead:вЊЖСШЁЕФзжНкЪ§(зюДѓ65535)
 168:BSP/w25qxx.c  **** void W25QXX_Read(uint8_t* pBuffer,uint32_t ReadAddr,uint32_t NumByteToRead)
 169:BSP/w25qxx.c  **** {
 572              		.loc 1 169 1 is_stmt 1 view -0
 573              		.cfi_startproc
 574              		@ args = 0, pretend = 0, frame = 0
 575              		@ frame_needed = 0, uses_anonymous_args = 0
ARM GAS  C:\Users\24120\AppData\Local\Temp\ccuOcudP.s 			page 14


 576              		.loc 1 169 1 is_stmt 0 view .LVU105
 577 0000 70B5     		push	{r4, r5, r6, lr}
 578              	.LCFI11:
 579              		.cfi_def_cfa_offset 16
 580              		.cfi_offset 4, -16
 581              		.cfi_offset 5, -12
 582              		.cfi_offset 6, -8
 583              		.cfi_offset 14, -4
 584 0002 0646     		mov	r6, r0
 585 0004 0C46     		mov	r4, r1
 586 0006 1546     		mov	r5, r2
 170:BSP/w25qxx.c  ****     uint32_t i;
 587              		.loc 1 170 5 is_stmt 1 view .LVU106
 171:BSP/w25qxx.c  ****     W25QXX_CS0;                            //ЪЙФмЦїМў
 588              		.loc 1 171 5 view .LVU107
 589 0008 0022     		movs	r2, #0
 590              	.LVL51:
 591              		.loc 1 171 5 is_stmt 0 view .LVU108
 592 000a 1021     		movs	r1, #16
 593              	.LVL52:
 594              		.loc 1 171 5 view .LVU109
 595 000c 1448     		ldr	r0, .L52
 596              	.LVL53:
 597              		.loc 1 171 5 view .LVU110
 598 000e FFF7FEFF 		bl	HAL_GPIO_WritePin
 599              	.LVL54:
 172:BSP/w25qxx.c  ****     SPI1_ReadWriteByte(W25X_ReadData);      //ЗЂЫЭЖСШЁУќСю
 600              		.loc 1 172 5 is_stmt 1 view .LVU111
 601 0012 0320     		movs	r0, #3
 602 0014 FFF7FEFF 		bl	SPI1_ReadWriteByte
 603              	.LVL55:
 173:BSP/w25qxx.c  ****     if(W25QXX_TYPE==W25Q256)                //ШчЙћЪЧW25Q256ЕФЛАЕижЗЮЊ4зжНкЕФЃЌвЊЗЂЫЭзюИп8ЮЛ
 604              		.loc 1 173 5 view .LVU112
 605              		.loc 1 173 19 is_stmt 0 view .LVU113
 606 0018 124B     		ldr	r3, .L52+4
 607 001a 1A88     		ldrh	r2, [r3]
 608              		.loc 1 173 7 view .LVU114
 609 001c 4EF61873 		movw	r3, #61208
 610 0020 9A42     		cmp	r2, r3
 611 0022 0CD0     		beq	.L51
 612              	.L47:
 174:BSP/w25qxx.c  ****     {
 175:BSP/w25qxx.c  ****         SPI1_ReadWriteByte((uint8_t)((ReadAddr)>>24));
 176:BSP/w25qxx.c  ****     }
 177:BSP/w25qxx.c  ****     SPI1_ReadWriteByte((uint8_t)((ReadAddr)>>16));   //ЗЂЫЭ24bitЕижЗ
 613              		.loc 1 177 5 is_stmt 1 view .LVU115
 614 0024 C4F30740 		ubfx	r0, r4, #16, #8
 615 0028 FFF7FEFF 		bl	SPI1_ReadWriteByte
 616              	.LVL56:
 178:BSP/w25qxx.c  ****     SPI1_ReadWriteByte((uint8_t)((ReadAddr)>>8));
 617              		.loc 1 178 5 view .LVU116
 618 002c C4F30720 		ubfx	r0, r4, #8, #8
 619 0030 FFF7FEFF 		bl	SPI1_ReadWriteByte
 620              	.LVL57:
 179:BSP/w25qxx.c  ****     SPI1_ReadWriteByte((uint8_t)ReadAddr);
 621              		.loc 1 179 5 view .LVU117
 622 0034 E0B2     		uxtb	r0, r4
ARM GAS  C:\Users\24120\AppData\Local\Temp\ccuOcudP.s 			page 15


 623 0036 FFF7FEFF 		bl	SPI1_ReadWriteByte
 624              	.LVL58:
 180:BSP/w25qxx.c  ****     for(i=0; i<NumByteToRead; i++)
 625              		.loc 1 180 5 view .LVU118
 626              		.loc 1 180 10 is_stmt 0 view .LVU119
 627 003a 0024     		movs	r4, #0
 628              	.LVL59:
 629              		.loc 1 180 5 view .LVU120
 630 003c 08E0     		b	.L48
 631              	.LVL60:
 632              	.L51:
 175:BSP/w25qxx.c  ****     }
 633              		.loc 1 175 9 is_stmt 1 view .LVU121
 634 003e 200E     		lsrs	r0, r4, #24
 635 0040 FFF7FEFF 		bl	SPI1_ReadWriteByte
 636              	.LVL61:
 637 0044 EEE7     		b	.L47
 638              	.LVL62:
 639              	.L49:
 181:BSP/w25qxx.c  ****     {
 182:BSP/w25qxx.c  ****         pBuffer[i]=SPI1_ReadWriteByte(0XFF);    //б­ЛЗЖСЪ§
 640              		.loc 1 182 9 view .LVU122
 641              		.loc 1 182 20 is_stmt 0 view .LVU123
 642 0046 FF20     		movs	r0, #255
 643 0048 FFF7FEFF 		bl	SPI1_ReadWriteByte
 644              	.LVL63:
 645              		.loc 1 182 19 discriminator 1 view .LVU124
 646 004c 3055     		strb	r0, [r6, r4]
 180:BSP/w25qxx.c  ****     {
 647              		.loc 1 180 32 is_stmt 1 discriminator 3 view .LVU125
 648 004e 0134     		adds	r4, r4, #1
 649              	.LVL64:
 650              	.L48:
 180:BSP/w25qxx.c  ****     {
 651              		.loc 1 180 15 discriminator 1 view .LVU126
 652 0050 AC42     		cmp	r4, r5
 653 0052 F8D3     		bcc	.L49
 183:BSP/w25qxx.c  ****     }
 184:BSP/w25qxx.c  ****     W25QXX_CS1;
 654              		.loc 1 184 5 view .LVU127
 655 0054 0122     		movs	r2, #1
 656 0056 1021     		movs	r1, #16
 657 0058 0148     		ldr	r0, .L52
 658 005a FFF7FEFF 		bl	HAL_GPIO_WritePin
 659              	.LVL65:
 185:BSP/w25qxx.c  **** }
 660              		.loc 1 185 1 is_stmt 0 view .LVU128
 661 005e 70BD     		pop	{r4, r5, r6, pc}
 662              	.LVL66:
 663              	.L53:
 664              		.loc 1 185 1 view .LVU129
 665              		.align	2
 666              	.L52:
 667 0060 00080240 		.word	1073874944
 668 0064 00000000 		.word	W25QXX_TYPE
 669              		.cfi_endproc
 670              	.LFE248:
ARM GAS  C:\Users\24120\AppData\Local\Temp\ccuOcudP.s 			page 16


 672              		.section	.text.W25QXX_Wait_Busy,"ax",%progbits
 673              		.align	1
 674              		.global	W25QXX_Wait_Busy
 675              		.syntax unified
 676              		.thumb
 677              		.thumb_func
 679              	W25QXX_Wait_Busy:
 680              	.LFB254:
 186:BSP/w25qxx.c  **** //SPIдквЛвГ(0~65535)ФкаДШыЩйгк256ИізжНкЕФЪ§Он
 187:BSP/w25qxx.c  **** //дкжИЖЈЕижЗПЊЪМаДШызюДѓ256зжНкЕФЪ§Он
 188:BSP/w25qxx.c  **** //pBuffer:Ъ§ОнДцДЂЧј
 189:BSP/w25qxx.c  **** //WriteAddr:ПЊЪМаДШыЕФЕижЗ(24bit)
 190:BSP/w25qxx.c  **** //NumByteToWrite:вЊаДШыЕФзжНкЪ§(зюДѓ256),ИУЪ§ВЛгІИУГЌЙ§ИУвГЕФЪЃгрзжНкЪ§!!!
 191:BSP/w25qxx.c  **** void W25QXX_Write_Page(uint8_t* pBuffer,uint32_t WriteAddr,uint16_t NumByteToWrite)
 192:BSP/w25qxx.c  **** {
 193:BSP/w25qxx.c  ****     uint16_t i;
 194:BSP/w25qxx.c  ****     W25QXX_Write_Enable();                  //SET WEL
 195:BSP/w25qxx.c  ****     W25QXX_CS0;                            //ЪЙФмЦїМў
 196:BSP/w25qxx.c  ****     SPI1_ReadWriteByte(W25X_PageProgram);   //ЗЂЫЭаДвГУќСю
 197:BSP/w25qxx.c  ****     if(W25QXX_TYPE==W25Q256)                //ШчЙћЪЧW25Q256ЕФЛАЕижЗЮЊ4зжНкЕФЃЌвЊЗЂЫЭзюИп8ЮЛ
 198:BSP/w25qxx.c  ****     {
 199:BSP/w25qxx.c  ****         SPI1_ReadWriteByte((uint8_t)((WriteAddr)>>24));
 200:BSP/w25qxx.c  ****     }
 201:BSP/w25qxx.c  ****     SPI1_ReadWriteByte((uint8_t)((WriteAddr)>>16)); //ЗЂЫЭ24bitЕижЗ
 202:BSP/w25qxx.c  ****     SPI1_ReadWriteByte((uint8_t)((WriteAddr)>>8));
 203:BSP/w25qxx.c  ****     SPI1_ReadWriteByte((uint8_t)WriteAddr);
 204:BSP/w25qxx.c  ****     for(i=0; i<NumByteToWrite; i++)SPI1_ReadWriteByte(pBuffer[i]); //б­ЛЗаДЪ§
 205:BSP/w25qxx.c  ****     W25QXX_CS1;                            //ШЁЯћЦЌбЁ
 206:BSP/w25qxx.c  ****     W25QXX_Wait_Busy();					   //ЕШД§аДШыНсЪј
 207:BSP/w25qxx.c  **** }
 208:BSP/w25qxx.c  **** //ЮоМьбщаДSPI FLASH
 209:BSP/w25qxx.c  **** //БиаыШЗБЃЫљаДЕФЕижЗЗЖЮЇФкЕФЪ§ОнШЋВПЮЊ0XFF,ЗёдђдкЗЧ0XFFДІаДШыЕФЪ§ОнНЋЪЇАм!
 210:BSP/w25qxx.c  **** //ОпгаздЖЏЛЛвГЙІФм
 211:BSP/w25qxx.c  **** //дкжИЖЈЕижЗПЊЪМаДШыжИЖЈГЄЖШЕФЪ§Он,ЕЋЪЧвЊШЗБЃЕижЗВЛдННч!
 212:BSP/w25qxx.c  **** //pBuffer:Ъ§ОнДцДЂЧј
 213:BSP/w25qxx.c  **** //WriteAddr:ПЊЪМаДШыЕФЕижЗ(24bit)
 214:BSP/w25qxx.c  **** //NumByteToWrite:вЊаДШыЕФзжНкЪ§(зюДѓ65535)
 215:BSP/w25qxx.c  **** //CHECK OK
 216:BSP/w25qxx.c  **** void W25QXX_Write_NoCheck(uint8_t* pBuffer,uint32_t WriteAddr,uint32_t NumByteToWrite)
 217:BSP/w25qxx.c  **** {
 218:BSP/w25qxx.c  ****     uint16_t pageremain;
 219:BSP/w25qxx.c  ****     pageremain=256-WriteAddr%256; //ЕЅвГЪЃгрЕФзжНкЪ§
 220:BSP/w25qxx.c  ****     if(NumByteToWrite<=pageremain)pageremain=NumByteToWrite;//ВЛДѓгк256ИізжНк
 221:BSP/w25qxx.c  ****     while(1)
 222:BSP/w25qxx.c  ****     {
 223:BSP/w25qxx.c  ****         W25QXX_Write_Page(pBuffer,WriteAddr,pageremain);
 224:BSP/w25qxx.c  ****         if(NumByteToWrite==pageremain)break;//аДШыНсЪјСЫ
 225:BSP/w25qxx.c  ****         else //NumByteToWrite>pageremain
 226:BSP/w25qxx.c  ****         {
 227:BSP/w25qxx.c  ****             pBuffer+=pageremain;
 228:BSP/w25qxx.c  ****             WriteAddr+=pageremain;
 229:BSP/w25qxx.c  **** 
 230:BSP/w25qxx.c  ****             NumByteToWrite-=pageremain;			  //МѕШЅвбО­аДШыСЫЕФзжНкЪ§
 231:BSP/w25qxx.c  ****             if(NumByteToWrite>256)pageremain=256; //вЛДЮПЩвдаДШы256ИізжНк
 232:BSP/w25qxx.c  ****             else pageremain=NumByteToWrite; 	  //ВЛЙЛ256ИізжНкСЫ
 233:BSP/w25qxx.c  ****         }
 234:BSP/w25qxx.c  ****     };
ARM GAS  C:\Users\24120\AppData\Local\Temp\ccuOcudP.s 			page 17


 235:BSP/w25qxx.c  **** }
 236:BSP/w25qxx.c  **** //аДSPI FLASH
 237:BSP/w25qxx.c  **** //дкжИЖЈЕижЗПЊЪМаДШыжИЖЈГЄЖШЕФЪ§Он
 238:BSP/w25qxx.c  **** //ИУКЏЪ§ДјВСГ§Вйзї!
 239:BSP/w25qxx.c  **** //pBuffer:Ъ§ОнДцДЂЧј
 240:BSP/w25qxx.c  **** //WriteAddr:ПЊЪМаДШыЕФЕижЗ(24bit)
 241:BSP/w25qxx.c  **** //NumByteToWrite:вЊаДШыЕФзжНкЪ§(зюДѓ65535)
 242:BSP/w25qxx.c  **** uint8_t W25QXX_BUFFER[SECTOR_SIZE];
 243:BSP/w25qxx.c  **** void W25QXX_Write(uint8_t* pBuffer,uint32_t WriteAddr,uint32_t NumByteToWrite)
 244:BSP/w25qxx.c  **** {
 245:BSP/w25qxx.c  ****     uint32_t secpos;
 246:BSP/w25qxx.c  ****     uint16_t secoff;
 247:BSP/w25qxx.c  ****     uint16_t secremain;
 248:BSP/w25qxx.c  ****     uint16_t i;
 249:BSP/w25qxx.c  ****     uint8_t * W25QXX_BUF;
 250:BSP/w25qxx.c  ****     W25QXX_BUF=W25QXX_BUFFER;
 251:BSP/w25qxx.c  ****     secpos=WriteAddr/SECTOR_SIZE;//ЩШЧјЕижЗ
 252:BSP/w25qxx.c  ****     secoff=WriteAddr%SECTOR_SIZE;//дкЩШЧјФкЕФЦЋвЦ
 253:BSP/w25qxx.c  ****     secremain=SECTOR_SIZE-secoff;//ЩШЧјЪЃгрПеМфДѓаЁ
 254:BSP/w25qxx.c  **** // 	printf("ad:%X,nb:%X\r\n",WriteAddr,NumByteToWrite);//ВтЪдгУ
 255:BSP/w25qxx.c  ****     if(NumByteToWrite<=secremain)secremain=NumByteToWrite;//ВЛДѓгк4096ИізжНк
 256:BSP/w25qxx.c  ****     while(1)
 257:BSP/w25qxx.c  ****     {
 258:BSP/w25qxx.c  ****         W25QXX_Read(W25QXX_BUF,secpos*SECTOR_SIZE,SECTOR_SIZE);//ЖСГіећИіЩШЧјЕФФкШн
 259:BSP/w25qxx.c  ****         for(i=0; i<secremain; i++) //аЃбщЪ§Он
 260:BSP/w25qxx.c  ****         {
 261:BSP/w25qxx.c  ****             if(W25QXX_BUF[secoff+i]!=0XFF)break;//ашвЊВСГ§
 262:BSP/w25qxx.c  ****         }
 263:BSP/w25qxx.c  ****         if(i<secremain)//ашвЊВСГ§
 264:BSP/w25qxx.c  ****         {
 265:BSP/w25qxx.c  ****             W25QXX_Erase_Sector(secpos);//ВСГ§етИіЩШЧј
 266:BSP/w25qxx.c  ****             for(i=0; i<secremain; i++)	 //ИДжЦ
 267:BSP/w25qxx.c  ****             {
 268:BSP/w25qxx.c  ****                 W25QXX_BUF[i+secoff]=pBuffer[i];
 269:BSP/w25qxx.c  ****             }
 270:BSP/w25qxx.c  ****             W25QXX_Write_NoCheck(W25QXX_BUF,secpos*SECTOR_SIZE,SECTOR_SIZE);//аДШыећИіЩШЧј
 271:BSP/w25qxx.c  ****         }
 272:BSP/w25qxx.c  ****         else W25QXX_Write_NoCheck(pBuffer,WriteAddr,secremain); //аДвбО­ВСГ§СЫЕФ,жБНгаДШыЩШЧјЪЃгрЧј
 273:BSP/w25qxx.c  ****         if(NumByteToWrite==secremain)break;//аДШыНсЪјСЫ
 274:BSP/w25qxx.c  ****         else//аДШыЮДНсЪј
 275:BSP/w25qxx.c  ****         {
 276:BSP/w25qxx.c  ****             secpos++;//ЩШЧјЕижЗді1
 277:BSP/w25qxx.c  ****             secoff=0;//ЦЋвЦЮЛжУЮЊ0
 278:BSP/w25qxx.c  **** 
 279:BSP/w25qxx.c  ****             pBuffer+=secremain;  //жИеыЦЋвЦ
 280:BSP/w25qxx.c  ****             WriteAddr+=secremain;//аДЕижЗЦЋвЦ
 281:BSP/w25qxx.c  ****             NumByteToWrite-=secremain;				//зжНкЪ§ЕнМѕ
 282:BSP/w25qxx.c  ****             if(NumByteToWrite>SECTOR_SIZE)secremain=SECTOR_SIZE;	//ЯТвЛИіЩШЧјЛЙЪЧаДВЛЭъ
 283:BSP/w25qxx.c  ****             else secremain=NumByteToWrite;			//ЯТвЛИіЩШЧјПЩвдаДЭъСЫ
 284:BSP/w25qxx.c  ****         }
 285:BSP/w25qxx.c  ****     };
 286:BSP/w25qxx.c  **** }
 287:BSP/w25qxx.c  **** //ВСГ§ећИіаОЦЌ
 288:BSP/w25qxx.c  **** //ЕШД§ЪБМфГЌГЄ...
 289:BSP/w25qxx.c  **** void W25QXX_Erase_Chip(void)
 290:BSP/w25qxx.c  **** {
 291:BSP/w25qxx.c  ****     W25QXX_Write_Enable();                  //SET WEL
ARM GAS  C:\Users\24120\AppData\Local\Temp\ccuOcudP.s 			page 18


 292:BSP/w25qxx.c  ****     W25QXX_Wait_Busy();
 293:BSP/w25qxx.c  ****     W25QXX_CS0;                            //ЪЙФмЦїМў
 294:BSP/w25qxx.c  ****     SPI1_ReadWriteByte(W25X_ChipErase);        //ЗЂЫЭЦЌВСГ§УќСю
 295:BSP/w25qxx.c  ****     W25QXX_CS1;                            //ШЁЯћЦЌбЁ
 296:BSP/w25qxx.c  ****     W25QXX_Wait_Busy();   				   //ЕШД§аОЦЌВСГ§НсЪј
 297:BSP/w25qxx.c  **** }
 298:BSP/w25qxx.c  **** //ВСГ§вЛИіЩШЧј
 299:BSP/w25qxx.c  **** //Dst_Addr:ЩШЧјЕижЗ ИљОнЪЕМЪШнСПЩшжУ
 300:BSP/w25qxx.c  **** //ВСГ§вЛИіЩШЧјЕФзюЩйЪБМф:150ms
 301:BSP/w25qxx.c  **** void W25QXX_Erase_Sector(uint32_t Dst_Addr)
 302:BSP/w25qxx.c  **** {
 303:BSP/w25qxx.c  ****     //МрЪгfalshВСГ§ЧщПі,ВтЪдгУ
 304:BSP/w25qxx.c  ****     //printf("fe:%x\r\n",Dst_Addr);
 305:BSP/w25qxx.c  ****     Dst_Addr*=SECTOR_SIZE;
 306:BSP/w25qxx.c  ****     W25QXX_Write_Enable();                  //SET WEL
 307:BSP/w25qxx.c  ****     W25QXX_Wait_Busy();
 308:BSP/w25qxx.c  ****     W25QXX_CS0;                            //ЪЙФмЦїМў
 309:BSP/w25qxx.c  ****     SPI1_ReadWriteByte(W25X_SectorErase);   //ЗЂЫЭЩШЧјВСГ§жИСю
 310:BSP/w25qxx.c  ****     if(W25QXX_TYPE==W25Q256)                //ШчЙћЪЧW25Q256ЕФЛАЕижЗЮЊ4зжНкЕФЃЌвЊЗЂЫЭзюИп8ЮЛ
 311:BSP/w25qxx.c  ****     {
 312:BSP/w25qxx.c  ****         SPI1_ReadWriteByte((uint8_t)((Dst_Addr)>>24));
 313:BSP/w25qxx.c  ****     }
 314:BSP/w25qxx.c  ****     SPI1_ReadWriteByte((uint8_t)((Dst_Addr)>>16));  //ЗЂЫЭ24bitЕижЗ
 315:BSP/w25qxx.c  ****     SPI1_ReadWriteByte((uint8_t)((Dst_Addr)>>8));
 316:BSP/w25qxx.c  ****     SPI1_ReadWriteByte((uint8_t)Dst_Addr);
 317:BSP/w25qxx.c  ****     W25QXX_CS1;                            //ШЁЯћЦЌбЁ
 318:BSP/w25qxx.c  ****     W25QXX_Wait_Busy();   				    //ЕШД§ВСГ§ЭъГЩ
 319:BSP/w25qxx.c  **** }
 320:BSP/w25qxx.c  **** //ЕШД§ПеЯа
 321:BSP/w25qxx.c  **** void W25QXX_Wait_Busy(void)
 322:BSP/w25qxx.c  **** {
 681              		.loc 1 322 1 is_stmt 1 view -0
 682              		.cfi_startproc
 683              		@ args = 0, pretend = 0, frame = 0
 684              		@ frame_needed = 0, uses_anonymous_args = 0
 685 0000 08B5     		push	{r3, lr}
 686              	.LCFI12:
 687              		.cfi_def_cfa_offset 8
 688              		.cfi_offset 3, -8
 689              		.cfi_offset 14, -4
 690              	.L55:
 323:BSP/w25qxx.c  ****     while((W25QXX_ReadSR(1)&0x01)==0x01);   // ЕШД§BUSYЮЛЧхПе
 691              		.loc 1 323 34 discriminator 1 view .LVU131
 692              		.loc 1 323 12 is_stmt 0 discriminator 1 view .LVU132
 693 0002 0120     		movs	r0, #1
 694 0004 FFF7FEFF 		bl	W25QXX_ReadSR
 695              	.LVL67:
 696              		.loc 1 323 34 discriminator 1 view .LVU133
 697 0008 10F0010F 		tst	r0, #1
 698 000c F9D1     		bne	.L55
 324:BSP/w25qxx.c  **** }
 699              		.loc 1 324 1 view .LVU134
 700 000e 08BD     		pop	{r3, pc}
 701              		.cfi_endproc
 702              	.LFE254:
 704              		.section	.text.W25QXX_Write_Page,"ax",%progbits
 705              		.align	1
ARM GAS  C:\Users\24120\AppData\Local\Temp\ccuOcudP.s 			page 19


 706              		.global	W25QXX_Write_Page
 707              		.syntax unified
 708              		.thumb
 709              		.thumb_func
 711              	W25QXX_Write_Page:
 712              	.LVL68:
 713              	.LFB249:
 192:BSP/w25qxx.c  ****     uint16_t i;
 714              		.loc 1 192 1 is_stmt 1 view -0
 715              		.cfi_startproc
 716              		@ args = 0, pretend = 0, frame = 0
 717              		@ frame_needed = 0, uses_anonymous_args = 0
 192:BSP/w25qxx.c  ****     uint16_t i;
 718              		.loc 1 192 1 is_stmt 0 view .LVU136
 719 0000 70B5     		push	{r4, r5, r6, lr}
 720              	.LCFI13:
 721              		.cfi_def_cfa_offset 16
 722              		.cfi_offset 4, -16
 723              		.cfi_offset 5, -12
 724              		.cfi_offset 6, -8
 725              		.cfi_offset 14, -4
 726 0002 0646     		mov	r6, r0
 727 0004 0C46     		mov	r4, r1
 728 0006 1546     		mov	r5, r2
 193:BSP/w25qxx.c  ****     W25QXX_Write_Enable();                  //SET WEL
 729              		.loc 1 193 5 is_stmt 1 view .LVU137
 194:BSP/w25qxx.c  ****     W25QXX_CS0;                            //ЪЙФмЦїМў
 730              		.loc 1 194 5 view .LVU138
 731 0008 FFF7FEFF 		bl	W25QXX_Write_Enable
 732              	.LVL69:
 195:BSP/w25qxx.c  ****     SPI1_ReadWriteByte(W25X_PageProgram);   //ЗЂЫЭаДвГУќСю
 733              		.loc 1 195 5 view .LVU139
 734 000c 0022     		movs	r2, #0
 735 000e 1021     		movs	r1, #16
 736 0010 1548     		ldr	r0, .L63
 737 0012 FFF7FEFF 		bl	HAL_GPIO_WritePin
 738              	.LVL70:
 196:BSP/w25qxx.c  ****     if(W25QXX_TYPE==W25Q256)                //ШчЙћЪЧW25Q256ЕФЛАЕижЗЮЊ4зжНкЕФЃЌвЊЗЂЫЭзюИп8ЮЛ
 739              		.loc 1 196 5 view .LVU140
 740 0016 0220     		movs	r0, #2
 741 0018 FFF7FEFF 		bl	SPI1_ReadWriteByte
 742              	.LVL71:
 197:BSP/w25qxx.c  ****     {
 743              		.loc 1 197 5 view .LVU141
 197:BSP/w25qxx.c  ****     {
 744              		.loc 1 197 19 is_stmt 0 view .LVU142
 745 001c 134B     		ldr	r3, .L63+4
 746 001e 1A88     		ldrh	r2, [r3]
 197:BSP/w25qxx.c  ****     {
 747              		.loc 1 197 7 view .LVU143
 748 0020 4EF61873 		movw	r3, #61208
 749 0024 9A42     		cmp	r2, r3
 750 0026 0CD0     		beq	.L62
 751              	.L58:
 201:BSP/w25qxx.c  ****     SPI1_ReadWriteByte((uint8_t)((WriteAddr)>>8));
 752              		.loc 1 201 5 is_stmt 1 view .LVU144
 753 0028 C4F30740 		ubfx	r0, r4, #16, #8
ARM GAS  C:\Users\24120\AppData\Local\Temp\ccuOcudP.s 			page 20


 754 002c FFF7FEFF 		bl	SPI1_ReadWriteByte
 755              	.LVL72:
 202:BSP/w25qxx.c  ****     SPI1_ReadWriteByte((uint8_t)WriteAddr);
 756              		.loc 1 202 5 view .LVU145
 757 0030 C4F30720 		ubfx	r0, r4, #8, #8
 758 0034 FFF7FEFF 		bl	SPI1_ReadWriteByte
 759              	.LVL73:
 203:BSP/w25qxx.c  ****     for(i=0; i<NumByteToWrite; i++)SPI1_ReadWriteByte(pBuffer[i]); //б­ЛЗаДЪ§
 760              		.loc 1 203 5 view .LVU146
 761 0038 E0B2     		uxtb	r0, r4
 762 003a FFF7FEFF 		bl	SPI1_ReadWriteByte
 763              	.LVL74:
 204:BSP/w25qxx.c  ****     W25QXX_CS1;                            //ШЁЯћЦЌбЁ
 764              		.loc 1 204 5 view .LVU147
 204:BSP/w25qxx.c  ****     W25QXX_CS1;                            //ШЁЯћЦЌбЁ
 765              		.loc 1 204 10 is_stmt 0 view .LVU148
 766 003e 0024     		movs	r4, #0
 767              	.LVL75:
 204:BSP/w25qxx.c  ****     W25QXX_CS1;                            //ШЁЯћЦЌбЁ
 768              		.loc 1 204 5 view .LVU149
 769 0040 08E0     		b	.L59
 770              	.LVL76:
 771              	.L62:
 199:BSP/w25qxx.c  ****     }
 772              		.loc 1 199 9 is_stmt 1 view .LVU150
 773 0042 200E     		lsrs	r0, r4, #24
 774 0044 FFF7FEFF 		bl	SPI1_ReadWriteByte
 775              	.LVL77:
 776 0048 EEE7     		b	.L58
 777              	.LVL78:
 778              	.L60:
 204:BSP/w25qxx.c  ****     W25QXX_CS1;                            //ШЁЯћЦЌбЁ
 779              		.loc 1 204 36 discriminator 3 view .LVU151
 780 004a 305D     		ldrb	r0, [r6, r4]	@ zero_extendqisi2
 781 004c FFF7FEFF 		bl	SPI1_ReadWriteByte
 782              	.LVL79:
 204:BSP/w25qxx.c  ****     W25QXX_CS1;                            //ШЁЯћЦЌбЁ
 783              		.loc 1 204 33 discriminator 3 view .LVU152
 784 0050 0134     		adds	r4, r4, #1
 785              	.LVL80:
 204:BSP/w25qxx.c  ****     W25QXX_CS1;                            //ШЁЯћЦЌбЁ
 786              		.loc 1 204 33 is_stmt 0 discriminator 3 view .LVU153
 787 0052 A4B2     		uxth	r4, r4
 788              	.LVL81:
 789              	.L59:
 204:BSP/w25qxx.c  ****     W25QXX_CS1;                            //ШЁЯћЦЌбЁ
 790              		.loc 1 204 15 is_stmt 1 discriminator 2 view .LVU154
 791 0054 AC42     		cmp	r4, r5
 792 0056 F8D3     		bcc	.L60
 205:BSP/w25qxx.c  ****     W25QXX_Wait_Busy();					   //ЕШД§аДШыНсЪј
 793              		.loc 1 205 5 view .LVU155
 794 0058 0122     		movs	r2, #1
 795 005a 1021     		movs	r1, #16
 796 005c 0248     		ldr	r0, .L63
 797 005e FFF7FEFF 		bl	HAL_GPIO_WritePin
 798              	.LVL82:
 206:BSP/w25qxx.c  **** }
ARM GAS  C:\Users\24120\AppData\Local\Temp\ccuOcudP.s 			page 21


 799              		.loc 1 206 5 view .LVU156
 800 0062 FFF7FEFF 		bl	W25QXX_Wait_Busy
 801              	.LVL83:
 207:BSP/w25qxx.c  **** //ЮоМьбщаДSPI FLASH
 802              		.loc 1 207 1 is_stmt 0 view .LVU157
 803 0066 70BD     		pop	{r4, r5, r6, pc}
 804              	.LVL84:
 805              	.L64:
 207:BSP/w25qxx.c  **** //ЮоМьбщаДSPI FLASH
 806              		.loc 1 207 1 view .LVU158
 807              		.align	2
 808              	.L63:
 809 0068 00080240 		.word	1073874944
 810 006c 00000000 		.word	W25QXX_TYPE
 811              		.cfi_endproc
 812              	.LFE249:
 814              		.section	.text.W25QXX_Write_NoCheck,"ax",%progbits
 815              		.align	1
 816              		.global	W25QXX_Write_NoCheck
 817              		.syntax unified
 818              		.thumb
 819              		.thumb_func
 821              	W25QXX_Write_NoCheck:
 822              	.LVL85:
 823              	.LFB250:
 217:BSP/w25qxx.c  ****     uint16_t pageremain;
 824              		.loc 1 217 1 is_stmt 1 view -0
 825              		.cfi_startproc
 826              		@ args = 0, pretend = 0, frame = 0
 827              		@ frame_needed = 0, uses_anonymous_args = 0
 217:BSP/w25qxx.c  ****     uint16_t pageremain;
 828              		.loc 1 217 1 is_stmt 0 view .LVU160
 829 0000 F8B5     		push	{r3, r4, r5, r6, r7, lr}
 830              	.LCFI14:
 831              		.cfi_def_cfa_offset 24
 832              		.cfi_offset 3, -24
 833              		.cfi_offset 4, -20
 834              		.cfi_offset 5, -16
 835              		.cfi_offset 6, -12
 836              		.cfi_offset 7, -8
 837              		.cfi_offset 14, -4
 838 0002 0746     		mov	r7, r0
 839 0004 0E46     		mov	r6, r1
 840 0006 1546     		mov	r5, r2
 218:BSP/w25qxx.c  ****     pageremain=256-WriteAddr%256; //ЕЅвГЪЃгрЕФзжНкЪ§
 841              		.loc 1 218 5 is_stmt 1 view .LVU161
 219:BSP/w25qxx.c  ****     if(NumByteToWrite<=pageremain)pageremain=NumByteToWrite;//ВЛДѓгк256ИізжНк
 842              		.loc 1 219 5 view .LVU162
 219:BSP/w25qxx.c  ****     if(NumByteToWrite<=pageremain)pageremain=NumByteToWrite;//ВЛДѓгк256ИізжНк
 843              		.loc 1 219 29 is_stmt 0 view .LVU163
 844 0008 CCB2     		uxtb	r4, r1
 219:BSP/w25qxx.c  ****     if(NumByteToWrite<=pageremain)pageremain=NumByteToWrite;//ВЛДѓгк256ИізжНк
 845              		.loc 1 219 15 view .LVU164
 846 000a C4F58074 		rsb	r4, r4, #256
 847 000e A4B2     		uxth	r4, r4
 848              	.LVL86:
 220:BSP/w25qxx.c  ****     while(1)
ARM GAS  C:\Users\24120\AppData\Local\Temp\ccuOcudP.s 			page 22


 849              		.loc 1 220 5 is_stmt 1 view .LVU165
 220:BSP/w25qxx.c  ****     while(1)
 850              		.loc 1 220 7 is_stmt 0 view .LVU166
 851 0010 9442     		cmp	r4, r2
 852 0012 03D3     		bcc	.L67
 220:BSP/w25qxx.c  ****     while(1)
 853              		.loc 1 220 35 is_stmt 1 discriminator 1 view .LVU167
 220:BSP/w25qxx.c  ****     while(1)
 854              		.loc 1 220 45 is_stmt 0 discriminator 1 view .LVU168
 855 0014 94B2     		uxth	r4, r2
 856              	.LVL87:
 220:BSP/w25qxx.c  ****     while(1)
 857              		.loc 1 220 45 discriminator 1 view .LVU169
 858 0016 01E0     		b	.L67
 859              	.LVL88:
 860              	.L70:
 231:BSP/w25qxx.c  ****             else pageremain=NumByteToWrite; 	  //ВЛЙЛ256ИізжНкСЫ
 861              		.loc 1 231 45 discriminator 1 view .LVU170
 862 0018 4FF48074 		mov	r4, #256
 863              	.LVL89:
 864              	.L67:
 221:BSP/w25qxx.c  ****     {
 865              		.loc 1 221 5 is_stmt 1 view .LVU171
 223:BSP/w25qxx.c  ****         if(NumByteToWrite==pageremain)break;//аДШыНсЪјСЫ
 866              		.loc 1 223 9 view .LVU172
 867 001c 2246     		mov	r2, r4
 868 001e 3146     		mov	r1, r6
 869 0020 3846     		mov	r0, r7
 870 0022 FFF7FEFF 		bl	W25QXX_Write_Page
 871              	.LVL90:
 224:BSP/w25qxx.c  ****         else //NumByteToWrite>pageremain
 872              		.loc 1 224 9 view .LVU173
 224:BSP/w25qxx.c  ****         else //NumByteToWrite>pageremain
 873              		.loc 1 224 11 is_stmt 0 view .LVU174
 874 0026 AC42     		cmp	r4, r5
 875 0028 07D0     		beq	.L65
 227:BSP/w25qxx.c  ****             WriteAddr+=pageremain;
 876              		.loc 1 227 13 is_stmt 1 view .LVU175
 227:BSP/w25qxx.c  ****             WriteAddr+=pageremain;
 877              		.loc 1 227 20 is_stmt 0 view .LVU176
 878 002a 2744     		add	r7, r7, r4
 879              	.LVL91:
 228:BSP/w25qxx.c  **** 
 880              		.loc 1 228 13 is_stmt 1 view .LVU177
 228:BSP/w25qxx.c  **** 
 881              		.loc 1 228 22 is_stmt 0 view .LVU178
 882 002c 2644     		add	r6, r6, r4
 883              	.LVL92:
 230:BSP/w25qxx.c  ****             if(NumByteToWrite>256)pageremain=256; //вЛДЮПЩвдаДШы256ИізжНк
 884              		.loc 1 230 13 is_stmt 1 view .LVU179
 230:BSP/w25qxx.c  ****             if(NumByteToWrite>256)pageremain=256; //вЛДЮПЩвдаДШы256ИізжНк
 885              		.loc 1 230 27 is_stmt 0 view .LVU180
 886 002e 2D1B     		subs	r5, r5, r4
 887              	.LVL93:
 231:BSP/w25qxx.c  ****             else pageremain=NumByteToWrite; 	  //ВЛЙЛ256ИізжНкСЫ
 888              		.loc 1 231 13 is_stmt 1 view .LVU181
 231:BSP/w25qxx.c  ****             else pageremain=NumByteToWrite; 	  //ВЛЙЛ256ИізжНкСЫ
ARM GAS  C:\Users\24120\AppData\Local\Temp\ccuOcudP.s 			page 23


 889              		.loc 1 231 15 is_stmt 0 view .LVU182
 890 0030 B5F5807F 		cmp	r5, #256
 891 0034 F0D8     		bhi	.L70
 232:BSP/w25qxx.c  ****         }
 892              		.loc 1 232 18 is_stmt 1 view .LVU183
 232:BSP/w25qxx.c  ****         }
 893              		.loc 1 232 28 is_stmt 0 view .LVU184
 894 0036 ACB2     		uxth	r4, r5
 895              	.LVL94:
 232:BSP/w25qxx.c  ****         }
 896              		.loc 1 232 28 view .LVU185
 897 0038 F0E7     		b	.L67
 898              	.L65:
 235:BSP/w25qxx.c  **** //аДSPI FLASH
 899              		.loc 1 235 1 view .LVU186
 900 003a F8BD     		pop	{r3, r4, r5, r6, r7, pc}
 235:BSP/w25qxx.c  **** //аДSPI FLASH
 901              		.loc 1 235 1 view .LVU187
 902              		.cfi_endproc
 903              	.LFE250:
 905              		.section	.text.W25QXX_Erase_Chip,"ax",%progbits
 906              		.align	1
 907              		.global	W25QXX_Erase_Chip
 908              		.syntax unified
 909              		.thumb
 910              		.thumb_func
 912              	W25QXX_Erase_Chip:
 913              	.LFB252:
 290:BSP/w25qxx.c  ****     W25QXX_Write_Enable();                  //SET WEL
 914              		.loc 1 290 1 is_stmt 1 view -0
 915              		.cfi_startproc
 916              		@ args = 0, pretend = 0, frame = 0
 917              		@ frame_needed = 0, uses_anonymous_args = 0
 918 0000 10B5     		push	{r4, lr}
 919              	.LCFI15:
 920              		.cfi_def_cfa_offset 8
 921              		.cfi_offset 4, -8
 922              		.cfi_offset 14, -4
 291:BSP/w25qxx.c  ****     W25QXX_Wait_Busy();
 923              		.loc 1 291 5 view .LVU189
 924 0002 FFF7FEFF 		bl	W25QXX_Write_Enable
 925              	.LVL95:
 292:BSP/w25qxx.c  ****     W25QXX_CS0;                            //ЪЙФмЦїМў
 926              		.loc 1 292 5 view .LVU190
 927 0006 FFF7FEFF 		bl	W25QXX_Wait_Busy
 928              	.LVL96:
 293:BSP/w25qxx.c  ****     SPI1_ReadWriteByte(W25X_ChipErase);        //ЗЂЫЭЦЌВСГ§УќСю
 929              		.loc 1 293 5 view .LVU191
 930 000a 084C     		ldr	r4, .L74
 931 000c 0022     		movs	r2, #0
 932 000e 1021     		movs	r1, #16
 933 0010 2046     		mov	r0, r4
 934 0012 FFF7FEFF 		bl	HAL_GPIO_WritePin
 935              	.LVL97:
 294:BSP/w25qxx.c  ****     W25QXX_CS1;                            //ШЁЯћЦЌбЁ
 936              		.loc 1 294 5 view .LVU192
 937 0016 C720     		movs	r0, #199
ARM GAS  C:\Users\24120\AppData\Local\Temp\ccuOcudP.s 			page 24


 938 0018 FFF7FEFF 		bl	SPI1_ReadWriteByte
 939              	.LVL98:
 295:BSP/w25qxx.c  ****     W25QXX_Wait_Busy();   				   //ЕШД§аОЦЌВСГ§НсЪј
 940              		.loc 1 295 5 view .LVU193
 941 001c 0122     		movs	r2, #1
 942 001e 1021     		movs	r1, #16
 943 0020 2046     		mov	r0, r4
 944 0022 FFF7FEFF 		bl	HAL_GPIO_WritePin
 945              	.LVL99:
 296:BSP/w25qxx.c  **** }
 946              		.loc 1 296 5 view .LVU194
 947 0026 FFF7FEFF 		bl	W25QXX_Wait_Busy
 948              	.LVL100:
 297:BSP/w25qxx.c  **** //ВСГ§вЛИіЩШЧј
 949              		.loc 1 297 1 is_stmt 0 view .LVU195
 950 002a 10BD     		pop	{r4, pc}
 951              	.L75:
 952              		.align	2
 953              	.L74:
 954 002c 00080240 		.word	1073874944
 955              		.cfi_endproc
 956              	.LFE252:
 958              		.section	.text.W25QXX_Erase_Sector,"ax",%progbits
 959              		.align	1
 960              		.global	W25QXX_Erase_Sector
 961              		.syntax unified
 962              		.thumb
 963              		.thumb_func
 965              	W25QXX_Erase_Sector:
 966              	.LVL101:
 967              	.LFB253:
 302:BSP/w25qxx.c  ****     //МрЪгfalshВСГ§ЧщПі,ВтЪдгУ
 968              		.loc 1 302 1 is_stmt 1 view -0
 969              		.cfi_startproc
 970              		@ args = 0, pretend = 0, frame = 0
 971              		@ frame_needed = 0, uses_anonymous_args = 0
 302:BSP/w25qxx.c  ****     //МрЪгfalshВСГ§ЧщПі,ВтЪдгУ
 972              		.loc 1 302 1 is_stmt 0 view .LVU197
 973 0000 10B5     		push	{r4, lr}
 974              	.LCFI16:
 975              		.cfi_def_cfa_offset 8
 976              		.cfi_offset 4, -8
 977              		.cfi_offset 14, -4
 305:BSP/w25qxx.c  ****     W25QXX_Write_Enable();                  //SET WEL
 978              		.loc 1 305 5 is_stmt 1 view .LVU198
 305:BSP/w25qxx.c  ****     W25QXX_Write_Enable();                  //SET WEL
 979              		.loc 1 305 13 is_stmt 0 view .LVU199
 980 0002 0403     		lsls	r4, r0, #12
 981              	.LVL102:
 306:BSP/w25qxx.c  ****     W25QXX_Wait_Busy();
 982              		.loc 1 306 5 is_stmt 1 view .LVU200
 983 0004 FFF7FEFF 		bl	W25QXX_Write_Enable
 984              	.LVL103:
 307:BSP/w25qxx.c  ****     W25QXX_CS0;                            //ЪЙФмЦїМў
 985              		.loc 1 307 5 view .LVU201
 986 0008 FFF7FEFF 		bl	W25QXX_Wait_Busy
 987              	.LVL104:
ARM GAS  C:\Users\24120\AppData\Local\Temp\ccuOcudP.s 			page 25


 308:BSP/w25qxx.c  ****     SPI1_ReadWriteByte(W25X_SectorErase);   //ЗЂЫЭЩШЧјВСГ§жИСю
 988              		.loc 1 308 5 view .LVU202
 989 000c 0022     		movs	r2, #0
 990 000e 1021     		movs	r1, #16
 991 0010 1148     		ldr	r0, .L80
 992 0012 FFF7FEFF 		bl	HAL_GPIO_WritePin
 993              	.LVL105:
 309:BSP/w25qxx.c  ****     if(W25QXX_TYPE==W25Q256)                //ШчЙћЪЧW25Q256ЕФЛАЕижЗЮЊ4зжНкЕФЃЌвЊЗЂЫЭзюИп8ЮЛ
 994              		.loc 1 309 5 view .LVU203
 995 0016 2020     		movs	r0, #32
 996 0018 FFF7FEFF 		bl	SPI1_ReadWriteByte
 997              	.LVL106:
 310:BSP/w25qxx.c  ****     {
 998              		.loc 1 310 5 view .LVU204
 310:BSP/w25qxx.c  ****     {
 999              		.loc 1 310 19 is_stmt 0 view .LVU205
 1000 001c 0F4B     		ldr	r3, .L80+4
 1001 001e 1A88     		ldrh	r2, [r3]
 310:BSP/w25qxx.c  ****     {
 1002              		.loc 1 310 7 view .LVU206
 1003 0020 4EF61873 		movw	r3, #61208
 1004 0024 9A42     		cmp	r2, r3
 1005 0026 13D0     		beq	.L79
 1006              	.L77:
 314:BSP/w25qxx.c  ****     SPI1_ReadWriteByte((uint8_t)((Dst_Addr)>>8));
 1007              		.loc 1 314 5 is_stmt 1 view .LVU207
 1008 0028 C4F30740 		ubfx	r0, r4, #16, #8
 1009 002c FFF7FEFF 		bl	SPI1_ReadWriteByte
 1010              	.LVL107:
 315:BSP/w25qxx.c  ****     SPI1_ReadWriteByte((uint8_t)Dst_Addr);
 1011              		.loc 1 315 5 view .LVU208
 315:BSP/w25qxx.c  ****     SPI1_ReadWriteByte((uint8_t)Dst_Addr);
 1012              		.loc 1 315 44 is_stmt 0 view .LVU209
 1013 0030 200A     		lsrs	r0, r4, #8
 315:BSP/w25qxx.c  ****     SPI1_ReadWriteByte((uint8_t)Dst_Addr);
 1014              		.loc 1 315 5 view .LVU210
 1015 0032 00F0F000 		and	r0, r0, #240
 1016 0036 FFF7FEFF 		bl	SPI1_ReadWriteByte
 1017              	.LVL108:
 316:BSP/w25qxx.c  ****     W25QXX_CS1;                            //ШЁЯћЦЌбЁ
 1018              		.loc 1 316 5 is_stmt 1 view .LVU211
 1019 003a 0020     		movs	r0, #0
 1020 003c FFF7FEFF 		bl	SPI1_ReadWriteByte
 1021              	.LVL109:
 317:BSP/w25qxx.c  ****     W25QXX_Wait_Busy();   				    //ЕШД§ВСГ§ЭъГЩ
 1022              		.loc 1 317 5 view .LVU212
 1023 0040 0122     		movs	r2, #1
 1024 0042 1021     		movs	r1, #16
 1025 0044 0448     		ldr	r0, .L80
 1026 0046 FFF7FEFF 		bl	HAL_GPIO_WritePin
 1027              	.LVL110:
 318:BSP/w25qxx.c  **** }
 1028              		.loc 1 318 5 view .LVU213
 1029 004a FFF7FEFF 		bl	W25QXX_Wait_Busy
 1030              	.LVL111:
 319:BSP/w25qxx.c  **** //ЕШД§ПеЯа
 1031              		.loc 1 319 1 is_stmt 0 view .LVU214
ARM GAS  C:\Users\24120\AppData\Local\Temp\ccuOcudP.s 			page 26


 1032 004e 10BD     		pop	{r4, pc}
 1033              	.LVL112:
 1034              	.L79:
 312:BSP/w25qxx.c  ****     }
 1035              		.loc 1 312 9 is_stmt 1 view .LVU215
 1036 0050 200E     		lsrs	r0, r4, #24
 1037 0052 FFF7FEFF 		bl	SPI1_ReadWriteByte
 1038              	.LVL113:
 1039 0056 E7E7     		b	.L77
 1040              	.L81:
 1041              		.align	2
 1042              	.L80:
 1043 0058 00080240 		.word	1073874944
 1044 005c 00000000 		.word	W25QXX_TYPE
 1045              		.cfi_endproc
 1046              	.LFE253:
 1048              		.section	.text.W25QXX_Write,"ax",%progbits
 1049              		.align	1
 1050              		.global	W25QXX_Write
 1051              		.syntax unified
 1052              		.thumb
 1053              		.thumb_func
 1055              	W25QXX_Write:
 1056              	.LVL114:
 1057              	.LFB251:
 244:BSP/w25qxx.c  ****     uint32_t secpos;
 1058              		.loc 1 244 1 view -0
 1059              		.cfi_startproc
 1060              		@ args = 0, pretend = 0, frame = 0
 1061              		@ frame_needed = 0, uses_anonymous_args = 0
 244:BSP/w25qxx.c  ****     uint32_t secpos;
 1062              		.loc 1 244 1 is_stmt 0 view .LVU217
 1063 0000 2DE9F047 		push	{r4, r5, r6, r7, r8, r9, r10, lr}
 1064              	.LCFI17:
 1065              		.cfi_def_cfa_offset 32
 1066              		.cfi_offset 4, -32
 1067              		.cfi_offset 5, -28
 1068              		.cfi_offset 6, -24
 1069              		.cfi_offset 7, -20
 1070              		.cfi_offset 8, -16
 1071              		.cfi_offset 9, -12
 1072              		.cfi_offset 10, -8
 1073              		.cfi_offset 14, -4
 1074 0004 0646     		mov	r6, r0
 1075 0006 8946     		mov	r9, r1
 1076 0008 1746     		mov	r7, r2
 245:BSP/w25qxx.c  ****     uint16_t secoff;
 1077              		.loc 1 245 5 is_stmt 1 view .LVU218
 246:BSP/w25qxx.c  ****     uint16_t secremain;
 1078              		.loc 1 246 5 view .LVU219
 247:BSP/w25qxx.c  ****     uint16_t i;
 1079              		.loc 1 247 5 view .LVU220
 248:BSP/w25qxx.c  ****     uint8_t * W25QXX_BUF;
 1080              		.loc 1 248 5 view .LVU221
 249:BSP/w25qxx.c  ****     W25QXX_BUF=W25QXX_BUFFER;
 1081              		.loc 1 249 5 view .LVU222
 250:BSP/w25qxx.c  ****     secpos=WriteAddr/SECTOR_SIZE;//ЩШЧјЕижЗ
ARM GAS  C:\Users\24120\AppData\Local\Temp\ccuOcudP.s 			page 27


 1082              		.loc 1 250 5 view .LVU223
 1083              	.LVL115:
 251:BSP/w25qxx.c  ****     secoff=WriteAddr%SECTOR_SIZE;//дкЩШЧјФкЕФЦЋвЦ
 1084              		.loc 1 251 5 view .LVU224
 251:BSP/w25qxx.c  ****     secoff=WriteAddr%SECTOR_SIZE;//дкЩШЧјФкЕФЦЋвЦ
 1085              		.loc 1 251 11 is_stmt 0 view .LVU225
 1086 000a 4FEA1138 		lsr	r8, r1, #12
 1087              	.LVL116:
 252:BSP/w25qxx.c  ****     secremain=SECTOR_SIZE-secoff;//ЩШЧјЪЃгрПеМфДѓаЁ
 1088              		.loc 1 252 5 is_stmt 1 view .LVU226
 252:BSP/w25qxx.c  ****     secremain=SECTOR_SIZE-secoff;//ЩШЧјЪЃгрПеМфДѓаЁ
 1089              		.loc 1 252 11 is_stmt 0 view .LVU227
 1090 000e C1F30B05 		ubfx	r5, r1, #0, #12
 1091              	.LVL117:
 253:BSP/w25qxx.c  **** // 	printf("ad:%X,nb:%X\r\n",WriteAddr,NumByteToWrite);//ВтЪдгУ
 1092              		.loc 1 253 5 is_stmt 1 view .LVU228
 253:BSP/w25qxx.c  **** // 	printf("ad:%X,nb:%X\r\n",WriteAddr,NumByteToWrite);//ВтЪдгУ
 1093              		.loc 1 253 14 is_stmt 0 view .LVU229
 1094 0012 C5F58054 		rsb	r4, r5, #4096
 1095 0016 A4B2     		uxth	r4, r4
 1096              	.LVL118:
 255:BSP/w25qxx.c  ****     while(1)
 1097              		.loc 1 255 5 is_stmt 1 view .LVU230
 255:BSP/w25qxx.c  ****     while(1)
 1098              		.loc 1 255 7 is_stmt 0 view .LVU231
 1099 0018 9442     		cmp	r4, r2
 1100 001a 04D3     		bcc	.L84
 255:BSP/w25qxx.c  ****     while(1)
 1101              		.loc 1 255 34 is_stmt 1 discriminator 1 view .LVU232
 255:BSP/w25qxx.c  ****     while(1)
 1102              		.loc 1 255 43 is_stmt 0 discriminator 1 view .LVU233
 1103 001c 94B2     		uxth	r4, r2
 1104              	.LVL119:
 255:BSP/w25qxx.c  ****     while(1)
 1105              		.loc 1 255 43 discriminator 1 view .LVU234
 1106 001e 02E0     		b	.L84
 1107              	.LVL120:
 1108              	.L94:
 282:BSP/w25qxx.c  ****             else secremain=NumByteToWrite;			//ЯТвЛИіЩШЧјПЩвдаДЭъСЫ
 1109              		.loc 1 282 52 discriminator 1 view .LVU235
 1110 0020 4FF48054 		mov	r4, #4096
 1111              	.LVL121:
 1112              	.L93:
 282:BSP/w25qxx.c  ****             else secremain=NumByteToWrite;			//ЯТвЛИіЩШЧјПЩвдаДЭъСЫ
 1113              		.loc 1 282 52 discriminator 1 view .LVU236
 1114 0024 0025     		movs	r5, #0
 1115              	.LVL122:
 1116              	.L84:
 256:BSP/w25qxx.c  ****     {
 1117              		.loc 1 256 5 is_stmt 1 view .LVU237
 258:BSP/w25qxx.c  ****         for(i=0; i<secremain; i++) //аЃбщЪ§Он
 1118              		.loc 1 258 9 view .LVU238
 1119 0026 4FEA083A 		lsl	r10, r8, #12
 1120 002a 4FF48052 		mov	r2, #4096
 1121 002e 5146     		mov	r1, r10
 1122 0030 1B48     		ldr	r0, .L97
 1123 0032 FFF7FEFF 		bl	W25QXX_Read
ARM GAS  C:\Users\24120\AppData\Local\Temp\ccuOcudP.s 			page 28


 1124              	.LVL123:
 259:BSP/w25qxx.c  ****         {
 1125              		.loc 1 259 9 view .LVU239
 259:BSP/w25qxx.c  ****         {
 1126              		.loc 1 259 14 is_stmt 0 view .LVU240
 1127 0036 0023     		movs	r3, #0
 1128              	.LVL124:
 1129              	.L85:
 259:BSP/w25qxx.c  ****         {
 1130              		.loc 1 259 19 is_stmt 1 discriminator 1 view .LVU241
 1131 0038 9C42     		cmp	r4, r3
 1132 003a 07D9     		bls	.L86
 261:BSP/w25qxx.c  ****         }
 1133              		.loc 1 261 13 view .LVU242
 261:BSP/w25qxx.c  ****         }
 1134              		.loc 1 261 33 is_stmt 0 view .LVU243
 1135 003c EA18     		adds	r2, r5, r3
 261:BSP/w25qxx.c  ****         }
 1136              		.loc 1 261 26 view .LVU244
 1137 003e 1849     		ldr	r1, .L97
 1138 0040 8A5C     		ldrb	r2, [r1, r2]	@ zero_extendqisi2
 261:BSP/w25qxx.c  ****         }
 1139              		.loc 1 261 15 view .LVU245
 1140 0042 FF2A     		cmp	r2, #255
 1141 0044 02D1     		bne	.L86
 259:BSP/w25qxx.c  ****         {
 1142              		.loc 1 259 32 is_stmt 1 discriminator 2 view .LVU246
 1143 0046 0133     		adds	r3, r3, #1
 1144              	.LVL125:
 259:BSP/w25qxx.c  ****         {
 1145              		.loc 1 259 32 is_stmt 0 discriminator 2 view .LVU247
 1146 0048 9BB2     		uxth	r3, r3
 1147              	.LVL126:
 259:BSP/w25qxx.c  ****         {
 1148              		.loc 1 259 32 discriminator 2 view .LVU248
 1149 004a F5E7     		b	.L85
 1150              	.LVL127:
 1151              	.L86:
 263:BSP/w25qxx.c  ****         {
 1152              		.loc 1 263 9 is_stmt 1 view .LVU249
 263:BSP/w25qxx.c  ****         {
 1153              		.loc 1 263 11 is_stmt 0 view .LVU250
 1154 004c 9C42     		cmp	r4, r3
 1155 004e 10D8     		bhi	.L96
 272:BSP/w25qxx.c  ****         if(NumByteToWrite==secremain)break;//аДШыНсЪјСЫ
 1156              		.loc 1 272 14 is_stmt 1 view .LVU251
 1157 0050 2246     		mov	r2, r4
 1158 0052 4946     		mov	r1, r9
 1159 0054 3046     		mov	r0, r6
 1160 0056 FFF7FEFF 		bl	W25QXX_Write_NoCheck
 1161              	.LVL128:
 1162              	.L91:
 273:BSP/w25qxx.c  ****         else//аДШыЮДНсЪј
 1163              		.loc 1 273 9 view .LVU252
 273:BSP/w25qxx.c  ****         else//аДШыЮДНсЪј
 1164              		.loc 1 273 11 is_stmt 0 view .LVU253
 1165 005a BC42     		cmp	r4, r7
ARM GAS  C:\Users\24120\AppData\Local\Temp\ccuOcudP.s 			page 29


 1166 005c 1DD0     		beq	.L82
 276:BSP/w25qxx.c  ****             secoff=0;//ЦЋвЦЮЛжУЮЊ0
 1167              		.loc 1 276 13 is_stmt 1 view .LVU254
 276:BSP/w25qxx.c  ****             secoff=0;//ЦЋвЦЮЛжУЮЊ0
 1168              		.loc 1 276 19 is_stmt 0 view .LVU255
 1169 005e 08F10108 		add	r8, r8, #1
 1170              	.LVL129:
 277:BSP/w25qxx.c  **** 
 1171              		.loc 1 277 13 is_stmt 1 view .LVU256
 279:BSP/w25qxx.c  ****             WriteAddr+=secremain;//аДЕижЗЦЋвЦ
 1172              		.loc 1 279 13 view .LVU257
 279:BSP/w25qxx.c  ****             WriteAddr+=secremain;//аДЕижЗЦЋвЦ
 1173              		.loc 1 279 20 is_stmt 0 view .LVU258
 1174 0062 2644     		add	r6, r6, r4
 1175              	.LVL130:
 280:BSP/w25qxx.c  ****             NumByteToWrite-=secremain;				//зжНкЪ§ЕнМѕ
 1176              		.loc 1 280 13 is_stmt 1 view .LVU259
 280:BSP/w25qxx.c  ****             NumByteToWrite-=secremain;				//зжНкЪ§ЕнМѕ
 1177              		.loc 1 280 22 is_stmt 0 view .LVU260
 1178 0064 A144     		add	r9, r9, r4
 1179              	.LVL131:
 281:BSP/w25qxx.c  ****             if(NumByteToWrite>SECTOR_SIZE)secremain=SECTOR_SIZE;	//ЯТвЛИіЩШЧјЛЙЪЧаДВЛЭъ
 1180              		.loc 1 281 13 is_stmt 1 view .LVU261
 281:BSP/w25qxx.c  ****             if(NumByteToWrite>SECTOR_SIZE)secremain=SECTOR_SIZE;	//ЯТвЛИіЩШЧјЛЙЪЧаДВЛЭъ
 1181              		.loc 1 281 27 is_stmt 0 view .LVU262
 1182 0066 3F1B     		subs	r7, r7, r4
 1183              	.LVL132:
 282:BSP/w25qxx.c  ****             else secremain=NumByteToWrite;			//ЯТвЛИіЩШЧјПЩвдаДЭъСЫ
 1184              		.loc 1 282 13 is_stmt 1 view .LVU263
 282:BSP/w25qxx.c  ****             else secremain=NumByteToWrite;			//ЯТвЛИіЩШЧјПЩвдаДЭъСЫ
 1185              		.loc 1 282 15 is_stmt 0 view .LVU264
 1186 0068 B7F5805F 		cmp	r7, #4096
 1187 006c D8D8     		bhi	.L94
 283:BSP/w25qxx.c  ****         }
 1188              		.loc 1 283 18 is_stmt 1 view .LVU265
 283:BSP/w25qxx.c  ****         }
 1189              		.loc 1 283 27 is_stmt 0 view .LVU266
 1190 006e BCB2     		uxth	r4, r7
 1191              	.LVL133:
 283:BSP/w25qxx.c  ****         }
 1192              		.loc 1 283 27 view .LVU267
 1193 0070 D8E7     		b	.L93
 1194              	.LVL134:
 1195              	.L96:
 265:BSP/w25qxx.c  ****             for(i=0; i<secremain; i++)	 //ИДжЦ
 1196              		.loc 1 265 13 is_stmt 1 view .LVU268
 1197 0072 4046     		mov	r0, r8
 1198 0074 FFF7FEFF 		bl	W25QXX_Erase_Sector
 1199              	.LVL135:
 266:BSP/w25qxx.c  ****             {
 1200              		.loc 1 266 13 view .LVU269
 266:BSP/w25qxx.c  ****             {
 1201              		.loc 1 266 18 is_stmt 0 view .LVU270
 1202 0078 0023     		movs	r3, #0
 266:BSP/w25qxx.c  ****             {
 1203              		.loc 1 266 13 view .LVU271
 1204 007a 05E0     		b	.L89
ARM GAS  C:\Users\24120\AppData\Local\Temp\ccuOcudP.s 			page 30


 1205              	.LVL136:
 1206              	.L90:
 268:BSP/w25qxx.c  ****             }
 1207              		.loc 1 268 17 is_stmt 1 view .LVU272
 268:BSP/w25qxx.c  ****             }
 1208              		.loc 1 268 29 is_stmt 0 view .LVU273
 1209 007c 5A19     		adds	r2, r3, r5
 268:BSP/w25qxx.c  ****             }
 1210              		.loc 1 268 45 view .LVU274
 1211 007e F05C     		ldrb	r0, [r6, r3]	@ zero_extendqisi2
 268:BSP/w25qxx.c  ****             }
 1212              		.loc 1 268 37 view .LVU275
 1213 0080 0749     		ldr	r1, .L97
 1214 0082 8854     		strb	r0, [r1, r2]
 266:BSP/w25qxx.c  ****             {
 1215              		.loc 1 266 36 is_stmt 1 discriminator 3 view .LVU276
 1216 0084 0133     		adds	r3, r3, #1
 1217              	.LVL137:
 266:BSP/w25qxx.c  ****             {
 1218              		.loc 1 266 36 is_stmt 0 discriminator 3 view .LVU277
 1219 0086 9BB2     		uxth	r3, r3
 1220              	.LVL138:
 1221              	.L89:
 266:BSP/w25qxx.c  ****             {
 1222              		.loc 1 266 23 is_stmt 1 discriminator 1 view .LVU278
 1223 0088 9C42     		cmp	r4, r3
 1224 008a F7D8     		bhi	.L90
 270:BSP/w25qxx.c  ****         }
 1225              		.loc 1 270 13 view .LVU279
 1226 008c 4FF48052 		mov	r2, #4096
 1227 0090 5146     		mov	r1, r10
 1228 0092 0348     		ldr	r0, .L97
 1229 0094 FFF7FEFF 		bl	W25QXX_Write_NoCheck
 1230              	.LVL139:
 270:BSP/w25qxx.c  ****         }
 1231              		.loc 1 270 13 is_stmt 0 view .LVU280
 1232 0098 DFE7     		b	.L91
 1233              	.LVL140:
 1234              	.L82:
 286:BSP/w25qxx.c  **** //ВСГ§ећИіаОЦЌ
 1235              		.loc 1 286 1 view .LVU281
 1236 009a BDE8F087 		pop	{r4, r5, r6, r7, r8, r9, r10, pc}
 1237              	.LVL141:
 1238              	.L98:
 286:BSP/w25qxx.c  **** //ВСГ§ећИіаОЦЌ
 1239              		.loc 1 286 1 view .LVU282
 1240 009e 00BF     		.align	2
 1241              	.L97:
 1242 00a0 00000000 		.word	W25QXX_BUFFER
 1243              		.cfi_endproc
 1244              	.LFE251:
 1246              		.section	.text.W25QXX_PowerDown,"ax",%progbits
 1247              		.align	1
 1248              		.global	W25QXX_PowerDown
 1249              		.syntax unified
 1250              		.thumb
 1251              		.thumb_func
ARM GAS  C:\Users\24120\AppData\Local\Temp\ccuOcudP.s 			page 31


 1253              	W25QXX_PowerDown:
 1254              	.LFB255:
 325:BSP/w25qxx.c  **** //НјШыЕєЕчФЃЪН
 326:BSP/w25qxx.c  **** void W25QXX_PowerDown(void)
 327:BSP/w25qxx.c  **** {
 1255              		.loc 1 327 1 is_stmt 1 view -0
 1256              		.cfi_startproc
 1257              		@ args = 0, pretend = 0, frame = 0
 1258              		@ frame_needed = 0, uses_anonymous_args = 0
 1259 0000 10B5     		push	{r4, lr}
 1260              	.LCFI18:
 1261              		.cfi_def_cfa_offset 8
 1262              		.cfi_offset 4, -8
 1263              		.cfi_offset 14, -4
 328:BSP/w25qxx.c  ****     W25QXX_CS0;                            //ЪЙФмЦїМў
 1264              		.loc 1 328 5 view .LVU284
 1265 0002 094C     		ldr	r4, .L101
 1266 0004 0022     		movs	r2, #0
 1267 0006 1021     		movs	r1, #16
 1268 0008 2046     		mov	r0, r4
 1269 000a FFF7FEFF 		bl	HAL_GPIO_WritePin
 1270              	.LVL142:
 329:BSP/w25qxx.c  ****     SPI1_ReadWriteByte(W25X_PowerDown);     //ЗЂЫЭЕєЕчУќСю
 1271              		.loc 1 329 5 view .LVU285
 1272 000e B920     		movs	r0, #185
 1273 0010 FFF7FEFF 		bl	SPI1_ReadWriteByte
 1274              	.LVL143:
 330:BSP/w25qxx.c  ****     W25QXX_CS1;                            //ШЁЯћЦЌбЁ
 1275              		.loc 1 330 5 view .LVU286
 1276 0014 0122     		movs	r2, #1
 1277 0016 1021     		movs	r1, #16
 1278 0018 2046     		mov	r0, r4
 1279 001a FFF7FEFF 		bl	HAL_GPIO_WritePin
 1280              	.LVL144:
 331:BSP/w25qxx.c  ****     delayus(3);                            //ЕШД§TPD
 1281              		.loc 1 331 5 view .LVU287
 1282 001e 0320     		movs	r0, #3
 1283 0020 FFF7FEFF 		bl	delayus
 1284              	.LVL145:
 332:BSP/w25qxx.c  **** }
 1285              		.loc 1 332 1 is_stmt 0 view .LVU288
 1286 0024 10BD     		pop	{r4, pc}
 1287              	.L102:
 1288 0026 00BF     		.align	2
 1289              	.L101:
 1290 0028 00080240 		.word	1073874944
 1291              		.cfi_endproc
 1292              	.LFE255:
 1294              		.section	.text.W25QXX_WAKEUP,"ax",%progbits
 1295              		.align	1
 1296              		.global	W25QXX_WAKEUP
 1297              		.syntax unified
 1298              		.thumb
 1299              		.thumb_func
 1301              	W25QXX_WAKEUP:
 1302              	.LFB256:
 333:BSP/w25qxx.c  **** //ЛНаб
ARM GAS  C:\Users\24120\AppData\Local\Temp\ccuOcudP.s 			page 32


 334:BSP/w25qxx.c  **** void W25QXX_WAKEUP(void)
 335:BSP/w25qxx.c  **** {
 1303              		.loc 1 335 1 is_stmt 1 view -0
 1304              		.cfi_startproc
 1305              		@ args = 0, pretend = 0, frame = 0
 1306              		@ frame_needed = 0, uses_anonymous_args = 0
 1307 0000 10B5     		push	{r4, lr}
 1308              	.LCFI19:
 1309              		.cfi_def_cfa_offset 8
 1310              		.cfi_offset 4, -8
 1311              		.cfi_offset 14, -4
 336:BSP/w25qxx.c  ****     W25QXX_CS0;                                //ЪЙФмЦїМў
 1312              		.loc 1 336 5 view .LVU290
 1313 0002 094C     		ldr	r4, .L105
 1314 0004 0022     		movs	r2, #0
 1315 0006 1021     		movs	r1, #16
 1316 0008 2046     		mov	r0, r4
 1317 000a FFF7FEFF 		bl	HAL_GPIO_WritePin
 1318              	.LVL146:
 337:BSP/w25qxx.c  ****     SPI1_ReadWriteByte(W25X_ReleasePowerDown);  //  send W25X_PowerDown command 0xAB
 1319              		.loc 1 337 5 view .LVU291
 1320 000e AB20     		movs	r0, #171
 1321 0010 FFF7FEFF 		bl	SPI1_ReadWriteByte
 1322              	.LVL147:
 338:BSP/w25qxx.c  ****     W25QXX_CS1;                                //ШЁЯћЦЌбЁ
 1323              		.loc 1 338 5 view .LVU292
 1324 0014 0122     		movs	r2, #1
 1325 0016 1021     		movs	r1, #16
 1326 0018 2046     		mov	r0, r4
 1327 001a FFF7FEFF 		bl	HAL_GPIO_WritePin
 1328              	.LVL148:
 339:BSP/w25qxx.c  ****     delayus(3);                                //ЕШД§TRES1
 1329              		.loc 1 339 5 view .LVU293
 1330 001e 0320     		movs	r0, #3
 1331 0020 FFF7FEFF 		bl	delayus
 1332              	.LVL149:
 340:BSP/w25qxx.c  **** }
 1333              		.loc 1 340 1 is_stmt 0 view .LVU294
 1334 0024 10BD     		pop	{r4, pc}
 1335              	.L106:
 1336 0026 00BF     		.align	2
 1337              	.L105:
 1338 0028 00080240 		.word	1073874944
 1339              		.cfi_endproc
 1340              	.LFE256:
 1342              		.global	W25QXX_BUFFER
 1343              		.section	.bss.W25QXX_BUFFER,"aw",%nobits
 1344              		.align	2
 1347              	W25QXX_BUFFER:
 1348 0000 00000000 		.space	4096
 1348      00000000 
 1348      00000000 
 1348      00000000 
 1348      00000000 
 1349              		.global	W25QXX_TYPE
 1350              		.section	.data.W25QXX_TYPE,"aw"
 1351              		.align	1
ARM GAS  C:\Users\24120\AppData\Local\Temp\ccuOcudP.s 			page 33


 1354              	W25QXX_TYPE:
 1355 0000 17EF     		.short	-4329
 1356              		.text
 1357              	.Letext0:
 1358              		.file 2 "E:/STM32/Tools/arm-none-eabi-gcc/14.2.1-1.1.1/.content/arm-none-eabi/include/machine/_def
 1359              		.file 3 "E:/STM32/Tools/arm-none-eabi-gcc/14.2.1-1.1.1/.content/arm-none-eabi/include/sys/_stdint.
 1360              		.file 4 "Drivers/CMSIS/Device/ST/STM32F4xx/Include/stm32f407xx.h"
 1361              		.file 5 "Drivers/STM32F4xx_HAL_Driver/Inc/stm32f4xx_hal_def.h"
 1362              		.file 6 "Drivers/STM32F4xx_HAL_Driver/Inc/stm32f4xx_hal_gpio.h"
 1363              		.file 7 "Drivers/STM32F4xx_HAL_Driver/Inc/stm32f4xx_hal_dma.h"
 1364              		.file 8 "Drivers/STM32F4xx_HAL_Driver/Inc/stm32f4xx_hal_spi.h"
 1365              		.file 9 "BSP/w25qxx.h"
 1366              		.file 10 "Core/Inc/spi.h"
ARM GAS  C:\Users\24120\AppData\Local\Temp\ccuOcudP.s 			page 34

